EXPORTS
??0?$_Eq_char_bound@U?$char_traits@D@std@@@_STL@@QAE@D@Z
??0?$_Neq_char_bound@U?$char_traits@D@std@@@_STL@@QAE@D@Z
??0?$_Not_within_traits@U?$char_traits@D@std@@@_STL@@QAE@PBD0@Z
??0?$_String_base@DV?$allocator@D@_STL@@@_STL@@QAE@ABV?$allocator@D@1@@Z
??0?$_String_base@DV?$allocator@D@_STL@@@_STL@@QAE@ABV?$allocator@D@1@I@Z
??0?$_String_base@GV?$allocator@G@_STL@@@_STL@@QAE@ABV?$allocator@G@1@@Z
??0?$com_ptr@UIDirectInput8A@@@NWin32Helper@@QAE@PAUIDirectInput8A@@@Z
??0?$com_ptr@UIDirectInputDevice8A@@@NWin32Helper@@QAE@ABV01@@Z
??0?$com_ptr@UIDirectInputDevice8A@@@NWin32Helper@@QAE@PAUIDirectInputDevice8A@@@Z
??0?$pair@$$CBHUSActionInfo@NInput@@@_STL@@QAE@ABHABUSActionInfo@NInput@@@Z
??0?$pair@$$CBHUSActionInfo@NInput@@@_STL@@QAE@ABU01@@Z
??0?$pair@$$CBKUSKey@NInput@@@_STL@@QAE@ABKABUSKey@NInput@@@Z
??0?$pair@$$CBKUSKey@NInput@@@_STL@@QAE@ABU01@@Z
??0?$pair@$$CBV?$basic_string@DU?$char_traits@D@std@@V?$allocator@D@_STL@@@_STL@@H@_STL@@QAE@ABU01@@Z
??0?$pair@$$CBV?$basic_string@DU?$char_traits@D@std@@V?$allocator@D@_STL@@@_STL@@H@_STL@@QAE@ABV?$basic_string@DU?$char_traits@D@std@@V?$allocator@D@_STL@@@1@ABH@Z
??0?$pair@$$CBV?$basic_string@DU?$char_traits@D@std@@V?$allocator@D@_STL@@@_STL@@USBindCommand@NInput@@@_STL@@QAE@ABU01@@Z
??0?$pair@$$CBV?$basic_string@DU?$char_traits@D@std@@V?$allocator@D@_STL@@@_STL@@USBindCommand@NInput@@@_STL@@QAE@ABV?$basic_string@DU?$char_traits@D@std@@V?$allocator@D@_STL@@@1@ABUSBindCommand@NInput@@@Z
??0?$pair@$$CBV?$basic_string@DU?$char_traits@D@std@@V?$allocator@D@_STL@@@_STL@@USCommand@NInput@@@_STL@@QAE@ABU01@@Z
??0?$pair@$$CBV?$basic_string@DU?$char_traits@D@std@@V?$allocator@D@_STL@@@_STL@@USCommand@NInput@@@_STL@@QAE@ABV?$basic_string@DU?$char_traits@D@std@@V?$allocator@D@_STL@@@1@ABUSCommand@NInput@@@Z
??0CAxisAccumulator@NInput@@QAE@XZ
??0CBind@NInput@@QAE@ABV?$basic_string@DU?$char_traits@D@std@@V?$allocator@D@_STL@@@_STL@@@Z
??0CDoubleAccumulator@NInput@@QAE@XZ
??0CKeyAccumulator@NInput@@QAE@XZ
??0InputBindInit@@QAE@XZ
??0SAccumulator@NInput@@QAE@XZ
??0SActionInfo@NInput@@QAE@ABU01@@Z
??0SActionInfo@NInput@@QAE@XZ
??0SBind@NInput@@QAE@XZ
??0SBindCommand@NInput@@QAE@XZ
??0SCommand@NInput@@QAE@ABU01@@Z
??0SCommand@NInput@@QAE@XZ
??0SEvent@NInput@@QAE@ABU01@@Z
??0SEvent@NInput@@QAE@XZ
??0SInputDevice@NInput@@QAE@ABU01@@Z
??0SInputDevice@NInput@@QAE@XZ
??0SInputDeviceEnum@NInput@@QAE@XZ
??0SKey@NInput@@QAE@XZ
??0SMapping@NInput@@QAE@ABU01@@Z
??0SMapping@NInput@@QAE@XZ
??1?$_String_base@DV?$allocator@D@_STL@@@_STL@@QAE@XZ
??1?$_String_base@GV?$allocator@G@_STL@@@_STL@@QAE@XZ
??1?$com_ptr@UIDirectInput8A@@@NWin32Helper@@QAE@XZ
??1?$com_ptr@UIDirectInputDevice8A@@@NWin32Helper@@QAE@XZ
??1?$pair@$$CBHUSActionInfo@NInput@@@_STL@@QAE@XZ
??1?$pair@$$CBV?$basic_string@DU?$char_traits@D@std@@V?$allocator@D@_STL@@@_STL@@H@_STL@@QAE@XZ
??1?$pair@$$CBV?$basic_string@DU?$char_traits@D@std@@V?$allocator@D@_STL@@@_STL@@USBindCommand@NInput@@@_STL@@QAE@XZ
??1?$pair@$$CBV?$basic_string@DU?$char_traits@D@std@@V?$allocator@D@_STL@@@_STL@@USCommand@NInput@@@_STL@@QAE@XZ
??1SActionInfo@NInput@@QAE@XZ
??1SBind@NInput@@QAE@XZ
??1SCommand@NInput@@QAE@XZ
??1SEvent@NInput@@QAE@XZ
??1SInputDevice@NInput@@QAE@XZ
??1SInputDeviceEnum@NInput@@QAE@XZ
??1SMapping@NInput@@QAE@XZ
??2@YAPAXIPAX@Z
??3@YAXPAX0@Z
??4?$com_ptr@UIDirectInput8A@@@NWin32Helper@@QAEAAV01@PAUIDirectInput8A@@@Z
??4?$com_ptr@UIDirectInputDevice8A@@@NWin32Helper@@QAEAAV01@ABV01@@Z
??4?$com_ptr@UIDirectInputDevice8A@@@NWin32Helper@@QAEAAV01@PAUIDirectInputDevice8A@@@Z
??4SEvent@NInput@@QAEAAU01@ABU01@@Z
??4SInputDevice@NInput@@QAEAAU01@ABU01@@Z
??6CLogStream@@QAEAAV0@ABV?$basic_string@DU?$char_traits@D@std@@V?$allocator@D@_STL@@@_STL@@@Z
??B?$com_ptr@UIDirectInputDevice8A@@@NWin32Helper@@QBEPAUIDirectInputDevice8A@@XZ
??C?$com_ptr@UIDirectInput8A@@@NWin32Helper@@QBEPAUIDirectInput8A@@XZ
??C?$com_ptr@UIDirectInputDevice8A@@@NWin32Helper@@QBEPAUIDirectInputDevice8A@@XZ
??R?$_Eq_char_bound@U?$char_traits@D@std@@@_STL@@QBE_NABD@Z
??R?$_Neq_char_bound@U?$char_traits@D@std@@@_STL@@QBE_NABD@Z
??R?$_Not_within_traits@U?$char_traits@D@std@@@_STL@@QBE_NABD@Z
??R?$_Select1st@U?$pair@$$CBHUSActionInfo@NInput@@@_STL@@@_STL@@QBEABHABU?$pair@$$CBHUSActionInfo@NInput@@@1@@Z
??R?$_Select1st@U?$pair@$$CBKUSKey@NInput@@@_STL@@@_STL@@QBEABKABU?$pair@$$CBKUSKey@NInput@@@1@@Z
??R?$_Select1st@U?$pair@$$CBV?$basic_string@DU?$char_traits@D@std@@V?$allocator@D@_STL@@@_STL@@H@_STL@@@_STL@@QBEABV?$basic_string@DU?$char_traits@D@std@@V?$allocator@D@_STL@@@1@ABU?$pair@$$CBV?$basic_string@DU?$char_traits@D@std@@V?$allocator@D@_STL@@@_STL@@H@1@@Z
??R?$_Select1st@U?$pair@$$CBV?$basic_string@DU?$char_traits@D@std@@V?$allocator@D@_STL@@@_STL@@USBindCommand@NInput@@@_STL@@@_STL@@QBEABV?$basic_string@DU?$char_traits@D@std@@V?$allocator@D@_STL@@@1@ABU?$pair@$$CBV?$basic_string@DU?$char_traits@D@std@@V?$allocator@D@_STL@@@_STL@@USBindCommand@NInput@@@1@@Z
??R?$_Select1st@U?$pair@$$CBV?$basic_string@DU?$char_traits@D@std@@V?$allocator@D@_STL@@@_STL@@USCommand@NInput@@@_STL@@@_STL@@QBEABV?$basic_string@DU?$char_traits@D@std@@V?$allocator@D@_STL@@@1@ABU?$pair@$$CBV?$basic_string@DU?$char_traits@D@std@@V?$allocator@D@_STL@@@_STL@@USCommand@NInput@@@1@@Z
??R?$equal_to@H@_STL@@QBE_NABH0@Z
??R?$equal_to@K@_STL@@QBE_NABK0@Z
??R?$equal_to@V?$basic_string@DU?$char_traits@D@std@@V?$allocator@D@_STL@@@_STL@@@_STL@@QBE_NABV?$basic_string@DU?$char_traits@D@std@@V?$allocator@D@_STL@@@1@0@Z
??R?$hash@H@_STL@@QBEIH@Z
??R?$hash@K@_STL@@QBEIK@Z
??R?$hash@V?$basic_string@DU?$char_traits@D@std@@V?$allocator@D@_STL@@@_STL@@@_STL@@QBEIABV?$basic_string@DU?$char_traits@D@std@@V?$allocator@D@_STL@@@1@@Z
??R?$less@I@_STL@@QBE_NABI0@Z
??RSSeqNumberLessThenFunctional@NInput@@QBE_NABUSInputEvent@1@0@Z
??_G?$basic_string@DU?$char_traits@D@std@@V?$allocator@D@_STL@@@_STL@@QAEPAXI@Z
??_G?$basic_string@GU?$char_traits@G@std@@V?$allocator@G@_STL@@@_STL@@QAEPAXI@Z
??_G?$pair@$$CBHUSActionInfo@NInput@@@_STL@@QAEPAXI@Z
??_G?$pair@$$CBV?$basic_string@DU?$char_traits@D@std@@V?$allocator@D@_STL@@@_STL@@H@_STL@@QAEPAXI@Z
??_G?$pair@$$CBV?$basic_string@DU?$char_traits@D@std@@V?$allocator@D@_STL@@@_STL@@USBindCommand@NInput@@@_STL@@QAEPAXI@Z
??_G?$pair@$$CBV?$basic_string@DU?$char_traits@D@std@@V?$allocator@D@_STL@@@_STL@@USCommand@NInput@@@_STL@@QAEPAXI@Z
??_G?$vector@HV?$allocator@H@_STL@@@_STL@@QAEPAXI@Z
??_GSBind@NInput@@QAEPAXI@Z
??_GSEvent@NInput@@QAEPAXI@Z
??_GSInputDevice@NInput@@QAEPAXI@Z
??_GSMapping@NInput@@QAEPAXI@Z
?Activate@CKeyAccumulator@NInput@@QAEXHK@Z
?Add@CAxisAccumulator@NInput@@QAEXHK@Z
?Add@CDoubleAccumulator@NInput@@QAEXHK@Z
?AddDeviceEnum@NInput@@YAXPAUIDirectInputDevice8A@@@Z
?AddDeviceInfo@NInput@@YAXPAUIDirectInputDevice8A@@K@Z
?AddDeviceKeys@NInput@@YAXHH@Z
?Assign@?$com_ptr@UIDirectInput8A@@@NWin32Helper@@AAEXPAUIDirectInput8A@@@Z
?Assign@?$com_ptr@UIDirectInputDevice8A@@@NWin32Helper@@AAEXPAUIDirectInputDevice8A@@@Z
?Bind@NInput@@YAXW4EMappingType@1@ABV?$basic_string@DU?$char_traits@D@std@@V?$allocator@D@_STL@@@_STL@@1ABV?$vector@V?$basic_string@DU?$char_traits@D@std@@V?$allocator@D@_STL@@@_STL@@V?$allocator@V?$basic_string@DU?$char_traits@D@std@@V?$allocator@D@_STL@@@_STL@@@2@@4@@Z
?Deactivate@CDoubleAccumulator@NInput@@QAEXK@Z
?Deactivate@CKeyAccumulator@NInput@@QAEXK@Z
?DoneInput@NInput@@YA_NXZ
?EnumDeviceObjectsCallback@NInput@@YGHPBUDIDEVICEOBJECTINSTANCEA@@PAX@Z
?EnumDevicesCallback@NInput@@YGHPBUDIDEVICEINSTANCEA@@PAX@Z
?Free@?$com_ptr@UIDirectInput8A@@@NWin32Helper@@AAEXXZ
?Free@?$com_ptr@UIDirectInputDevice8A@@@NWin32Helper@@AAEXXZ
?GetActions@NInput@@YAAAV?$hash_map@HUSActionInfo@NInput@@U?$hash@H@_STL@@U?$equal_to@H@4@V?$allocator@U?$pair@$$CBHUSActionInfo@NInput@@@_STL@@@4@@_STL@@XZ
?GetAddr@?$com_ptr@UIDirectInput8A@@@NWin32Helper@@QAEPAPAUIDirectInput8A@@XZ
?GetAddr@?$com_ptr@UIDirectInputDevice8A@@@NWin32Helper@@QAEPAPAUIDirectInputDevice8A@@XZ
?GetBind@NInput@@YAXABV?$basic_string@DU?$char_traits@D@std@@V?$allocator@D@_STL@@@_STL@@PAV?$list@USBind@NInput@@V?$allocator@USBind@NInput@@@_STL@@@3@@Z
?GetBindCommands@NInput@@YAAAV?$hash_map@V?$basic_string@DU?$char_traits@D@std@@V?$allocator@D@_STL@@@_STL@@USBindCommand@NInput@@U?$hash@V?$basic_string@DU?$char_traits@D@std@@V?$allocator@D@_STL@@@_STL@@@2@U?$equal_to@V?$basic_string@DU?$char_traits@D@std@@V?$allocator@D@_STL@@@_STL@@@2@V?$allocator@U?$pair@$$CBV?$basic_string@DU?$char_traits@D@std@@V?$allocator@D@_STL@@@_STL@@USBindCommand@NInput@@@_STL@@@2@@_STL@@XZ
?GetCharForKey@NInput@@YA_NHPAG@Z
?GetCommands@NInput@@YAAAV?$hash_map@V?$basic_string@DU?$char_traits@D@std@@V?$allocator@D@_STL@@@_STL@@USCommand@NInput@@U?$hash@V?$basic_string@DU?$char_traits@D@std@@V?$allocator@D@_STL@@@_STL@@@2@U?$equal_to@V?$basic_string@DU?$char_traits@D@std@@V?$allocator@D@_STL@@@_STL@@@2@V?$allocator@U?$pair@$$CBV?$basic_string@DU?$char_traits@D@std@@V?$allocator@D@_STL@@@_STL@@USCommand@NInput@@@_STL@@@2@@_STL@@XZ
?GetControlCoeff@NInput@@YAMABV?$basic_string@DU?$char_traits@D@std@@V?$allocator@D@_STL@@@_STL@@@Z
?GetControlID@NInput@@YAHABV?$basic_string@DU?$char_traits@D@std@@V?$allocator@D@_STL@@@_STL@@@Z
?GetControlInfo@NInput@@YAXHPAW4EControlType@1@PAM@Z
?GetDelta@CBind@NInput@@QAEMXZ
?GetDelta@CDoubleAccumulator@NInput@@IAE_JK@Z
?GetEvent@NInput@@YA_NPAUSEvent@1@@Z
?GetKeyForMessage@NInput@@YA_NABUSMessage@1@PAH@Z
?GetMessageA@NInput@@YA_NPAUSMessage@1@@Z
?GetSection@NInput@@YAABV?$basic_string@DU?$char_traits@D@std@@V?$allocator@D@_STL@@@_STL@@XZ
?GetSpeed@CBind@NInput@@QAEMXZ
?InitInput@NInput@@YA_NPAUHWND__@@_NH@Z
?IsActive@CBind@NInput@@QAE_NXZ
?PostEvent@NInput@@YAXABV?$basic_string@DU?$char_traits@D@std@@V?$allocator@D@_STL@@@_STL@@@Z
?ProcessEvent@CBind@NInput@@QAE_NABUSEvent@2@@Z
?PumpMessages@NInput@@YAX_N@Z
?ResyncDevice@NInput@@YAXABUSInputDevice@1@@Z
?Sample@CAxisAccumulator@NInput@@QAE_JK@Z
?Sample@CDoubleAccumulator@NInput@@QAE_JK@Z
?Sample@CKeyAccumulator@NInput@@QAE_JK@Z
?Sample@SAccumulator@NInput@@QAE_JK@Z
?SetControlCoeff@NInput@@YAXABV?$basic_string@DU?$char_traits@D@std@@V?$allocator@D@_STL@@@_STL@@M@Z
?SetCoopLevel@NInput@@YA_NXZ
?SetFocus@NInput@@YA_N_N@Z
?SetSection@NInput@@YAXABV?$basic_string@DU?$char_traits@D@std@@V?$allocator@D@_STL@@@_STL@@_N@Z
?StartEmulateInput@NInput@@YAXPAVCDataStream@@@Z
?StartSaveInput@NInput@@YAXPAVCDataStream@@@Z
?StopEmulateInput@NInput@@YAXXZ
?StopSaveInput@NInput@@YAXXZ
?ToAscii@NStr@@YA?AV?$basic_string@DU?$char_traits@D@std@@V?$allocator@D@_STL@@@_STL@@ABV?$basic_string@GU?$char_traits@G@std@@V?$allocator@G@_STL@@@3@@Z
?TrimBoth@NStr@@YAXAAV?$basic_string@DU?$char_traits@D@std@@V?$allocator@D@_STL@@@_STL@@PBD@Z
?TrimLeft@NStr@@YAXAAV?$basic_string@DU?$char_traits@D@std@@V?$allocator@D@_STL@@@_STL@@D@Z
?TrimLeft@NStr@@YAXAAV?$basic_string@DU?$char_traits@D@std@@V?$allocator@D@_STL@@@_STL@@PBD@Z
?Unbind@NInput@@YAXABV?$basic_string@DU?$char_traits@D@std@@V?$allocator@D@_STL@@@_STL@@@Z
?UnbindAll@NInput@@YAXXZ
?UpdateBinds@NInput@@YAXXZ
?_M_allocate_block@?$_String_base@DV?$allocator@D@_STL@@@_STL@@QAEXI@Z
?_M_allocate_block@?$_String_base@GV?$allocator@G@_STL@@@_STL@@QAEXI@Z
?_M_deallocate_block@?$_String_base@DV?$allocator@D@_STL@@@_STL@@QAEXXZ
?_M_deallocate_block@?$_String_base@GV?$allocator@G@_STL@@@_STL@@QAEXXZ
?_M_incr@_List_iterator_base@_STL@@QAEXXZ
?_M_throw_length_error@?$_String_base@DV?$allocator@D@_STL@@@_STL@@QBEXXZ
?_M_throw_length_error@?$_String_base@GV?$allocator@G@_STL@@@_STL@@QBEXXZ
?_M_throw_out_of_range@?$_String_base@DV?$allocator@D@_STL@@@_STL@@QBEXXZ
?_Ret@?$_IsPOD@D@_STL@@SA?AU__true_type@2@XZ
?_Ret@?$_IsPOD@G@_STL@@SA?AU__true_type@2@XZ
?_Ret@?$_IsPOD@PAX@_STL@@SA?AU__true_type@2@XZ
?allocate@__new_alloc@_STL@@SAPAXI@Z
?cos@@YAMM@Z
?deallocate@__new_alloc@_STL@@SAXPAXI@Z
?endl@@YAAAVCLogStream@@AAV1@@Z
?max_size@?$_String_base@DV?$allocator@D@_STL@@@_STL@@QBEIXZ
?max_size@?$_String_base@GV?$allocator@G@_STL@@@_STL@@QBEIXZ
?sin@@YAMM@Z
?what@__Named_exception@_STL@@UBEPBDXZ
