EXPORTS
??0?$_Eq_char_bound@U?$char_traits@D@std@@@_STL@@QAE@D@Z
??0?$_Not_within_traits@U?$char_traits@D@std@@@_STL@@QAE@PBD0@Z
??0?$_String_base@DV?$allocator@D@_STL@@@_STL@@QAE@ABV?$allocator@D@1@@Z
??0?$_String_base@GV?$allocator@G@_STL@@@_STL@@QAE@ABV?$allocator@G@1@@Z
??0?$_String_base@GV?$allocator@G@_STL@@@_STL@@QAE@ABV?$allocator@G@1@I@Z
??0?$pair@$$CBV?$basic_string@DU?$char_traits@D@std@@V?$allocator@D@_STL@@@_STL@@USRecord@NGlobal@@@_STL@@QAE@ABU01@@Z
??0?$pair@$$CBV?$basic_string@DU?$char_traits@D@std@@V?$allocator@D@_STL@@@_STL@@USRecord@NGlobal@@@_STL@@QAE@ABV?$basic_string@DU?$char_traits@D@std@@V?$allocator@D@_STL@@@1@ABUSRecord@NGlobal@@@Z
??0CBufferedStream@@QAE@XZ
??0CCmd@NGlobal@@QAE@ABV?$basic_string@DU?$char_traits@D@std@@V?$allocator@D@_STL@@@_STL@@P6IX0ABV?$vector@V?$basic_string@GU?$char_traits@G@std@@V?$allocator@G@_STL@@@_STL@@V?$allocator@V?$basic_string@GU?$char_traits@G@std@@V?$allocator@G@_STL@@@_STL@@@2@@3@PAX@Z2@Z
??0CDataStream@@QAE@XZ
??0CFileStream@@QAE@XZ
??0CLogStream@@QAE@W4EStreamType@@@Z
??0CObjectBase@@QAE@XZ
??0CRecordsMap@NGlobal@@QAE@XZ
??0CValue@NGlobal@@QAE@ABU01@@Z
??0CValue@NGlobal@@QAE@ABV?$basic_string@GU?$char_traits@G@std@@V?$allocator@G@_STL@@@_STL@@@Z
??0CValue@NGlobal@@QAE@M@Z
??0CValue@NGlobal@@QAE@XZ
??0CVar@NGlobal@@QAE@ABV?$basic_string@DU?$char_traits@D@std@@V?$allocator@D@_STL@@@_STL@@P6IX0ABUCValue@1@PAX@Z21_N@Z
??0CommandsInit@@QAE@XZ
??0SConsoleLine@@QAE@ABU0@@Z
??0SConsoleLine@@QAE@HW4EStreamType@@_NV?$basic_string@GU?$char_traits@G@std@@V?$allocator@G@_STL@@@_STL@@@Z
??0SRecord@NGlobal@@QAE@ABU01@@Z
??0SRecord@NGlobal@@QAE@XZ
??1?$_String_base@DV?$allocator@D@_STL@@@_STL@@QAE@XZ
??1?$_String_base@GV?$allocator@G@_STL@@@_STL@@QAE@XZ
??1?$pair@$$CBV?$basic_string@DU?$char_traits@D@std@@V?$allocator@D@_STL@@@_STL@@USRecord@NGlobal@@@_STL@@QAE@XZ
??1CBufferedStream@@UAE@XZ
??1CCmd@NGlobal@@QAE@XZ
??1CDataStream@@UAE@XZ
??1CFileStream@@UAE@XZ
??1CLogStream@@QAE@XZ
??1CObjectBase@@MAE@XZ
??1CRecordsMap@NGlobal@@UAE@XZ
??1CValue@NGlobal@@QAE@XZ
??1CVar@NGlobal@@QAE@XZ
??1SConsoleLine@@QAE@XZ
??1SKillRecordsMap@NGlobal@@QAE@XZ
??1SRecord@NGlobal@@QAE@XZ
??2@YAPAXIPAX@Z
??3@YAXPAX0@Z
??4CValue@NGlobal@@QAEAAU01@ABU01@@Z
??6CDataStream@@QAEAAV0@ABD@Z
??6CLogStream@@QAEAAV0@ABH@Z
??6CLogStream@@QAEAAV0@ABJ@Z
??6CLogStream@@QAEAAV0@ABN@Z
??6CLogStream@@QAEAAV0@ABV?$basic_string@DU?$char_traits@D@std@@V?$allocator@D@_STL@@@_STL@@@Z
??6CLogStream@@QAEAAV0@ABV?$basic_string@GU?$char_traits@G@std@@V?$allocator@G@_STL@@@_STL@@@Z
??6CLogStream@@QAEAAV0@ABW4EConsoleColor@@@Z
??6CLogStream@@QAEAAV0@AB_N@Z
??6CLogStream@@QAEAAV0@P6IAAV0@AAV0@@Z@Z
??6CLogStream@@QAEAAV0@PBD@Z
??6CLogStream@@QAEAAV0@PBG@Z
??ICObjectBase@@UAEHAAVCStructureSaver@@@Z
??R?$_Eq_char_bound@U?$char_traits@D@std@@@_STL@@QBE_NABD@Z
??R?$_Not_within_traits@U?$char_traits@D@std@@@_STL@@QBE_NABD@Z
??R?$_Select1st@U?$pair@$$CBV?$basic_string@DU?$char_traits@D@std@@V?$allocator@D@_STL@@@_STL@@USRecord@NGlobal@@@_STL@@@_STL@@QBEABV?$basic_string@DU?$char_traits@D@std@@V?$allocator@D@_STL@@@1@ABU?$pair@$$CBV?$basic_string@DU?$char_traits@D@std@@V?$allocator@D@_STL@@@_STL@@USRecord@NGlobal@@@1@@Z
??R?$equal_to@V?$basic_string@DU?$char_traits@D@std@@V?$allocator@D@_STL@@@_STL@@@_STL@@QBE_NABV?$basic_string@DU?$char_traits@D@std@@V?$allocator@D@_STL@@@1@0@Z
??R?$hash@V?$basic_string@DU?$char_traits@D@std@@V?$allocator@D@_STL@@@_STL@@@_STL@@QBEIABV?$basic_string@DU?$char_traits@D@std@@V?$allocator@D@_STL@@@1@@Z
??R?$less@I@_STL@@QBE_NABI0@Z
??R?$less@V?$basic_string@DU?$char_traits@D@std@@V?$allocator@D@_STL@@@_STL@@@_STL@@QBE_NABV?$basic_string@DU?$char_traits@D@std@@V?$allocator@D@_STL@@@1@0@Z
??_G?$basic_string@DU?$char_traits@D@std@@V?$allocator@D@_STL@@@_STL@@QAEPAXI@Z
??_G?$basic_string@GU?$char_traits@G@std@@V?$allocator@G@_STL@@@_STL@@QAEPAXI@Z
??_G?$pair@$$CBV?$basic_string@DU?$char_traits@D@std@@V?$allocator@D@_STL@@@_STL@@USRecord@NGlobal@@@_STL@@QAEPAXI@Z
??_GCBufferedStream@@UAEPAXI@Z
??_GCDataStream@@UAEPAXI@Z
??_GCFileStream@@UAEPAXI@Z
??_GCObjectBase@@MAEPAXI@Z
??_GCRecordsMap@NGlobal@@UAEPAXI@Z
??_GSConsoleLine@@QAEPAXI@Z
?AddRef@CObjectBase@@AAEXXZ
?AddRef@SRef@CObjectBase@@QAEXPAV2@@Z
?CastToObjectBase@@YIPAVCObjectBase@@PAVCRecordsMap@NGlobal@@@Z
?CastToObjectBaseImpl@@YIPAVCObjectBase@@PAVCRecordsMap@NGlobal@@PAV1@@Z
?CmdPrintHelp@@YIXABV?$basic_string@DU?$char_traits@D@std@@V?$allocator@D@_STL@@@_STL@@ABV?$vector@V?$basic_string@GU?$char_traits@G@std@@V?$allocator@G@_STL@@@_STL@@V?$allocator@V?$basic_string@GU?$char_traits@G@std@@V?$allocator@G@_STL@@@_STL@@@2@@2@PAX@Z
?DestroyContents@CRecordsMap@NGlobal@@MAEXXZ
?FixupSize@CDataStream@@IAEXXZ
?Free@CDataStream@@IAEXPAE@Z
?Get@CVar@NGlobal@@QAEABUCValue@2@XZ
?GetBuffer@CMemoryStream@@QBEPBEXZ
?GetFloat@CValue@NGlobal@@QBEMXZ
?GetIDList@NGlobal@@YIXPAV?$vector@V?$basic_string@DU?$char_traits@D@std@@V?$allocator@D@_STL@@@_STL@@V?$allocator@V?$basic_string@DU?$char_traits@D@std@@V?$allocator@D@_STL@@@_STL@@@2@@_STL@@@Z
?GetSize@CDataStream@@QAEHXZ
?GetString@CValue@NGlobal@@QBEABV?$basic_string@GU?$char_traits@G@std@@V?$allocator@G@_STL@@@_STL@@XZ
?GetVar@NGlobal@@YIABUCValue@1@ABV?$basic_string@DU?$char_traits@D@std@@V?$allocator@D@_STL@@@_STL@@ABU21@@Z
?LoadConfig@NGlobal@@YIXABV?$basic_string@DU?$char_traits@D@std@@V?$allocator@D@_STL@@@_STL@@@Z
?MakeCopy@CObjectBase@@MBEPAV1@XZ
?NotifyFinishDirectAccess@CDataStream@@MAEXXZ
?OpenRead@CFileStream@@QAEXPBD@Z
?ProcessCommand@NGlobal@@YIXABV?$basic_string@GU?$char_traits@G@std@@V?$allocator@G@_STL@@@_STL@@@Z
?RWrite@CDataStream@@IAEXPBXI@Z
?RegisterCmd@NGlobal@@YIXABV?$basic_string@DU?$char_traits@D@std@@V?$allocator@D@_STL@@@_STL@@P6IX0ABV?$vector@V?$basic_string@GU?$char_traits@G@std@@V?$allocator@G@_STL@@@_STL@@V?$allocator@V?$basic_string@GU?$char_traits@G@std@@V?$allocator@G@_STL@@@_STL@@@2@@3@PAX@Z2@Z
?RegisterVar@NGlobal@@YIXABV?$basic_string@DU?$char_traits@D@std@@V?$allocator@D@_STL@@@_STL@@P6IX0ABUCValue@1@PAX@Z21_N@Z
?Release@SRef@CObjectBase@@QAEXPAV2@@Z
?ReserveR@CDataStream@@IAEPAEI@Z
?Run@CCmd@NGlobal@@QAEXABV?$vector@V?$basic_string@GU?$char_traits@G@std@@V?$allocator@G@_STL@@@_STL@@V?$allocator@V?$basic_string@GU?$char_traits@G@std@@V?$allocator@G@_STL@@@_STL@@@2@@_STL@@@Z
?SaveConfig@NGlobal@@YIXABV?$basic_string@DU?$char_traits@D@std@@V?$allocator@D@_STL@@@_STL@@@Z
?Set@CVar@NGlobal@@QAEXABUCValue@2@@Z
?SetVar@NGlobal@@YIXABV?$basic_string@DU?$char_traits@D@std@@V?$allocator@D@_STL@@@_STL@@ABUCValue@1@@Z
?SetWasted@CDataStream@@IAEXXZ
?ToAscii@NStr@@YI?AV?$basic_string@DU?$char_traits@D@std@@V?$allocator@D@_STL@@@_STL@@ABV?$basic_string@GU?$char_traits@G@std@@V?$allocator@G@_STL@@@3@@Z
?ToUnicode@NStr@@YI?AV?$basic_string@GU?$char_traits@G@std@@V?$allocator@G@_STL@@@_STL@@ABV?$basic_string@DU?$char_traits@D@std@@V?$allocator@D@_STL@@@3@@Z
?TrimBoth@NStr@@YIXAAV?$basic_string@DU?$char_traits@D@std@@V?$allocator@D@_STL@@@_STL@@PBD@Z
?TrimLeft@NStr@@YIXAAV?$basic_string@DU?$char_traits@D@std@@V?$allocator@D@_STL@@@_STL@@PBD@Z
?UnregisterCmd@NGlobal@@YIXABV?$basic_string@DU?$char_traits@D@std@@V?$allocator@D@_STL@@@_STL@@@Z
?UnregisterVar@NGlobal@@YIXABV?$basic_string@DU?$char_traits@D@std@@V?$allocator@D@_STL@@@_STL@@@Z
?VarBoolHandler@NGlobal@@YIXABV?$basic_string@DU?$char_traits@D@std@@V?$allocator@D@_STL@@@_STL@@ABUCValue@1@PAX@Z
?Write@CDataStream@@QAEXPBXI@Z
?WriteFrom@CDataStream@@QAEXAAV1@@Z
?_M_allocate_block@?$_String_base@DV?$allocator@D@_STL@@@_STL@@QAEXI@Z
?_M_allocate_block@?$_String_base@GV?$allocator@G@_STL@@@_STL@@QAEXI@Z
?_M_deallocate_block@?$_String_base@DV?$allocator@D@_STL@@@_STL@@QAEXXZ
?_M_deallocate_block@?$_String_base@GV?$allocator@G@_STL@@@_STL@@QAEXXZ
?_M_decr@_List_iterator_base@_STL@@QAEXXZ
?_M_incr@_List_iterator_base@_STL@@QAEXXZ
?_M_throw_length_error@?$_String_base@DV?$allocator@D@_STL@@@_STL@@QBEXXZ
?_M_throw_length_error@?$_String_base@GV?$allocator@G@_STL@@@_STL@@QBEXXZ
?_M_throw_out_of_range@?$_String_base@DV?$allocator@D@_STL@@@_STL@@QBEXXZ
?_M_throw_out_of_range@?$_String_base@GV?$allocator@G@_STL@@@_STL@@QBEXXZ
?_Ret@?$_IsPOD@D@_STL@@SI?AU__true_type@2@XZ
?_Ret@?$_IsPOD@G@_STL@@SI?AU__true_type@2@XZ
?_Ret@?$_IsPOD@PAX@_STL@@SI?AU__true_type@2@XZ
?allocate@__new_alloc@_STL@@SAPAXI@Z
?bConsoleUpdated@@3_NA DATA
?consoleLines@@3V?$list@USConsoleLine@@V?$allocator@USConsoleLine@@@_STL@@@_STL@@A DATA
?csAI@@3VCLogStream@@A DATA
?csGame@@3VCLogStream@@A DATA
?csRPG@@3VCLogStream@@A DATA
?csScript@@3VCLogStream@@A DATA
?csSystem@@3VCLogStream@@A DATA
?deallocate@__new_alloc@_STL@@SAXPAXI@Z
?endl@@YIAAVCLogStream@@AAV1@@Z
?killRecordsMap@NGlobal@@3USKillRecordsMap@1@A DATA
?max_size@?$_String_base@DV?$allocator@D@_STL@@@_STL@@QBEIXZ
?max_size@?$_String_base@GV?$allocator@G@_STL@@@_STL@@QBEIXZ
?nID@@3HA DATA
?what@__Named_exception@_STL@@UBEPBDXZ
