EXPORTS
??0?$CActionDecorator@VCImage@NUI@@@NUI@@QAE@ABUSWindowInfo@1@PAVIMission@NGame@@@Z
??0?$CActionDecorator@VCImage@NUI@@@NUI@@QAE@ABV01@@Z
??0?$CActionDecorator@VCImage@NUI@@@NUI@@QAE@XZ
??0?$CActionDecorator@VCInteractiveUnitView@NUI@@@NUI@@QAE@ABUSWindowInfo@1@PAVIMission@NGame@@@Z
??0?$CActionDecorator@VCInteractiveUnitView@NUI@@@NUI@@QAE@ABV01@@Z
??0?$CActionDecorator@VCInteractiveUnitView@NUI@@@NUI@@QAE@XZ
??0?$CActionDecorator@VCShowItemModel@NUI@@@NUI@@QAE@ABUSWindowInfo@1@PAVIMission@NGame@@@Z
??0?$CActionDecorator@VCShowItemModel@NUI@@@NUI@@QAE@ABV01@@Z
??0?$CActionDecorator@VCShowItemModel@NUI@@@NUI@@QAE@XZ
??0?$CActionDecorator@VCUnitView@NUI@@@NUI@@QAE@ABUSWindowInfo@1@PAVIMission@NGame@@@Z
??0?$CActionDecorator@VCUnitView@NUI@@@NUI@@QAE@ABV01@@Z
??0?$CActionDecorator@VCUnitView@NUI@@@NUI@@QAE@XZ
??0?$CActionDecorator@VCWindow@NUI@@@NUI@@QAE@ABUSWindowInfo@1@PAVIMission@NGame@@@Z
??0?$CActionDecorator@VCWindow@NUI@@@NUI@@QAE@ABV01@@Z
??0?$CActionDecorator@VCWindow@NUI@@@NUI@@QAE@XZ
??0?$CArray2D@D@@QAE@HH@Z
??0?$CArray2D@E@@QAE@ABV0@@Z
??0?$CArray2D@E@@QAE@HH@Z
??0?$CArray2D@G@@QAE@ABV0@@Z
??0?$CArray2D@G@@QAE@HH@Z
??0?$CArray2D@H@@QAE@HH@Z
??0?$CArray2D@K@@QAE@ABV0@@Z
??0?$CArray2D@K@@QAE@HH@Z
??0?$CArray2D@M@@QAE@ABV0@@Z
??0?$CArray2D@M@@QAE@HH@Z
??0?$CArray2D@PAUSResult@CFastRenderer@NAI@@@@QAE@HH@Z
??0?$CArray2D@U?$SMoveInfo@V?$CTPoint@E@@G@NAI@@@@QAE@HH@Z
??0?$CArray2D@USBumpPixel@NGScene@@@@QAE@ABV0@@Z
??0?$CArray2D@USBumpPixel@NGScene@@@@QAE@HH@Z
??0?$CArray2D@USDoorColliderAnalyzer@NAI@@@@QAE@HH@Z
??0?$CArray2D@USHeightNode@NAI@@@@QAE@HH@Z
??0?$CArray2D@USHilight@CSlot@NUI@@@@QAE@HH@Z
??0?$CArray2D@USPixel8888@NGfx@@@@QAE@ABV0@@Z
??0?$CArray2D@USPixel8888@NGfx@@@@QAE@HH@Z
??0?$CArray2D@USPoint@NGScene@@@@QAE@HH@Z
??0?$CArray2D@USStepSound@@@@QAE@HH@Z
??0?$CArray2D@USTile@NAI@@@@QAE@HH@Z
??0?$CArray2D@V?$CObj@V?$CPtrFuncBase@VCGrassPosition@NGScene@@@@@@@@QAE@ABV0@@Z
??0?$CArray2D@V?$CObj@V?$CPtrFuncBase@VCGrassPosition@NGScene@@@@@@@@QAE@HH@Z
??0?$CArray2D@V?$CObj@VCLayersSetTracker@NAI@@@@@@QAE@HH@Z
??0?$CArray2D@V?$CObj@VCVersioningBase@@@@@@QAE@HH@Z
??0?$CArray2D@_N@@QAE@ABV0@@Z
??0?$CArray2D@_N@@QAE@HH@Z
??0?$CArray3D@D@@QAE@XZ
??0?$CArray3D@E@@QAE@ABV0@@Z
??0?$CArray3D@E@@QAE@XZ
??0?$CArray3D@USExplVoxel@NAI@@@@QAE@ABV0@@Z
??0?$CArray3D@USExplVoxel@NAI@@@@QAE@XZ
??0?$CArray3D@V?$CObj@VCVisionCube@NRPG@@@@@@QAE@XZ
??0?$CArray3DFetcher@D@@QAE@PADAAV?$CArray3D@D@@@Z
??0?$CArray3DFetcher@E@@QAE@PAEAAV?$CArray3D@E@@@Z
??0?$CArray3DFetcher@USExplVoxel@NAI@@@@QAE@PAUSExplVoxel@NAI@@AAV?$CArray3D@USExplVoxel@NAI@@@@@Z
??0?$CArray3DFetcher@V?$CObj@VCVisionCube@NRPG@@@@@@QAE@PAV?$CObj@VCVisionCube@NRPG@@@@AAV?$CArray3D@V?$CObj@VCVisionCube@NRPG@@@@@@@Z
??0?$CArrayRasterizer@VCBumpRender@NGScene@@USBumpPixel@2@@@QAE@XZ
??0?$CArrayRasterizer@VCFogRender@NGScene@@H@@QAE@XZ
??0?$CArrayRasterizer@VCTrueColorRender@NGScene@@USPixel8888@NGfx@@@@QAE@XZ
??0?$CAudibleSet@VCUnitServer@NWorld@@@NWorld@@QAE@XZ
??0?$CBSPCollider@USColliderUserInfo@NAI@@@NCollider@@QAE@XZ
??0?$CBaseMatrixStack@$03USFBTransform@@@@QAE@XZ
??0?$CBaseMatrixStack@$03USHMatrix@@@@QAE@XZ
??0?$CBaseMatrixStack@$07USFBTransform@@@@QAE@XZ
??0?$CBasicShare@HVCAIGeometryConverter@NGScene@@U?$hash@H@_STL@@@@QAE@H_N@Z
??0?$CBasicShare@HVCAISkinObjectConverter@NGScene@@U?$hash@H@_STL@@@@QAE@H_N@Z
??0?$CBasicShare@HVCBuildInfoLoader@NBuilding@@U?$hash@H@_STL@@@@QAE@H_N@Z
??0?$CBasicShare@HVCChapterInfoLoader@@U?$hash@H@_STL@@@@QAE@H_N@Z
??0?$CBasicShare@HVCFileAIBind@NGScene@@U?$hash@H@_STL@@@@QAE@H_N@Z
??0?$CBasicShare@HVCFileAnimation@NAnimation@@U?$hash@H@_STL@@@@QAE@H_N@Z
??0?$CBasicShare@HVCFileBind@NGScene@@U?$hash@H@_STL@@@@QAE@H_N@Z
??0?$CBasicShare@HVCFileCubeTexture@NGScene@@U?$hash@H@_STL@@@@QAE@H_N@Z
??0?$CBasicShare@HVCFileFont@NGScene@@U?$hash@H@_STL@@@@QAE@H_N@Z
??0?$CBasicShare@HVCFileLocators@NAnimation@@U?$hash@H@_STL@@@@QAE@H_N@Z
??0?$CBasicShare@HVCFileSample2D@NSound@@U?$hash@H@_STL@@@@QAE@H_N@Z
??0?$CBasicShare@HVCFileSample3D@NSound@@U?$hash@H@_STL@@@@QAE@H_N@Z
??0?$CBasicShare@HVCFileSkeleton@NAnimation@@U?$hash@H@_STL@@@@QAE@H_N@Z
??0?$CBasicShare@HVCFileSkinPointsLoad@NAI@@U?$hash@H@_STL@@@@QAE@H_N@Z
??0?$CBasicShare@HVCGlobalInfoLoader@@U?$hash@H@_STL@@@@QAE@H_N@Z
??0?$CBasicShare@HVCHeadMeshLoader@NLSHead@@U?$hash@H@_STL@@@@QAE@H_N@Z
??0?$CBasicShare@HVCHeadSequenceLoader@NLSHead@@U?$hash@H@_STL@@@@QAE@H_N@Z
??0?$CBasicShare@HVCLightLoader@NGScene@@U?$hash@H@_STL@@@@QAE@H_N@Z
??0?$CBasicShare@HVCLoadGeometryInfo@NAI@@U?$hash@H@_STL@@@@QAE@H_N@Z
??0?$CBasicShare@HVCLoadTwoBSPTrees@NAI@@U?$hash@H@_STL@@@@QAE@H_N@Z
??0?$CBasicShare@HVCMETerrainLoader@@U?$hash@H@_STL@@@@QAE@H_N@Z
??0?$CBasicShare@HVCParticlesLoader@NGScene@@U?$hash@H@_STL@@@@QAE@H_N@Z
??0?$CBasicShare@HVCSWTexture@NGScene@@U?$hash@H@_STL@@@@QAE@H_N@Z
??0?$CBasicShare@HVCUnitAIInfoLoader@NAI@@U?$hash@H@_STL@@@@QAE@H_N@Z
??0?$CBasicShare@HVCUnitGroupAIInfoLoader@NAI@@U?$hash@H@_STL@@@@QAE@H_N@Z
??0?$CBasicShare@HVCWaypointLoader@NAI@@U?$hash@H@_STL@@@@QAE@H_N@Z
??0?$CBasicShare@USClipShare@NGScene@@VCSolidObjectInfoClipper@2@USClipInfoHash@2@@@QAE@H_N@Z
??0?$CBasicShare@USClipShare@NGScene@@VCWallObjectInfoClipper@2@USClipInfoHash@2@@@QAE@H_N@Z
??0?$CBasicShare@USPartKey@NGScene@@VCObjectInfoLoader@2@USPartHash@2@@@QAE@H_N@Z
??0?$CBasicShare@USPartKey@NGScene@@VCObjectInfoPiecesLoader@2@USPartHash@2@@@QAE@H_N@Z
??0?$CBasicShare@USTextureKey@NGScene@@VCFileTexture@2@USTextureKeyHash@2@@@QAE@H_N@Z
??0?$CBoolSyncDstUtil@UIVisObj@NWorld@@V?$CBoolSyncSrc@UIVisObj@NWorld@@VCIntersectionFunc@@@@@@QAE@ABV0@@Z
??0?$CBoolSyncDstUtil@UIVisObj@NWorld@@V?$CBoolSyncSrc@UIVisObj@NWorld@@VCIntersectionFunc@@@@@@QAE@PAV?$CSyncSrc@UIVisObj@NWorld@@@@PAV?$CBoolSyncSrc@UIVisObj@NWorld@@VCIntersectionFunc@@@@H@Z
??0?$CBoolSyncDstUtil@UIVisObj@NWorld@@V?$CBoolSyncSrc@UIVisObj@NWorld@@VCIntersectionFunc@@@@@@QAE@XZ
??0?$CBoolSyncDstUtil@UIVisObj@NWorld@@V?$CBoolSyncSrc@UIVisObj@NWorld@@VCUnionFunc@@@@@@QAE@ABV0@@Z
??0?$CBoolSyncDstUtil@UIVisObj@NWorld@@V?$CBoolSyncSrc@UIVisObj@NWorld@@VCUnionFunc@@@@@@QAE@PAV?$CSyncSrc@UIVisObj@NWorld@@@@PAV?$CBoolSyncSrc@UIVisObj@NWorld@@VCUnionFunc@@@@H@Z
??0?$CBoolSyncDstUtil@UIVisObj@NWorld@@V?$CBoolSyncSrc@UIVisObj@NWorld@@VCUnionFunc@@@@@@QAE@XZ
??0?$CBoolSyncSrc@UIVisObj@NWorld@@VCIntersectionFunc@@@@QAE@ABV0@@Z
??0?$CBoolSyncSrc@UIVisObj@NWorld@@VCIntersectionFunc@@@@QAE@PAV?$CSyncSrc@UIVisObj@NWorld@@@@0@Z
??0?$CBoolSyncSrc@UIVisObj@NWorld@@VCIntersectionFunc@@@@QAE@XZ
??0?$CBoolSyncSrc@UIVisObj@NWorld@@VCUnionFunc@@@@QAE@ABV0@@Z
??0?$CBoolSyncSrc@UIVisObj@NWorld@@VCUnionFunc@@@@QAE@PAV?$CSyncSrc@UIVisObj@NWorld@@@@0@Z
??0?$CBoolSyncSrc@UIVisObj@NWorld@@VCUnionFunc@@@@QAE@XZ
??0?$CBufferLock@US3DTriangle@NGfx@@@NGfx@@QAE@PAV?$CObj@VCTriList@NGfx@@@@HW4EBufferUsage@1@@Z
??0?$CBufferLock@USGeomVecFull@NGfx@@@NGfx@@QAE@PAV?$CObj@VCGeometry@NGfx@@@@HW4EBufferUsage@1@@Z
??0?$CBufferLock@USGeomVecNT1@NGfx@@@NGfx@@QAE@PAV?$CObj@VCGeometry@NGfx@@@@HW4EBufferUsage@1@@Z
??0?$CBufferLock@USGeomVecT1C1@NGfx@@@NGfx@@QAE@PAV?$CObj@VCGeometry@NGfx@@@@HW4EBufferUsage@1@@Z
??0?$CDBIterator@VCAttribute@NDb@@@@QAE@ABV?$CDBTable@VCAttribute@NDb@@@@@Z
??0?$CDBIterator@VCDBAck@NDb@@@@QAE@ABV?$CDBTable@VCDBAck@NDb@@@@@Z
??0?$CDBIterator@VCDBAutoLoadScript@NDb@@@@QAE@ABV?$CDBTable@VCDBAutoLoadScript@NDb@@@@@Z
??0?$CDBIterator@VCDBDialogSeq@NDb@@@@QAE@ABV?$CDBTable@VCDBDialogSeq@NDb@@@@@Z
??0?$CDBIterator@VCDBPerkTreeNode@NDb@@@@QAE@ABV?$CDBTable@VCDBPerkTreeNode@NDb@@@@@Z
??0?$CDBIterator@VCDBScenario@NDb@@@@QAE@ABV?$CDBTable@VCDBScenario@NDb@@@@@Z
??0?$CDBIterator@VCDBScenarioClue@NDb@@@@QAE@ABV?$CDBTable@VCDBScenarioClue@NDb@@@@@Z
??0?$CDBIterator@VCDBScenarioObjective2Clue@NDb@@@@QAE@ABV?$CDBTable@VCDBScenarioObjective2Clue@NDb@@@@@Z
??0?$CDBIterator@VCDBScenarioObjective@NDb@@@@QAE@ABV?$CDBTable@VCDBScenarioObjective@NDb@@@@@Z
??0?$CDBIterator@VCDBScenarioZone@NDb@@@@QAE@ABV?$CDBTable@VCDBScenarioZone@NDb@@@@@Z
??0?$CDBIterator@VCRPGAmmo@NDb@@@@QAE@ABV?$CDBTable@VCRPGAmmo@NDb@@@@@Z
??0?$CDBIterator@VCRPGCritical@NDb@@@@QAE@ABV?$CDBTable@VCRPGCritical@NDb@@@@@Z
??0?$CDBIterator@VCRPGPers@NDb@@@@QAE@ABV?$CDBTable@VCRPGPers@NDb@@@@@Z
??0?$CDBIterator@VCRPGStoreItem@NDb@@@@QAE@ABV?$CDBTable@VCRPGStoreItem@NDb@@@@@Z
??0?$CDBIterator@VCSide@NDb@@@@QAE@ABV?$CDBTable@VCSide@NDb@@@@@Z
??0?$CDBIterator@VCTAmbientLight@NDb@@@@QAE@ABV?$CDBTable@VCTAmbientLight@NDb@@@@@Z
??0?$CDBIterator@VCTerrainTile@NDb@@@@QAE@ABV?$CDBTable@VCTerrainTile@NDb@@@@@Z
??0?$CDBIterator@VCTypeface@NDb@@@@QAE@ABV?$CDBTable@VCTypeface@NDb@@@@@Z
??0?$CDBPtr@VCAnimation@NDb@@@@QAE@ABV0@@Z
??0?$CDBPtr@VCAnimation@NDb@@@@QAE@PAVCAnimation@NDb@@@Z
??0?$CDBPtr@VCAnimation@NDb@@@@QAE@XZ
??0?$CDBPtr@VCChapterMap@NDb@@@@QAE@XZ
??0?$CDBPtr@VCComplexHead@NDb@@@@QAE@ABV0@@Z
??0?$CDBPtr@VCComplexHead@NDb@@@@QAE@PAVCComplexHead@NDb@@@Z
??0?$CDBPtr@VCComplexHead@NDb@@@@QAE@XZ
??0?$CDBPtr@VCDBAck@NDb@@@@QAE@ABV0@@Z
??0?$CDBPtr@VCDBAck@NDb@@@@QAE@PAVCDBAck@NDb@@@Z
??0?$CDBPtr@VCDBAckInfo@NDb@@@@QAE@ABV0@@Z
??0?$CDBPtr@VCDBAckInfo@NDb@@@@QAE@PAVCDBAckInfo@NDb@@@Z
??0?$CDBPtr@VCDBAckInfo@NDb@@@@QAE@XZ
??0?$CDBPtr@VCDBAutoLoadScript@NDb@@@@QAE@PAVCDBAutoLoadScript@NDb@@@Z
??0?$CDBPtr@VCDBCamera@NDb@@@@QAE@PAVCDBCamera@NDb@@@Z
??0?$CDBPtr@VCDBCamera@NDb@@@@QAE@XZ
??0?$CDBPtr@VCDBDialog@NDb@@@@QAE@PAVCDBDialog@NDb@@@Z
??0?$CDBPtr@VCDBDialogSeq@NDb@@@@QAE@ABV0@@Z
??0?$CDBPtr@VCDBDialogSeq@NDb@@@@QAE@PAVCDBDialogSeq@NDb@@@Z
??0?$CDBPtr@VCDBDifficulty@NDb@@@@QAE@PAVCDBDifficulty@NDb@@@Z
??0?$CDBPtr@VCDBDifficulty@NDb@@@@QAE@XZ
??0?$CDBPtr@VCDBMinesConstants@NDb@@@@QAE@XZ
??0?$CDBPtr@VCDBPerk@NDb@@@@QAE@PAVCDBPerk@NDb@@@Z
??0?$CDBPtr@VCDBPerk@NDb@@@@QAE@XZ
??0?$CDBPtr@VCDBPerkTreeNode@NDb@@@@QAE@PAVCDBPerkTreeNode@NDb@@@Z
??0?$CDBPtr@VCDBScenario@NDb@@@@QAE@PAVCDBScenario@NDb@@@Z
??0?$CDBPtr@VCDBScenarioClue@NDb@@@@QAE@PAVCDBScenarioClue@NDb@@@Z
??0?$CDBPtr@VCDBScenarioClue@NDb@@@@QAE@XZ
??0?$CDBPtr@VCDBScenarioObjective2Clue@NDb@@@@QAE@PAVCDBScenarioObjective2Clue@NDb@@@Z
??0?$CDBPtr@VCDBScenarioObjective@NDb@@@@QAE@PAVCDBScenarioObjective@NDb@@@Z
??0?$CDBPtr@VCDBScenarioObjective@NDb@@@@QAE@XZ
??0?$CDBPtr@VCDBScenarioZone@NDb@@@@QAE@PAVCDBScenarioZone@NDb@@@Z
??0?$CDBPtr@VCDBScenarioZone@NDb@@@@QAE@XZ
??0?$CDBPtr@VCEffect@NDb@@@@QAE@PAVCEffect@NDb@@@Z
??0?$CDBPtr@VCEffect@NDb@@@@QAE@XZ
??0?$CDBPtr@VCGeometry@NDb@@@@QAE@PAVCGeometry@NDb@@@Z
??0?$CDBPtr@VCGlobalMap@NDb@@@@QAE@PAVCGlobalMap@NDb@@@Z
??0?$CDBPtr@VCGlobalMap@NDb@@@@QAE@XZ
??0?$CDBPtr@VCGrass@NDb@@@@QAE@ABV0@@Z
??0?$CDBPtr@VCGrass@NDb@@@@QAE@PAVCGrass@NDb@@@Z
??0?$CDBPtr@VCGrass@NDb@@@@QAE@XZ
??0?$CDBPtr@VCHead@NDb@@@@QAE@PAVCHead@NDb@@@Z
??0?$CDBPtr@VCHead@NDb@@@@QAE@XZ
??0?$CDBPtr@VCLightInstance@NDb@@@@QAE@PAVCLightInstance@NDb@@@Z
??0?$CDBPtr@VCLightInstance@NDb@@@@QAE@XZ
??0?$CDBPtr@VCMaterial@NDb@@@@QAE@ABV0@@Z
??0?$CDBPtr@VCMaterial@NDb@@@@QAE@PAVCMaterial@NDb@@@Z
??0?$CDBPtr@VCMaterial@NDb@@@@QAE@XZ
??0?$CDBPtr@VCMusic@NDb@@@@QAE@PAVCMusic@NDb@@@Z
??0?$CDBPtr@VCMusic@NDb@@@@QAE@XZ
??0?$CDBPtr@VCNationality@NDb@@@@QAE@PAVCNationality@NDb@@@Z
??0?$CDBPtr@VCNationality@NDb@@@@QAE@XZ
??0?$CDBPtr@VCObject@NDb@@@@QAE@PAVCObject@NDb@@@Z
??0?$CDBPtr@VCPanzerklein@NDb@@@@QAE@XZ
??0?$CDBPtr@VCParticleInstance@NDb@@@@QAE@PAVCParticleInstance@NDb@@@Z
??0?$CDBPtr@VCParticleInstance@NDb@@@@QAE@XZ
??0?$CDBPtr@VCRPGAmmo@NDb@@@@QAE@PAVCRPGAmmo@NDb@@@Z
??0?$CDBPtr@VCRPGArmor@NDb@@@@QAE@ABV0@@Z
??0?$CDBPtr@VCRPGArmor@NDb@@@@QAE@PAVCRPGArmor@NDb@@@Z
??0?$CDBPtr@VCRPGArmor@NDb@@@@QAE@XZ
??0?$CDBPtr@VCRPGClass@NDb@@@@QAE@XZ
??0?$CDBPtr@VCRPGClip@NDb@@@@QAE@PAVCRPGClip@NDb@@@Z
??0?$CDBPtr@VCRPGClip@NDb@@@@QAE@XZ
??0?$CDBPtr@VCRPGCritical@NDb@@@@QAE@ABV0@@Z
??0?$CDBPtr@VCRPGCritical@NDb@@@@QAE@PAVCRPGCritical@NDb@@@Z
??0?$CDBPtr@VCRPGFirstAid@NDb@@@@QAE@PAVCRPGFirstAid@NDb@@@Z
??0?$CDBPtr@VCRPGFirstAid@NDb@@@@QAE@XZ
??0?$CDBPtr@VCRPGGrenade@NDb@@@@QAE@ABV0@@Z
??0?$CDBPtr@VCRPGGrenade@NDb@@@@QAE@PAVCRPGGrenade@NDb@@@Z
??0?$CDBPtr@VCRPGGrenade@NDb@@@@QAE@XZ
??0?$CDBPtr@VCRPGItem@NDb@@@@QAE@ABV0@@Z
??0?$CDBPtr@VCRPGItem@NDb@@@@QAE@PAVCRPGItem@NDb@@@Z
??0?$CDBPtr@VCRPGItem@NDb@@@@QAE@XZ
??0?$CDBPtr@VCRPGKey@NDb@@@@QAE@PAVCRPGKey@NDb@@@Z
??0?$CDBPtr@VCRPGKey@NDb@@@@QAE@XZ
??0?$CDBPtr@VCRPGMeleeWeapon@NDb@@@@QAE@PAVCRPGMeleeWeapon@NDb@@@Z
??0?$CDBPtr@VCRPGMeleeWeapon@NDb@@@@QAE@XZ
??0?$CDBPtr@VCRPGMine@NDb@@@@QAE@PAVCRPGMine@NDb@@@Z
??0?$CDBPtr@VCRPGMine@NDb@@@@QAE@XZ
??0?$CDBPtr@VCRPGMineDetector@NDb@@@@QAE@PAVCRPGMineDetector@NDb@@@Z
??0?$CDBPtr@VCRPGMineDetector@NDb@@@@QAE@XZ
??0?$CDBPtr@VCRPGPers@NDb@@@@QAE@ABV0@@Z
??0?$CDBPtr@VCRPGPers@NDb@@@@QAE@PAVCRPGPers@NDb@@@Z
??0?$CDBPtr@VCRPGPers@NDb@@@@QAE@XZ
??0?$CDBPtr@VCRPGStoreItem@NDb@@@@QAE@ABV0@@Z
??0?$CDBPtr@VCRPGStoreItem@NDb@@@@QAE@XZ
??0?$CDBPtr@VCRPGTool@NDb@@@@QAE@PAVCRPGTool@NDb@@@Z
??0?$CDBPtr@VCRPGTool@NDb@@@@QAE@XZ
??0?$CDBPtr@VCRPGWeapon@NDb@@@@QAE@PAVCRPGWeapon@NDb@@@Z
??0?$CDBPtr@VCRPGWeapon@NDb@@@@QAE@XZ
??0?$CDBPtr@VCRndObject@NDb@@@@QAE@PAVCRndObject@NDb@@@Z
??0?$CDBPtr@VCScript@NDb@@@@QAE@ABV0@@Z
??0?$CDBPtr@VCScript@NDb@@@@QAE@PAVCScript@NDb@@@Z
??0?$CDBPtr@VCSequence@NDb@@@@QAE@ABV0@@Z
??0?$CDBPtr@VCSequence@NDb@@@@QAE@XZ
??0?$CDBPtr@VCSide@NDb@@@@QAE@PAVCSide@NDb@@@Z
??0?$CDBPtr@VCSide@NDb@@@@QAE@XZ
??0?$CDBPtr@VCSkeleton@NDb@@@@QAE@PAVCSkeleton@NDb@@@Z
??0?$CDBPtr@VCSkeleton@NDb@@@@QAE@XZ
??0?$CDBPtr@VCSound@NDb@@@@QAE@ABV0@@Z
??0?$CDBPtr@VCSound@NDb@@@@QAE@PAVCSound@NDb@@@Z
??0?$CDBPtr@VCSound@NDb@@@@QAE@XZ
??0?$CDBPtr@VCSoundInstance@NDb@@@@QAE@PAVCSoundInstance@NDb@@@Z
??0?$CDBPtr@VCTEffect@NDb@@@@QAE@PAVCTEffect@NDb@@@Z
??0?$CDBPtr@VCTemplVariant@NDb@@@@QAE@ABV0@@Z
??0?$CDBPtr@VCTemplVariant@NDb@@@@QAE@PAVCTemplVariant@NDb@@@Z
??0?$CDBPtr@VCTemplVariant@NDb@@@@QAE@XZ
??0?$CDBPtr@VCTemplate@NDb@@@@QAE@PAVCTemplate@NDb@@@Z
??0?$CDBPtr@VCTexture@NDb@@@@QAE@ABV0@@Z
??0?$CDBPtr@VCTexture@NDb@@@@QAE@PAVCTexture@NDb@@@Z
??0?$CDBPtr@VCTexture@NDb@@@@QAE@XZ
??0?$CDBPtr@VCUIContainer@NDb@@@@QAE@PAVCUIContainer@NDb@@@Z
??0?$CDBPtr@VCUIContainer@NDb@@@@QAE@XZ
??0?$CDBPtr@VCUITexture@NDb@@@@QAE@ABV0@@Z
??0?$CDBPtr@VCUITexture@NDb@@@@QAE@PAVCUITexture@NDb@@@Z
??0?$CDBPtr@VCUITexture@NDb@@@@QAE@XZ
??0?$CDBPtr@VCWaypointName@NDb@@@@QAE@XZ
??0?$CDBPtrWrapper@VCDBCamera@NDb@@@NScript@@QAE@PAVCDBCamera@NDb@@@Z
??0?$CDBPtrWrapper@VCDBCamera@NDb@@@NScript@@QAE@XZ
??0?$CDGPtr@V?$CFuncBase@H@@V?$CObj@V?$CFuncBase@H@@@@@@QAE@PAV?$CFuncBase@H@@@Z
??0?$CDGPtr@V?$CFuncBase@H@@V?$CObj@V?$CFuncBase@H@@@@@@QAE@XZ
??0?$CDGPtr@V?$CFuncBase@K@@V?$CObj@V?$CFuncBase@K@@@@@@QAE@PAV?$CFuncBase@K@@@Z
??0?$CDGPtr@V?$CFuncBase@K@@V?$CObj@V?$CFuncBase@K@@@@@@QAE@XZ
??0?$CDGPtr@V?$CFuncBase@M@@V?$CObj@V?$CFuncBase@M@@@@@@QAE@XZ
??0?$CDGPtr@V?$CFuncBase@USBound@@@@V?$CObj@V?$CFuncBase@USBound@@@@@@@@QAE@PAV?$CFuncBase@USBound@@@@@Z
??0?$CDGPtr@V?$CFuncBase@USBound@@@@V?$CObj@V?$CFuncBase@USBound@@@@@@@@QAE@XZ
??0?$CDGPtr@V?$CFuncBase@USFBTransform@@@@V?$CObj@V?$CFuncBase@USFBTransform@@@@@@@@QAE@PAV?$CFuncBase@USFBTransform@@@@@Z
??0?$CDGPtr@V?$CFuncBase@USFBTransform@@@@V?$CObj@V?$CFuncBase@USFBTransform@@@@@@@@QAE@XZ
??0?$CDGPtr@V?$CFuncBase@USHeadFrame@NLSHead@@@@V?$CObj@V?$CFuncBase@USHeadFrame@NLSHead@@@@@@@@QAE@PAV?$CFuncBase@USHeadFrame@NLSHead@@@@@Z
??0?$CDGPtr@V?$CFuncBase@USHeadFrame@NLSHead@@@@V?$CObj@V?$CFuncBase@USHeadFrame@NLSHead@@@@@@@@QAE@XZ
??0?$CDGPtr@V?$CFuncBase@USSkeletonState@NAnimation@@@@V?$CObj@V?$CFuncBase@USSkeletonState@NAnimation@@@@@@@@QAE@XZ
??0?$CDGPtr@V?$CFuncBase@USTerrainInfo@@@@V?$CObj@V?$CFuncBase@USTerrainInfo@@@@@@@@QAE@PAV?$CFuncBase@USTerrainInfo@@@@@Z
??0?$CDGPtr@V?$CFuncBase@USTerrainInfo@@@@V?$CObj@V?$CFuncBase@USTerrainInfo@@@@@@@@QAE@XZ
??0?$CDGPtr@V?$CFuncBase@USText@NGScene@@@@V?$CObj@V?$CFuncBase@USText@NGScene@@@@@@@@QAE@PAV?$CFuncBase@USText@NGScene@@@@@Z
??0?$CDGPtr@V?$CFuncBase@USText@NGScene@@@@V?$CObj@V?$CFuncBase@USText@NGScene@@@@@@@@QAE@XZ
??0?$CDGPtr@V?$CFuncBase@V?$CTPoint@H@@@@V?$CObj@V?$CFuncBase@V?$CTPoint@H@@@@@@@@QAE@XZ
??0?$CDGPtr@V?$CFuncBase@V?$CTRect@H@@@@V?$CObj@V?$CFuncBase@V?$CTRect@H@@@@@@@@QAE@PAV?$CFuncBase@V?$CTRect@H@@@@@Z
??0?$CDGPtr@V?$CFuncBase@V?$CTRect@H@@@@V?$CObj@V?$CFuncBase@V?$CTRect@H@@@@@@@@QAE@XZ
??0?$CDGPtr@V?$CFuncBase@V?$basic_string@GU?$char_traits@G@std@@V?$allocator@G@_STL@@@_STL@@@@V?$CObj@V?$CFuncBase@V?$basic_string@GU?$char_traits@G@std@@V?$allocator@G@_STL@@@_STL@@@@@@@@QAE@XZ
??0?$CDGPtr@V?$CFuncBase@V?$vector@USBonePose@NAnimation@@V?$allocator@USBonePose@NAnimation@@@_STL@@@_STL@@@@V?$CObj@V?$CFuncBase@V?$vector@USBonePose@NAnimation@@V?$allocator@USBonePose@NAnimation@@@_STL@@@_STL@@@@@@@@QAE@PAV?$CFuncBase@V?$vector@USBonePose@NAnimation@@V?$allocator@USBonePose@NAnimation@@@_STL@@@_STL@@@@@Z
??0?$CDGPtr@V?$CFuncBase@V?$vector@USBonePose@NAnimation@@V?$allocator@USBonePose@NAnimation@@@_STL@@@_STL@@@@V?$CObj@V?$CFuncBase@V?$vector@USBonePose@NAnimation@@V?$allocator@USBonePose@NAnimation@@@_STL@@@_STL@@@@@@@@QAE@XZ
??0?$CDGPtr@V?$CFuncBase@V?$vector@USCompactTransformer@NGfx@@V?$allocator@USCompactTransformer@NGfx@@@_STL@@@_STL@@@@V?$CObj@V?$CFuncBase@V?$vector@USCompactTransformer@NGfx@@V?$allocator@USCompactTransformer@NGfx@@@_STL@@@_STL@@@@@@@@QAE@PAV?$CFuncBase@V?$vector@USCompactTransformer@NGfx@@V?$allocator@USCompactTransformer@NGfx@@@_STL@@@_STL@@@@@Z
??0?$CDGPtr@V?$CFuncBase@V?$vector@USCompactTransformer@NGfx@@V?$allocator@USCompactTransformer@NGfx@@@_STL@@@_STL@@@@V?$CObj@V?$CFuncBase@V?$vector@USCompactTransformer@NGfx@@V?$allocator@USCompactTransformer@NGfx@@@_STL@@@_STL@@@@@@@@QAE@XZ
??0?$CDGPtr@V?$CFuncBase@V?$vector@USHMatrix@@V?$allocator@USHMatrix@@@_STL@@@_STL@@@@V?$CObj@V?$CFuncBase@V?$vector@USHMatrix@@V?$allocator@USHMatrix@@@_STL@@@_STL@@@@@@@@QAE@PAV?$CFuncBase@V?$vector@USHMatrix@@V?$allocator@USHMatrix@@@_STL@@@_STL@@@@@Z
??0?$CDGPtr@V?$CFuncBase@V?$vector@USHMatrix@@V?$allocator@USHMatrix@@@_STL@@@_STL@@@@V?$CObj@V?$CFuncBase@V?$vector@USHMatrix@@V?$allocator@USHMatrix@@@_STL@@@_STL@@@@@@@@QAE@XZ
??0?$CDGPtr@V?$CFuncBase@V?$vector@USTriangleList@NGfx@@V?$allocator@USTriangleList@NGfx@@@_STL@@@_STL@@@@V?$CObj@V?$CFuncBase@V?$vector@USTriangleList@NGfx@@V?$allocator@USTriangleList@NGfx@@@_STL@@@_STL@@@@@@@@QAE@ABV0@@Z
??0?$CDGPtr@V?$CFuncBase@V?$vector@USTriangleList@NGfx@@V?$allocator@USTriangleList@NGfx@@@_STL@@@_STL@@@@V?$CObj@V?$CFuncBase@V?$vector@USTriangleList@NGfx@@V?$allocator@USTriangleList@NGfx@@@_STL@@@_STL@@@@@@@@QAE@XZ
??0?$CDGPtr@V?$CFuncBase@V?$vector@V?$CPtr@VIPart@NGScene@@@@V?$allocator@V?$CPtr@VIPart@NGScene@@@@@_STL@@@_STL@@@@V?$CObj@V?$CFuncBase@V?$vector@V?$CPtr@VIPart@NGScene@@@@V?$allocator@V?$CPtr@VIPart@NGScene@@@@@_STL@@@_STL@@@@@@@@QAE@PAV?$CFuncBase@V?$vector@V?$CPtr@VIPart@NGScene@@@@V?$allocator@V?$CPtr@VIPart@NGScene@@@@@_STL@@@_STL@@@@@Z
??0?$CDGPtr@V?$CFuncBase@V?$vector@V?$CPtr@VIPart@NGScene@@@@V?$allocator@V?$CPtr@VIPart@NGScene@@@@@_STL@@@_STL@@@@V?$CObj@V?$CFuncBase@V?$vector@V?$CPtr@VIPart@NGScene@@@@V?$allocator@V?$CPtr@VIPart@NGScene@@@@@_STL@@@_STL@@@@@@@@QAE@XZ
??0?$CDGPtr@V?$CFuncBase@VCExplosionInfo@NGScene@@@@V?$CObj@V?$CFuncBase@VCExplosionInfo@NGScene@@@@@@@@QAE@XZ
??0?$CDGPtr@V?$CFuncBase@VCRectLayout@@@@V?$CObj@V?$CFuncBase@VCRectLayout@@@@@@@@QAE@PAV?$CFuncBase@VCRectLayout@@@@@Z
??0?$CDGPtr@V?$CFuncBase@VCRectLayout@@@@V?$CObj@V?$CFuncBase@VCRectLayout@@@@@@@@QAE@XZ
??0?$CDGPtr@V?$CFuncBase@VCSWRectLayout@NGScene@@@@V?$CObj@V?$CFuncBase@VCSWRectLayout@NGScene@@@@@@@@QAE@PAV?$CFuncBase@VCSWRectLayout@NGScene@@@@@Z
??0?$CDGPtr@V?$CFuncBase@VCSWRectLayout@NGScene@@@@V?$CObj@V?$CFuncBase@VCSWRectLayout@NGScene@@@@@@@@QAE@XZ
??0?$CDGPtr@V?$CFuncBase@VCVec2@@@@V?$CObj@V?$CFuncBase@VCVec2@@@@@@@@QAE@XZ
??0?$CDGPtr@V?$CFuncBase@VCVec3@@@@V?$CObj@V?$CFuncBase@VCVec3@@@@@@@@QAE@ABV0@@Z
??0?$CDGPtr@V?$CFuncBase@VCVec3@@@@V?$CObj@V?$CFuncBase@VCVec3@@@@@@@@QAE@PAV?$CFuncBase@VCVec3@@@@@Z
??0?$CDGPtr@V?$CFuncBase@VCVec3@@@@V?$CObj@V?$CFuncBase@VCVec3@@@@@@@@QAE@XZ
??0?$CDGPtr@V?$CFuncBase@VCVec4@@@@V?$CObj@V?$CFuncBase@VCVec4@@@@@@@@QAE@PAV?$CFuncBase@VCVec4@@@@@Z
??0?$CDGPtr@V?$CFuncBase@_N@@V?$CObj@V?$CFuncBase@_N@@@@@@QAE@ABV0@@Z
??0?$CDGPtr@V?$CFuncBase@_N@@V?$CObj@V?$CFuncBase@_N@@@@@@QAE@PAV?$CFuncBase@_N@@@Z
??0?$CDGPtr@V?$CPtrFuncBase@VCAnimLight@NGScene@@@@V?$CObj@V?$CPtrFuncBase@VCAnimLight@NGScene@@@@@@@@QAE@PAV?$CPtrFuncBase@VCAnimLight@NGScene@@@@@Z
??0?$CDGPtr@V?$CPtrFuncBase@VCAnimLight@NGScene@@@@V?$CObj@V?$CPtrFuncBase@VCAnimLight@NGScene@@@@@@@@QAE@XZ
??0?$CDGPtr@V?$CPtrFuncBase@VCAnimLightInfo@NGScene@@@@V?$CObj@V?$CPtrFuncBase@VCAnimLightInfo@NGScene@@@@@@@@QAE@XZ
??0?$CDGPtr@V?$CPtrFuncBase@VCBuildInfo@NBuilding@@@@V?$CObj@V?$CPtrFuncBase@VCBuildInfo@NBuilding@@@@@@@@QAE@PAV?$CPtrFuncBase@VCBuildInfo@NBuilding@@@@@Z
??0?$CDGPtr@V?$CPtrFuncBase@VCBuildInfo@NBuilding@@@@V?$CObj@V?$CPtrFuncBase@VCBuildInfo@NBuilding@@@@@@@@QAE@XZ
??0?$CDGPtr@V?$CPtrFuncBase@VCChapterInfo@@@@V?$CObj@V?$CPtrFuncBase@VCChapterInfo@@@@@@@@QAE@PAV?$CPtrFuncBase@VCChapterInfo@@@@@Z
??0?$CDGPtr@V?$CPtrFuncBase@VCChapterInfo@@@@V?$CObj@V?$CPtrFuncBase@VCChapterInfo@@@@@@@@QAE@XZ
??0?$CDGPtr@V?$CPtrFuncBase@VCCubeTexture@NGfx@@@@V?$CObj@V?$CPtrFuncBase@VCCubeTexture@NGfx@@@@@@@@QAE@PAV?$CPtrFuncBase@VCCubeTexture@NGfx@@@@@Z
??0?$CDGPtr@V?$CPtrFuncBase@VCCubeTexture@NGfx@@@@V?$CObj@V?$CPtrFuncBase@VCCubeTexture@NGfx@@@@@@@@QAE@XZ
??0?$CDGPtr@V?$CPtrFuncBase@VCFileAnimationInfo@NAnimation@@@@V?$CObj@V?$CPtrFuncBase@VCFileAnimationInfo@NAnimation@@@@@@@@QAE@XZ
??0?$CDGPtr@V?$CPtrFuncBase@VCFileBindInfo@NGScene@@@@V?$CObj@V?$CPtrFuncBase@VCFileBindInfo@NGScene@@@@@@@@QAE@XZ
??0?$CDGPtr@V?$CPtrFuncBase@VCFileSkeletonInfo@NAnimation@@@@V?$CObj@V?$CPtrFuncBase@VCFileSkeletonInfo@NAnimation@@@@@@@@QAE@XZ
??0?$CDGPtr@V?$CPtrFuncBase@VCFileSkinPoints@NAI@@@@V?$CObj@V?$CPtrFuncBase@VCFileSkinPoints@NAI@@@@@@@@QAE@PAV?$CPtrFuncBase@VCFileSkinPoints@NAI@@@@@Z
??0?$CDGPtr@V?$CPtrFuncBase@VCFileSkinPoints@NAI@@@@V?$CObj@V?$CPtrFuncBase@VCFileSkinPoints@NAI@@@@@@@@QAE@XZ
??0?$CDGPtr@V?$CPtrFuncBase@VCFontFormatInfo@@@@V?$CObj@V?$CPtrFuncBase@VCFontFormatInfo@@@@@@@@QAE@PAV?$CPtrFuncBase@VCFontFormatInfo@@@@@Z
??0?$CDGPtr@V?$CPtrFuncBase@VCFontFormatInfo@@@@V?$CObj@V?$CPtrFuncBase@VCFontFormatInfo@@@@@@@@QAE@XZ
??0?$CDGPtr@V?$CPtrFuncBase@VCGeometry@NGfx@@@@V?$CObj@V?$CPtrFuncBase@VCGeometry@NGfx@@@@@@@@QAE@XZ
??0?$CDGPtr@V?$CPtrFuncBase@VCGeometryInfo@NAI@@@@V?$CObj@V?$CPtrFuncBase@VCGeometryInfo@NAI@@@@@@@@QAE@PAV?$CPtrFuncBase@VCGeometryInfo@NAI@@@@@Z
??0?$CDGPtr@V?$CPtrFuncBase@VCGeometryInfo@NAI@@@@V?$CObj@V?$CPtrFuncBase@VCGeometryInfo@NAI@@@@@@@@QAE@XZ
??0?$CDGPtr@V?$CPtrFuncBase@VCGlobalInfo@@@@V?$CObj@V?$CPtrFuncBase@VCGlobalInfo@@@@@@@@QAE@PAV?$CPtrFuncBase@VCGlobalInfo@@@@@Z
??0?$CDGPtr@V?$CPtrFuncBase@VCGlobalInfo@@@@V?$CObj@V?$CPtrFuncBase@VCGlobalInfo@@@@@@@@QAE@XZ
??0?$CDGPtr@V?$CPtrFuncBase@VCGrassPosition@NGScene@@@@V?$CObj@V?$CPtrFuncBase@VCGrassPosition@NGScene@@@@@@@@QAE@PAV?$CPtrFuncBase@VCGrassPosition@NGScene@@@@@Z
??0?$CDGPtr@V?$CPtrFuncBase@VCGrassPosition@NGScene@@@@V?$CObj@V?$CPtrFuncBase@VCGrassPosition@NGScene@@@@@@@@QAE@XZ
??0?$CDGPtr@V?$CPtrFuncBase@VCHeadMeshInfo@NLSHead@@@@V?$CObj@V?$CPtrFuncBase@VCHeadMeshInfo@NLSHead@@@@@@@@QAE@PAV?$CPtrFuncBase@VCHeadMeshInfo@NLSHead@@@@@Z
??0?$CDGPtr@V?$CPtrFuncBase@VCHeadMeshInfo@NLSHead@@@@V?$CObj@V?$CPtrFuncBase@VCHeadMeshInfo@NLSHead@@@@@@@@QAE@XZ
??0?$CDGPtr@V?$CPtrFuncBase@VCHeadSequenceInfo@NLSHead@@@@V?$CObj@V?$CPtrFuncBase@VCHeadSequenceInfo@NLSHead@@@@@@@@QAE@XZ
??0?$CDGPtr@V?$CPtrFuncBase@VCMETerrainInfo@@@@V?$CObj@V?$CPtrFuncBase@VCMETerrainInfo@@@@@@@@QAE@PAV?$CPtrFuncBase@VCMETerrainInfo@@@@@Z
??0?$CDGPtr@V?$CPtrFuncBase@VCObjectInfo@NGScene@@@@V?$CObj@V?$CPtrFuncBase@VCObjectInfo@NGScene@@@@@@@@QAE@PAV?$CPtrFuncBase@VCObjectInfo@NGScene@@@@@Z
??0?$CDGPtr@V?$CPtrFuncBase@VCObjectInfo@NGScene@@@@V?$CObj@V?$CPtrFuncBase@VCObjectInfo@NGScene@@@@@@@@QAE@XZ
??0?$CDGPtr@V?$CPtrFuncBase@VCObjectInfoPieces@NGScene@@@@V?$CObj@V?$CPtrFuncBase@VCObjectInfoPieces@NGScene@@@@@@@@QAE@XZ
??0?$CDGPtr@V?$CPtrFuncBase@VCParticleEffect@NGScene@@@@V?$CObj@V?$CPtrFuncBase@VCParticleEffect@NGScene@@@@@@@@QAE@PAV?$CPtrFuncBase@VCParticleEffect@NGScene@@@@@Z
??0?$CDGPtr@V?$CPtrFuncBase@VCParticleEffect@NGScene@@@@V?$CObj@V?$CPtrFuncBase@VCParticleEffect@NGScene@@@@@@@@QAE@XZ
??0?$CDGPtr@V?$CPtrFuncBase@VCParticlesInfo@NGScene@@@@V?$CObj@V?$CPtrFuncBase@VCParticlesInfo@NGScene@@@@@@@@QAE@XZ
??0?$CDGPtr@V?$CPtrFuncBase@VCParticlesInfo@NGScene@@@@V?$CPtr@V?$CPtrFuncBase@VCParticlesInfo@NGScene@@@@@@@@QAE@XZ
??0?$CDGPtr@V?$CPtrFuncBase@VCSWTextureData@NGScene@@@@V?$CObj@V?$CPtrFuncBase@VCSWTextureData@NGScene@@@@@@@@QAE@PAV?$CPtrFuncBase@VCSWTextureData@NGScene@@@@@Z
??0?$CDGPtr@V?$CPtrFuncBase@VCSWTextureData@NGScene@@@@V?$CObj@V?$CPtrFuncBase@VCSWTextureData@NGScene@@@@@@@@QAE@XZ
??0?$CDGPtr@V?$CPtrFuncBase@VCSample2D@NFMSound@@@@V?$CObj@V?$CPtrFuncBase@VCSample2D@NFMSound@@@@@@@@QAE@PAV?$CPtrFuncBase@VCSample2D@NFMSound@@@@@Z
??0?$CDGPtr@V?$CPtrFuncBase@VCSample3D@NFMSound@@@@V?$CObj@V?$CPtrFuncBase@VCSample3D@NFMSound@@@@@@@@QAE@PAV?$CPtrFuncBase@VCSample3D@NFMSound@@@@@Z
??0?$CDGPtr@V?$CPtrFuncBase@VCSample3D@NFMSound@@@@V?$CObj@V?$CPtrFuncBase@VCSample3D@NFMSound@@@@@@@@QAE@XZ
??0?$CDGPtr@V?$CPtrFuncBase@VCTerrainPart@@@@V?$CObj@V?$CPtrFuncBase@VCTerrainPart@@@@@@@@QAE@PAV?$CPtrFuncBase@VCTerrainPart@@@@@Z
??0?$CDGPtr@V?$CPtrFuncBase@VCTerrainPart@@@@V?$CObj@V?$CPtrFuncBase@VCTerrainPart@@@@@@@@QAE@XZ
??0?$CDGPtr@V?$CPtrFuncBase@VCTexture@NGfx@@@@V?$CObj@V?$CPtrFuncBase@VCTexture@NGfx@@@@@@@@QAE@PAV?$CPtrFuncBase@VCTexture@NGfx@@@@@Z
??0?$CDGPtr@V?$CPtrFuncBase@VCTexture@NGfx@@@@V?$CObj@V?$CPtrFuncBase@VCTexture@NGfx@@@@@@@@QAE@XZ
??0?$CDGPtr@V?$CPtrFuncBase@VCTwoBSPTrees@NAI@@@@V?$CObj@V?$CPtrFuncBase@VCTwoBSPTrees@NAI@@@@@@@@QAE@PAV?$CPtrFuncBase@VCTwoBSPTrees@NAI@@@@@Z
??0?$CDGPtr@V?$CPtrFuncBase@VCUnitAIInfo@NAI@@@@V?$CObj@V?$CPtrFuncBase@VCUnitAIInfo@NAI@@@@@@@@QAE@PAV?$CPtrFuncBase@VCUnitAIInfo@NAI@@@@@Z
??0?$CDGPtr@V?$CPtrFuncBase@VCWaypoint@NAI@@@@V?$CObj@V?$CPtrFuncBase@VCWaypoint@NAI@@@@@@@@QAE@PAV?$CPtrFuncBase@VCWaypoint@NAI@@@@@Z
??0?$CDGPtr@VCBilinearTexture@NGScene@@V?$CObj@VCBilinearTexture@NGScene@@@@@@QAE@PAVCBilinearTexture@NGScene@@@Z
??0?$CDGPtr@VCBuildInfoLoader@NBuilding@@V?$CObj@VCBuildInfoLoader@NBuilding@@@@@@QAE@PAVCBuildInfoLoader@NBuilding@@@Z
??0?$CDGPtr@VCBuilder@NTerrain@@V?$CObj@VCBuilder@NTerrain@@@@@@QAE@PAVCBuilder@NTerrain@@@Z
??0?$CDGPtr@VCBuildingGrid@NBuilding@@V?$CObj@VCBuildingGrid@NBuilding@@@@@@QAE@PAVCBuildingGrid@NBuilding@@@Z
??0?$CDGPtr@VCBuildingGrid@NBuilding@@V?$CObj@VCBuildingGrid@NBuilding@@@@@@QAE@XZ
??0?$CDGPtr@VCCTPoint@NGScene@@V?$CObj@VCCTPoint@NGScene@@@@@@QAE@XZ
??0?$CDGPtr@VCCTime@@V?$CObj@VCCTime@@@@@@QAE@XZ
??0?$CDGPtr@VCCVec2@NGScene@@V?$CObj@VCCVec2@NGScene@@@@@@QAE@XZ
??0?$CDGPtr@VCFakeParticleLMTexture@NGScene@@V?$CObj@VCFakeParticleLMTexture@NGScene@@@@@@QAE@XZ
??0?$CDGPtr@VCFileAIBind@NGScene@@V?$CObj@VCFileAIBind@NGScene@@@@@@QAE@PAVCFileAIBind@NGScene@@@Z
??0?$CDGPtr@VCFileAnimation@NAnimation@@V?$CObj@VCFileAnimation@NAnimation@@@@@@QAE@PAVCFileAnimation@NAnimation@@@Z
??0?$CDGPtr@VCFileBind@NGScene@@V?$CObj@VCFileBind@NGScene@@@@@@QAE@PAVCFileBind@NGScene@@@Z
??0?$CDGPtr@VCFileSkeleton@NAnimation@@V?$CObj@VCFileSkeleton@NAnimation@@@@@@QAE@PAVCFileSkeleton@NAnimation@@@Z
??0?$CDGPtr@VCFileSkinPointsLoad@NAI@@V?$CObj@VCFileSkinPointsLoad@NAI@@@@@@QAE@PAVCFileSkinPointsLoad@NAI@@@Z
??0?$CDGPtr@VCHeightMapBlock@NWorld@@V?$CObj@VCHeightMapBlock@NWorld@@@@@@QAE@XZ
??0?$CDGPtr@VCLoadGeometryInfo@NAI@@V?$CObj@VCLoadGeometryInfo@NAI@@@@@@QAE@PAVCLoadGeometryInfo@NAI@@@Z
??0?$CDGPtr@VCObjectInfoLoader@NGScene@@V?$CObj@VCObjectInfoLoader@NGScene@@@@@@QAE@PAVCObjectInfoLoader@NGScene@@@Z
??0?$CDGPtr@VCPerMaterialCombiner@NGScene@@V?$CObj@VCPerMaterialCombiner@NGScene@@@@@@QAE@PAVCPerMaterialCombiner@NGScene@@@Z
??0?$CDGPtr@VCPerMaterialCombiner@NGScene@@V?$CObj@VCPerMaterialCombiner@NGScene@@@@@@QAE@XZ
??0?$CDGPtr@VCScreenshotTexture@NGScene@@V?$CObj@VCScreenshotTexture@NGScene@@@@@@QAE@XZ
??0?$CDGPtr@VCSkeletonAnimator@NAnimation@@V?$CObj@VCSkeletonAnimator@NAnimation@@@@@@QAE@PAVCSkeletonAnimator@NAnimation@@@Z
??0?$CDGPtr@VCSkeletonAnimator@NAnimation@@V?$CObj@VCSkeletonAnimator@NAnimation@@@@@@QAE@XZ
??0?$CDGPtr@VCSolidAndWallMap@NBuilding@@V?$CObj@VCSolidAndWallMap@NBuilding@@@@@@QAE@PAVCSolidAndWallMap@NBuilding@@@Z
??0?$CDGPtr@VCVBCombiner@NGScene@@V?$CObj@VCVBCombiner@NGScene@@@@@@QAE@XZ
??0?$CDGPtr@VCVersioningBase@@V?$CObj@VCVersioningBase@@@@@@QAE@ABV0@@Z
??0?$CDGPtr@VCVersioningBase@@V?$CObj@VCVersioningBase@@@@@@QAE@PAVCVersioningBase@@@Z
??0?$CDGPtr@VCVersioningBase@@V?$CObj@VCVersioningBase@@@@@@QAE@XZ
??0?$CDGPtr@VIVBCombiner@NGScene@@V?$CObj@VIVBCombiner@NGScene@@@@@@QAE@PAVIVBCombiner@NGScene@@@Z
??0?$CDGPtr@VIVBCombiner@NGScene@@V?$CObj@VIVBCombiner@NGScene@@@@@@QAE@XZ
??0?$CDynamicTrisBase@VCDynamicTrisIndices16@NGfx@@V?$CIBFast@$0GF@@2@@NGfx@@QAE@XZ
??0?$CDynamicTrisBase@VCDynamicTrisIndices32@NGfx@@V?$CIBFast@$0GG@@2@@NGfx@@QAE@XZ
??0?$CEventRegister@VCAckLongBurst@NWorld@@VCEventOnUnitLongBurst@2@@NGlobal@@QAE@PAVCAckLongBurst@NWorld@@P823@AEXABVCEventOnUnitLongBurst@3@@Z@Z
??0?$CEventRegister@VCAckUnhide@NWorld@@VCEventOnUnitUnhide@2@@NGlobal@@QAE@PAVCAckUnhide@NWorld@@P823@AEXABVCEventOnUnitLongBurst@3@@Z@Z
??0?$CEventRegister@VCDecal@NWorld@@VCShowBloodUpdated@2@@NGlobal@@QAE@PAVCDecal@NWorld@@P823@AEXABVCShowBloodUpdated@3@@Z@Z
??0?$CEventRegister@VCUnitServer@NWorld@@VCEventOnNewPlayerTurnOrTime@2@@NGlobal@@QAE@PAVCUnitServer@NWorld@@P823@AEXABVCEventOnNewPlayerTurnOrTime@3@@Z@Z
??0?$CEventRegister@VCWorld@NWorld@@VCEventOnNewPlayerFastTurnOrTime@2@@NGlobal@@QAE@PAVCWorld@NWorld@@P823@AEXABVCEventOnNewPlayerFastTurnOrTime@3@@Z@Z
??0?$CFBMatrixStack@$03@@QAE@XZ
??0?$CFBMatrixStack@$07@@QAE@XZ
??0?$CFuncBase@H@@QAE@ABH@Z
??0?$CFuncBase@H@@QAE@XZ
??0?$CFuncBase@K@@QAE@ABK@Z
??0?$CFuncBase@K@@QAE@XZ
??0?$CFuncBase@M@@QAE@XZ
??0?$CFuncBase@USBound@@@@QAE@XZ
??0?$CFuncBase@USFBTransform@@@@QAE@ABUSFBTransform@@@Z
??0?$CFuncBase@USFBTransform@@@@QAE@XZ
??0?$CFuncBase@USHMatrix@@@@QAE@XZ
??0?$CFuncBase@USHeadFrame@NLSHead@@@@QAE@ABV0@@Z
??0?$CFuncBase@USHeadFrame@NLSHead@@@@QAE@XZ
??0?$CFuncBase@USSkeletonState@NAnimation@@@@QAE@ABV0@@Z
??0?$CFuncBase@USSkeletonState@NAnimation@@@@QAE@XZ
??0?$CFuncBase@USTerrainGeometry@NTerrain@@@@QAE@ABV0@@Z
??0?$CFuncBase@USTerrainGeometry@NTerrain@@@@QAE@XZ
??0?$CFuncBase@USTerrainInfo@@@@QAE@ABV0@@Z
??0?$CFuncBase@USTerrainInfo@@@@QAE@XZ
??0?$CFuncBase@USText@NGScene@@@@QAE@ABV0@@Z
??0?$CFuncBase@USText@NGScene@@@@QAE@XZ
??0?$CFuncBase@V?$CTPoint@H@@@@QAE@XZ
??0?$CFuncBase@V?$CTRect@H@@@@QAE@XZ
??0?$CFuncBase@V?$basic_string@GU?$char_traits@G@std@@V?$allocator@G@_STL@@@_STL@@@@QAE@ABV0@@Z
??0?$CFuncBase@V?$basic_string@GU?$char_traits@G@std@@V?$allocator@G@_STL@@@_STL@@@@QAE@XZ
??0?$CFuncBase@V?$vector@USBonePose@NAnimation@@V?$allocator@USBonePose@NAnimation@@@_STL@@@_STL@@@@QAE@ABV0@@Z
??0?$CFuncBase@V?$vector@USBonePose@NAnimation@@V?$allocator@USBonePose@NAnimation@@@_STL@@@_STL@@@@QAE@XZ
??0?$CFuncBase@V?$vector@USCompactTransformer@NGfx@@V?$allocator@USCompactTransformer@NGfx@@@_STL@@@_STL@@@@QAE@XZ
??0?$CFuncBase@V?$vector@USHMatrix@@V?$allocator@USHMatrix@@@_STL@@@_STL@@@@QAE@ABV0@@Z
??0?$CFuncBase@V?$vector@USHMatrix@@V?$allocator@USHMatrix@@@_STL@@@_STL@@@@QAE@XZ
??0?$CFuncBase@V?$vector@USTriangleList@NGfx@@V?$allocator@USTriangleList@NGfx@@@_STL@@@_STL@@@@QAE@ABV0@@Z
??0?$CFuncBase@V?$vector@USTriangleList@NGfx@@V?$allocator@USTriangleList@NGfx@@@_STL@@@_STL@@@@QAE@XZ
??0?$CFuncBase@V?$vector@V?$CPtr@VIPart@NGScene@@@@V?$allocator@V?$CPtr@VIPart@NGScene@@@@@_STL@@@_STL@@@@QAE@XZ
??0?$CFuncBase@VCRectLayout@@@@QAE@ABV0@@Z
??0?$CFuncBase@VCRectLayout@@@@QAE@XZ
??0?$CFuncBase@VCSWRectLayout@NGScene@@@@QAE@ABV0@@Z
??0?$CFuncBase@VCSWRectLayout@NGScene@@@@QAE@ABVCSWRectLayout@NGScene@@@Z
??0?$CFuncBase@VCSWRectLayout@NGScene@@@@QAE@XZ
??0?$CFuncBase@VCVec2@@@@QAE@ABVCVec2@@@Z
??0?$CFuncBase@VCVec2@@@@QAE@XZ
??0?$CFuncBase@VCVec3@@@@QAE@ABVCVec3@@@Z
??0?$CFuncBase@VCVec3@@@@QAE@XZ
??0?$CFuncBase@VCVec4@@@@QAE@ABVCVec4@@@Z
??0?$CFuncBase@VCVec4@@@@QAE@XZ
??0?$CFuncBase@_N@@QAE@XZ
??0?$CGatherElementBase@VCShortPtrAllocator@NCache@@VCFibElement@2@VCUserGeometry@NGfx@@@NCache@@QAE@XZ
??0?$CGatherElementBase@VCShortPtrAllocator@NCache@@VCQuadTreeElement@2@VCTexture@NGfx@@@NCache@@QAE@ABV01@@Z
??0?$CGatherElementBase@VCShortPtrAllocator@NCache@@VCQuadTreeElement@2@VCTexture@NGfx@@@NCache@@QAE@XZ
??0?$CGatheringCache@VCShortPtrAllocator@NCache@@VCFibElement@2@VCUserGeometry@NGfx@@@NCache@@QAE@I@Z
??0?$CGatheringCache@VCShortPtrAllocator@NCache@@VCQuadTreeElement@2@VCTexture@NGfx@@@NCache@@QAE@I@Z
??0?$CHoldedPtrFuncBase@VCAnimLightInfo@NGScene@@@@QAE@XZ
??0?$CHoldedPtrFuncBase@VCBuildInfo@NBuilding@@@@QAE@XZ
??0?$CHoldedPtrFuncBase@VCChapterInfo@@@@QAE@XZ
??0?$CHoldedPtrFuncBase@VCCubeTexture@NGfx@@@@QAE@XZ
??0?$CHoldedPtrFuncBase@VCFileAnimationInfo@NAnimation@@@@QAE@XZ
??0?$CHoldedPtrFuncBase@VCFileBindInfo@NGScene@@@@QAE@XZ
??0?$CHoldedPtrFuncBase@VCFileSkeletonInfo@NAnimation@@@@QAE@XZ
??0?$CHoldedPtrFuncBase@VCFileSkinPoints@NAI@@@@QAE@XZ
??0?$CHoldedPtrFuncBase@VCFontFormatInfo@@@@QAE@XZ
??0?$CHoldedPtrFuncBase@VCGeometryInfo@NAI@@@@QAE@XZ
??0?$CHoldedPtrFuncBase@VCGlobalInfo@@@@QAE@XZ
??0?$CHoldedPtrFuncBase@VCHeadMeshInfo@NLSHead@@@@QAE@XZ
??0?$CHoldedPtrFuncBase@VCHeadSequenceInfo@NLSHead@@@@QAE@XZ
??0?$CHoldedPtrFuncBase@VCMETerrainInfo@@@@QAE@XZ
??0?$CHoldedPtrFuncBase@VCObjectInfo@NGScene@@@@QAE@XZ
??0?$CHoldedPtrFuncBase@VCObjectInfoPieces@NGScene@@@@QAE@XZ
??0?$CHoldedPtrFuncBase@VCParticlesInfo@NGScene@@@@QAE@XZ
??0?$CHoldedPtrFuncBase@VCSWTextureData@NGScene@@@@QAE@XZ
??0?$CHoldedPtrFuncBase@VCSample2D@NFMSound@@@@QAE@XZ
??0?$CHoldedPtrFuncBase@VCSample3D@NFMSound@@@@QAE@XZ
??0?$CHoldedPtrFuncBase@VCTexture@NGfx@@@@QAE@XZ
??0?$CHoldedPtrFuncBase@VCTwoBSPTrees@NAI@@@@QAE@XZ
??0?$CHoldedPtrFuncBase@VCUnitAIInfo@NAI@@@@QAE@XZ
??0?$CHoldedPtrFuncBase@VCWaypoint@NAI@@@@QAE@XZ
??0?$CIBFast@$0GF@@NGfx@@QAE@HW4ETrueBufferUsage@1@@Z
??0?$CIBFast@$0GF@@NGfx@@QAE@XZ
??0?$CIBFast@$0GG@@NGfx@@QAE@HW4ETrueBufferUsage@1@@Z
??0?$CIBFast@$0GG@@NGfx@@QAE@XZ
??0?$CItemContainer@VCAmmoItem@NRPG@@@NRPG@@QAE@ABV01@@Z
??0?$CItemContainer@VCAmmoItem@NRPG@@@NRPG@@QAE@PAVCRPGItem@NDb@@@Z
??0?$CItemContainer@VCAmmoItem@NRPG@@@NRPG@@QAE@XZ
??0?$CItemContainer@VCPotionItem@NRPG@@@NRPG@@QAE@ABV01@@Z
??0?$CItemContainer@VCPotionItem@NRPG@@@NRPG@@QAE@XZ
??0?$CLRUBuffersSet@VCCubeTB@NGfx@@VCCubeTexture@2@@NGfx@@QAE@ABV01@@Z
??0?$CLRUBuffersSet@VCCubeTB@NGfx@@VCCubeTexture@2@@NGfx@@QAE@XZ
??0?$CLRUBuffersSet@VCTB@NGfx@@VCTexture@2@@NGfx@@QAE@ABV01@@Z
??0?$CLRUBuffersSet@VCTB@NGfx@@VCTexture@2@@NGfx@@QAE@XZ
??0?$CLSPtr@UIAnimator@LifeStudioHeadAPI@@@NLSHead@@QAE@PAUIAnimator@LifeStudioHeadAPI@@@Z
??0?$CLSPtr@UIMMTree@LifeStudioHeadAPI@@@NLSHead@@QAE@PAUIMMTree@LifeStudioHeadAPI@@@Z
??0?$CLSPtr@UISequencer@LifeStudioHeadAPI@@@NLSHead@@QAE@PAUISequencer@LifeStudioHeadAPI@@@Z
??0?$CLazyResourceLoader@HVCAnimLightInfo@NGScene@@@NGScene@@QAE@ABV01@@Z
??0?$CLazyResourceLoader@HVCAnimLightInfo@NGScene@@@NGScene@@QAE@XZ
??0?$CLazyResourceLoader@HVCParticlesInfo@NGScene@@@NGScene@@QAE@ABV01@@Z
??0?$CLazyResourceLoader@HVCParticlesInfo@NGScene@@@NGScene@@QAE@XZ
??0?$CLazyResourceLoader@HVCSample3D@NFMSound@@@NGScene@@QAE@ABV01@@Z
??0?$CLazyResourceLoader@HVCSample3D@NFMSound@@@NGScene@@QAE@XZ
??0?$CLazyResourceLoader@USPartKey@NGScene@@VCObjectInfo@2@@NGScene@@QAE@ABV01@@Z
??0?$CLazyResourceLoader@USPartKey@NGScene@@VCObjectInfo@2@@NGScene@@QAE@XZ
??0?$CLazyResourceLoader@USPartKey@NGScene@@VCObjectInfoPieces@2@@NGScene@@QAE@ABV01@@Z
??0?$CLazyResourceLoader@USPartKey@NGScene@@VCObjectInfoPieces@2@@NGScene@@QAE@XZ
??0?$CLinearBuffer@VCVB@NGfx@@VCUserGeometry@2@@NGfx@@QAE@HHHW4ETrueBufferUsage@1@@Z
??0?$CLinearBuffer@VCVB@NGfx@@VCUserGeometry@2@@NGfx@@QAE@XZ
??0?$CLinearBufferElement@V?$CLinearBuffer@VCVB@NGfx@@VCUserGeometry@2@@NGfx@@VCVB@2@VCUserGeometry@2@@NGfx@@QAE@PAV?$CLinearBuffer@VCVB@NGfx@@VCUserGeometry@2@@1@@Z
??0?$CMObj@VCCubeTexture@NGfx@@@@QAE@ABV0@@Z
??0?$CMObj@VCCubeTexture@NGfx@@@@QAE@XZ
??0?$CMObj@VCDecal@NWorld@@@@QAE@PAVCDecal@NWorld@@@Z
??0?$CMObj@VCMine@NWorld@@@@QAE@PAVCMine@NWorld@@@Z
??0?$CMObj@VCMouseCaptureHandler@NUI@@@@QAE@XZ
??0?$CMObj@VCObjectBase@@@@QAE@ABV0@@Z
??0?$CMObj@VCObjectBase@@@@QAE@PAVCObjectBase@@@Z
??0?$CMObj@VCObjectBase@@@@QAE@XZ
??0?$CMObj@VCTexture@NGfx@@@@QAE@ABV0@@Z
??0?$CMObj@VCTexture@NGfx@@@@QAE@XZ
??0?$CMObj@VCUnitServer@NWorld@@@@QAE@ABV0@@Z
??0?$CMObj@VCUnitServer@NWorld@@@@QAE@PAVCUnitServer@NWorld@@@Z
??0?$CMObj@VCUserGeometry@NGfx@@@@QAE@ABV0@@Z
??0?$CMObj@VCUserGeometry@NGfx@@@@QAE@XZ
??0?$CMObj@VCWindow@NUI@@@@QAE@ABV0@@Z
??0?$CMObj@VCWindow@NUI@@@@QAE@PAVCWindow@NUI@@@Z
??0?$CMatrixStack43@$03@@QAE@XZ
??0?$CNodeMap@USGridNode@NBuilding@@@NBuilding@@QAE@XZ
??0?$CNodeMap@USSolidElement@NBuilding@@@NBuilding@@QAE@ABV01@@Z
??0?$CNodeMap@USSolidElement@NBuilding@@@NBuilding@@QAE@XZ
??0?$COcTreeNode@VCVolumeNode@NAI@@$03@@QAE@ABV0@@Z
??0?$COcTreeNode@VCVolumeNode@NAI@@$03@@QAE@XZ
??0?$COcTreeNode@VCVolumeNode@NGScene@@$07@@QAE@XZ
??0?$COrdinarySyncDst@UIVisObj@NWorld@@VCAIMap@NAI@@@@QAE@ABV0@@Z
??0?$COrdinarySyncDst@UIVisObj@NWorld@@VCAIMap@NAI@@@@QAE@PAV?$CSyncSrc@UIVisObj@NWorld@@@@@Z
??0?$COrdinarySyncDst@UIVisObj@NWorld@@VCRenderSound@NRender@@@@QAE@ABV0@@Z
??0?$COrdinarySyncDst@UIVisObj@NWorld@@VCRenderSound@NRender@@@@QAE@PAV?$CSyncSrc@UIVisObj@NWorld@@@@@Z
??0?$COrdinarySyncDst@UIVisObj@NWorld@@VCSetRender@NRender@@@@QAE@ABV0@@Z
??0?$COrdinarySyncDst@UIVisObj@NWorld@@VCSetRender@NRender@@@@QAE@PAV?$CSyncSrc@UIVisObj@NWorld@@@@@Z
??0?$CParticlesGeometry@USGeomVecFull@NGfx@@@NGScene@@QAE@XZ
??0?$CParticlesGeometry@USGeomVecT1C1@NGfx@@@NGScene@@QAE@XZ
??0?$CPlayerBase@VCUnitServer@NWorld@@VCCommander@2@@NWorld@@QAE@ABV01@@Z
??0?$CPlayerBase@VCUnitServer@NWorld@@VCCommander@2@@NWorld@@QAE@XZ
??0?$CPlayerBaseVision@VCUnitServer@NWorld@@@NWorld@@QAE@ABV01@@Z
??0?$CPlayerBaseVision@VCUnitServer@NWorld@@@NWorld@@QAE@XZ
??0?$CPool@USDynamicAmbientInfo@NGScene@@$0IA@@@QAE@XZ
??0?$CPool@USRenderFragmentInfo@NGScene@@$0IA@@@QAE@XZ
??0?$CPool@USRenderGeometryInfo@NGScene@@$0IA@@@QAE@XZ
??0?$CPool@USRenderStaticInfo@NGScene@@$0IA@@@QAE@XZ
??0?$CPool@USResult@CFastRenderer@NAI@@$0BAAA@@@QAE@XZ
??0?$CRBase@UIDirect3DVertexBuffer9@@@NGfx@@QAE@H@Z
??0?$CRBase@UIDirect3DVertexBuffer9@@@NGfx@@QAE@XZ
??0?$CResourceLoader@HVCAnimLightInfo@NGScene@@@NGScene@@QAE@XZ
??0?$CResourceLoader@HVCBuildInfo@NBuilding@@@NGScene@@QAE@XZ
??0?$CResourceLoader@HVCChapterInfo@@@NGScene@@QAE@XZ
??0?$CResourceLoader@HVCCubeTexture@NGfx@@@NGScene@@QAE@XZ
??0?$CResourceLoader@HVCFileAnimationInfo@NAnimation@@@NGScene@@QAE@XZ
??0?$CResourceLoader@HVCFileBindInfo@NGScene@@@NGScene@@QAE@XZ
??0?$CResourceLoader@HVCFileSkeletonInfo@NAnimation@@@NGScene@@QAE@XZ
??0?$CResourceLoader@HVCFileSkinPoints@NAI@@@NGScene@@QAE@XZ
??0?$CResourceLoader@HVCFontFormatInfo@@@NGScene@@QAE@XZ
??0?$CResourceLoader@HVCGeometryInfo@NAI@@@NGScene@@QAE@XZ
??0?$CResourceLoader@HVCGlobalInfo@@@NGScene@@QAE@XZ
??0?$CResourceLoader@HVCHeadMeshInfo@NLSHead@@@NGScene@@QAE@XZ
??0?$CResourceLoader@HVCHeadSequenceInfo@NLSHead@@@NGScene@@QAE@XZ
??0?$CResourceLoader@HVCMETerrainInfo@@@NGScene@@QAE@XZ
??0?$CResourceLoader@HVCParticlesInfo@NGScene@@@NGScene@@QAE@XZ
??0?$CResourceLoader@HVCSWTextureData@NGScene@@@NGScene@@QAE@XZ
??0?$CResourceLoader@HVCSample2D@NFMSound@@@NGScene@@QAE@XZ
??0?$CResourceLoader@HVCSample3D@NFMSound@@@NGScene@@QAE@XZ
??0?$CResourceLoader@HVCTwoBSPTrees@NAI@@@NGScene@@QAE@XZ
??0?$CResourceLoader@HVCUnitAIInfo@NAI@@@NGScene@@QAE@XZ
??0?$CResourceLoader@HVCWaypoint@NAI@@@NGScene@@QAE@XZ
??0?$CResourceLoader@USPartKey@NGScene@@VCObjectInfo@2@@NGScene@@QAE@XZ
??0?$CResourceLoader@USPartKey@NGScene@@VCObjectInfoPieces@2@@NGScene@@QAE@XZ
??0?$CResourceLoader@USTextureKey@NGScene@@VCTexture@NGfx@@@NGScene@@QAE@XZ
??0?$CResourcePrecache@VCBuildInfoLoader@NBuilding@@@NGScene@@QAE@PAVCBuildInfoLoader@NBuilding@@@Z
??0?$CResourcePrecache@VCFileAIBind@NGScene@@@NGScene@@QAE@PAVCFileAIBind@1@@Z
??0?$CResourcePrecache@VCFileAnimation@NAnimation@@@NGScene@@QAE@PAVCFileAnimation@NAnimation@@@Z
??0?$CResourcePrecache@VCFileBind@NGScene@@@NGScene@@QAE@PAVCFileBind@1@@Z
??0?$CResourcePrecache@VCFileSkeleton@NAnimation@@@NGScene@@QAE@PAVCFileSkeleton@NAnimation@@@Z
??0?$CResourcePrecache@VCFileSkinPointsLoad@NAI@@@NGScene@@QAE@PAVCFileSkinPointsLoad@NAI@@@Z
??0?$CResourcePrecache@VCLoadGeometryInfo@NAI@@@NGScene@@QAE@PAVCLoadGeometryInfo@NAI@@@Z
??0?$CResourcePrecache@VCObjectInfoLoader@NGScene@@@NGScene@@QAE@PAVCObjectInfoLoader@1@@Z
??0?$CRing@USEdge@CPolyClipper@@@@QAE@XZ
??0?$CRing@USLink@CPolyClipper@@@@QAE@XZ
??0?$CScenarioFlowChartItemsList@VCScenarioClue@NScenario@@@NScenario@@QAE@ABV01@@Z
??0?$CScenarioFlowChartItemsList@VCScenarioClue@NScenario@@@NScenario@@QAE@H@Z
??0?$CScenarioFlowChartItemsList@VCScenarioZone@NScenario@@@NScenario@@QAE@ABV01@@Z
??0?$CScenarioFlowChartItemsList@VCScenarioZone@NScenario@@@NScenario@@QAE@H@Z
??0?$CScrollWindow@VCListView@NUI@@@NUI@@QAE@ABUSWindowInfo@1@@Z
??0?$CScrollWindow@VCListView@NUI@@@NUI@@QAE@ABV01@@Z
??0?$CScrollWindow@VCListView@NUI@@@NUI@@QAE@XZ
??0?$CScrollWindow@VCMLText@NUI@@@NUI@@QAE@ABUSWindowInfo@1@@Z
??0?$CScrollWindow@VCMLText@NUI@@@NUI@@QAE@ABV01@@Z
??0?$CScrollWindow@VCMLText@NUI@@@NUI@@QAE@XZ
??0?$CSet@VCPerk@NRPG@@@NWorld@@QAE@XZ
??0?$CSet@VCUnitServer@NWorld@@@NWorld@@QAE@XZ
??0?$CSetSyncSrc@UIVisObj@NWorld@@@@QAE@XZ
??0?$CShortPtrAllocator@USElement@?$CGatheringCache@VCShortPtrAllocator@NCache@@VCFibElement@2@VCUserGeometry@NGfx@@@NCache@@@NCache@@QAE@XZ
??0?$CShortPtrAllocator@USElement@?$CGatheringCache@VCShortPtrAllocator@NCache@@VCQuadTreeElement@2@VCTexture@NGfx@@@NCache@@@NCache@@QAE@XZ
??0?$CSomeItem@VCRPGKey@NDb@@VIKeyItem@NRPG@@@NRPG@@QAE@ABV01@@Z
??0?$CSomeItem@VCRPGKey@NDb@@VIKeyItem@NRPG@@@NRPG@@QAE@PAVCRPGKey@NDb@@@Z
??0?$CSomeItem@VCRPGKey@NDb@@VIKeyItem@NRPG@@@NRPG@@QAE@XZ
??0?$CSomeItem@VCRPGMine@NDb@@VIMineItem@NRPG@@@NRPG@@QAE@ABV01@@Z
??0?$CSomeItem@VCRPGMine@NDb@@VIMineItem@NRPG@@@NRPG@@QAE@PAVCRPGMine@NDb@@@Z
??0?$CSomeItem@VCRPGMine@NDb@@VIMineItem@NRPG@@@NRPG@@QAE@XZ
??0?$CSomeItem@VCRPGMineDetector@NDb@@VIMineDetectorItem@NRPG@@@NRPG@@QAE@ABV01@@Z
??0?$CSomeItem@VCRPGMineDetector@NDb@@VIMineDetectorItem@NRPG@@@NRPG@@QAE@PAVCRPGMineDetector@NDb@@@Z
??0?$CSomeItem@VCRPGMineDetector@NDb@@VIMineDetectorItem@NRPG@@@NRPG@@QAE@XZ
??0?$CSomeRender@VCBumpRender@NGScene@@USBumpPixel@2@@NGScene@@QAE@XZ
??0?$CSomeRender@VCFogRender@NGScene@@H@NGScene@@QAE@XZ
??0?$CSomeRender@VCTrueColorRender@NGScene@@USPixel8888@NGfx@@@NGScene@@QAE@XZ
??0?$CSoundsTracker@VCUnitServer@NWorld@@@NWorld@@QAE@XZ
??0?$CSyncDst@UIVisObj@NWorld@@@@QAE@PAV?$CSyncSrc@UIVisObj@NWorld@@@@@Z
??0?$CSyncSrc@UIVisObj@NWorld@@@@QAE@ABV0@@Z
??0?$CSyncSrc@UIVisObj@NWorld@@@@QAE@XZ
??0?$CSyncSrcBind@UIVisObj@NWorld@@@@QAE@XZ
??0?$CTBSUnit@VCUnitServer@NWorld@@VCPlayer@2@@NWorld@@QAE@XZ
??0?$CTBSUnitVision@VCUnitServer@NWorld@@VCPlayer@2@@NWorld@@QAE@XZ
??0?$CTBSWorld@VCUnitServer@NWorld@@VCPlayer@2@VCCommander@2@@NWorld@@QAE@ABV01@@Z
??0?$CTBSWorld@VCUnitServer@NWorld@@VCPlayer@2@VCCommander@2@@NWorld@@QAE@XZ
??0?$CTPoint3@H@@QAE@ABH00@Z
??0?$CTPoint3@H@@QAE@XZ
??0?$CTPoint@E@@QAE@EE@Z
??0?$CTPoint@E@@QAE@XZ
??0?$CTPoint@H@@QAE@HH@Z
??0?$CTPoint@H@@QAE@XZ
??0?$CTPoint@M@@QAE@MM@Z
??0?$CTPoint@M@@QAE@XZ
??0?$CTRect@E@@QAE@EEEE@Z
??0?$CTRect@E@@QAE@XZ
??0?$CTRect@F@@QAE@FFFF@Z
??0?$CTRect@H@@QAE@HHHH@Z
??0?$CTRect@H@@QAE@XZ
??0?$CTRect@M@@QAE@MMMM@Z
??0?$CTRect@M@@QAE@XZ
??0?$CTVoxelRenderer@VCExplVoxelRenderer@NAI@@USExplVoxel@2@@NAI@@QAE@ABV01@@Z
??0?$CTVoxelRenderer@VCExplVoxelRenderer@NAI@@USExplVoxel@2@@NAI@@QAE@XZ
??0?$CTVoxelRenderer@VCVisionVoxelRenderer@NAI@@D@NAI@@QAE@XZ
??0?$CTextureLock@USPixel1555@NGfx@@@NGfx@@QAE@ABV?$CDynamicCast@VI2DBuffer@NGfx@@@@HW4EAccess@1@@Z
??0?$CTextureLock@USPixel1555@NGfx@@@NGfx@@QAE@ABV?$CDynamicCast@VICubeBuffer@NGfx@@@@W4EFace@1@HW4EAccess@1@@Z
??0?$CTextureLock@USPixel4444@NGfx@@@NGfx@@QAE@ABV?$CDynamicCast@VI2DBuffer@NGfx@@@@HW4EAccess@1@@Z
??0?$CTextureLock@USPixel4444@NGfx@@@NGfx@@QAE@ABV?$CDynamicCast@VICubeBuffer@NGfx@@@@W4EFace@1@HW4EAccess@1@@Z
??0?$CTextureLock@USPixel565@NGfx@@@NGfx@@QAE@ABV?$CDynamicCast@VI2DBuffer@NGfx@@@@HW4EAccess@1@@Z
??0?$CTextureLock@USPixel565@NGfx@@@NGfx@@QAE@ABV?$CDynamicCast@VICubeBuffer@NGfx@@@@W4EFace@1@HW4EAccess@1@@Z
??0?$CTextureLock@USPixel8888@NGfx@@@NGfx@@QAE@ABV?$CDynamicCast@VI2DBuffer@NGfx@@@@HW4EAccess@1@@Z
??0?$CTextureLock@USPixel8888@NGfx@@@NGfx@@QAE@ABV?$CDynamicCast@VICubeBuffer@NGfx@@@@W4EFace@1@HW4EAccess@1@@Z
??0?$CTextureLock@USPixelDXT1@NGfx@@@NGfx@@QAE@ABV?$CDynamicCast@VI2DBuffer@NGfx@@@@HW4EAccess@1@@Z
??0?$CTextureLock@USPixelDXT1@NGfx@@@NGfx@@QAE@ABV?$CDynamicCast@VICubeBuffer@NGfx@@@@W4EFace@1@HW4EAccess@1@@Z
??0?$CTextureLock@USPixelDXT2@NGfx@@@NGfx@@QAE@ABV?$CDynamicCast@VI2DBuffer@NGfx@@@@HW4EAccess@1@@Z
??0?$CTextureLock@USPixelDXT2@NGfx@@@NGfx@@QAE@ABV?$CDynamicCast@VICubeBuffer@NGfx@@@@W4EFace@1@HW4EAccess@1@@Z
??0?$CTextureLock@USPixelDXT3@NGfx@@@NGfx@@QAE@ABV?$CDynamicCast@VI2DBuffer@NGfx@@@@HW4EAccess@1@@Z
??0?$CTextureLock@USPixelDXT3@NGfx@@@NGfx@@QAE@ABV?$CDynamicCast@VICubeBuffer@NGfx@@@@W4EFace@1@HW4EAccess@1@@Z
??0?$CTextureLock@USPixelDXT4@NGfx@@@NGfx@@QAE@ABV?$CDynamicCast@VI2DBuffer@NGfx@@@@HW4EAccess@1@@Z
??0?$CTextureLock@USPixelDXT4@NGfx@@@NGfx@@QAE@ABV?$CDynamicCast@VICubeBuffer@NGfx@@@@W4EFace@1@HW4EAccess@1@@Z
??0?$CTextureLock@USPixelDXT5@NGfx@@@NGfx@@QAE@ABV?$CDynamicCast@VI2DBuffer@NGfx@@@@HW4EAccess@1@@Z
??0?$CTextureLock@USPixelDXT5@NGfx@@@NGfx@@QAE@ABV?$CDynamicCast@VICubeBuffer@NGfx@@@@W4EFace@1@HW4EAccess@1@@Z
??0?$CUserCollider@USColliderUserInfo@NAI@@@NCollider@@QAE@XZ
??0?$CWaveCountCosts@VCNodesLayerProxy@NAI@@V?$CTPoint@E@@GU?$SRectColorConstraint@E@2@VCSquareMapCosts@2@$0PK@$0BA@@NAI@@QAE@PAVCSquareMapCosts@1@PBU?$SRectColorConstraint@E@1@PBVCNodesLayerProxy@1@ABV?$CTPoint@E@@@Z
??0?$CWaveCountCostsMajor@VCMovesEnumerator@NAI@@USPathPlace@2@GUSAlways@2@VCMultiMovesTable@2@$0BA@@NAI@@QAE@PAVCMultiMovesTable@1@PBUSAlways@1@PAVCMovesEnumerator@1@ABUSPathPlace@1@@Z
??0?$CWaveCountCostsMajor@VCMovesEnumerator@NAI@@USPathPlace@2@GVCLayerColorConstraints@2@VCPathPlaceTable@2@$0BA@@NAI@@QAE@PAVCPathPlaceTable@1@PBVCLayerColorConstraints@1@PAVCMovesEnumerator@1@ABUSPathPlace@1@@Z
??0?$SAISound@VCUnitServer@NWorld@@@NWorld@@QAE@ABU01@@Z
??0?$SAISound@VCUnitServer@NWorld@@@NWorld@@QAE@ABV?$vector@V?$CObj@VCTimedObject@NWorld@@@@V?$allocator@V?$CObj@VCTimedObject@NWorld@@@@@_STL@@@_STL@@PAVCUnitServer@1@ABUSPathPlace@NAI@@@Z
??0?$SGfxTnLTransformer@USTnLSelectionTransformer@NGScene@@@NGScene@@QAE@PAV?$CObj@VCGeometry@NGfx@@@@HW4EBufferUsage@NGfx@@@Z
??0?$SGfxTnLTransformer@USTnLTransformer@NGScene@@@NGScene@@QAE@PAV?$CObj@VCGeometry@NGfx@@@@HW4EBufferUsage@NGfx@@@Z
??0?$SMoveInfo@USPathPlace@NAI@@G@NAI@@QAE@ABUSPathPlace@1@ABG@Z
??0?$SMoveInfo@USPathPlace@NAI@@G@NAI@@QAE@XZ
??0?$SMoveInfo@V?$CTPoint@E@@G@NAI@@QAE@ABV?$CTPoint@E@@ABG@Z
??0?$SMoveInfo@V?$CTPoint@E@@G@NAI@@QAE@XZ
??0?$SPartTransformer@USTnLSelectionTransformer@NGScene@@@NGScene@@QAE@XZ
??0?$SRangeTest@VCDFrozenItem@NWorld@@@NWorld@@QAE@ABUSSphere@@AAV?$list@V?$CObj@VCDFrozenItem@NWorld@@@@V?$allocator@V?$CObj@VCDFrozenItem@NWorld@@@@@_STL@@@_STL@@@Z
??0?$SRealRectInfoLock@USGeomVecFull@NGfx@@@NGfx@@QAE@XZ
??0?$SRealRectInfoLock@USGeomVecT1C1@NGfx@@@NGfx@@QAE@XZ
??0?$SRectColorConstraint@E@NAI@@QAE@EEEEPAV?$CArray2D@G@@G@Z
??0?$SRenderParam@USFBTransform@@@NGfx@@QAE@ABUSFBTransform@@@Z
??0?$SRenderParam@USStencilMode@NGfx@@@NGfx@@QAE@ABUSStencilMode@1@@Z
??0?$SRenderParam@W4EAlphaCombineMode@NGfx@@@NGfx@@QAE@ABW4EAlphaCombineMode@1@@Z
??0?$SRenderParam@W4EColorWriteMask@NGfx@@@NGfx@@QAE@ABW4EColorWriteMask@1@@Z
??0?$SRenderParam@W4ECullMode@NGfx@@@NGfx@@QAE@ABW4ECullMode@1@@Z
??0?$SRenderParam@W4EDepthMode@NGfx@@@NGfx@@QAE@ABW4EDepthMode@1@@Z
??0?$SRenderParam@W4EWireframe@NGfx@@@NGfx@@QAE@ABW4EWireframe@1@@Z
??0?$SReplaceBlend@K@@QAE@ABK@Z
??0?$SReplaceBlend@USStepSound@@@@QAE@ABUSStepSound@@@Z
??0?$SRingIterator@$$CBUSEdge@CPolyClipper@@$$CBU?$SRingNode@USEdge@CPolyClipper@@@@@@QAE@ABU0@@Z
??0?$SRingIterator@$$CBUSEdge@CPolyClipper@@$$CBU?$SRingNode@USEdge@CPolyClipper@@@@@@QAE@PBU?$SRingNode@USEdge@CPolyClipper@@@@@Z
??0?$SRingIterator@USEdge@CPolyClipper@@U?$SRingNode@USEdge@CPolyClipper@@@@@@QAE@ABU0@@Z
??0?$SRingIterator@USEdge@CPolyClipper@@U?$SRingNode@USEdge@CPolyClipper@@@@@@QAE@PAU?$SRingNode@USEdge@CPolyClipper@@@@@Z
??0?$SRingIterator@USEdge@CPolyClipper@@U?$SRingNode@USEdge@CPolyClipper@@@@@@QAE@XZ
??0?$SRingIterator@USLink@CPolyClipper@@U?$SRingNode@USLink@CPolyClipper@@@@@@QAE@ABU0@@Z
??0?$SRingIterator@USLink@CPolyClipper@@U?$SRingNode@USLink@CPolyClipper@@@@@@QAE@PAU?$SRingNode@USLink@CPolyClipper@@@@@Z
??0?$SRingNode@USEdge@CPolyClipper@@@@QAE@ABUSEdge@CPolyClipper@@@Z
??0?$SRingNode@USLink@CPolyClipper@@@@QAE@ABUSLink@CPolyClipper@@@Z
??0?$STempArray@D@NAI@@QAE@XZ
??0?$STempArray@G@NAI@@QAE@XZ
??0?$STempArray@USTile@NAI@@@NAI@@QAE@XZ
??0?$STempArrayGroup@D@NAI@@QAE@XZ
??0?$STempArrayGroup@G@NAI@@QAE@XZ
??0?$STempArrayGroup@USTile@NAI@@@NAI@@QAE@XZ
??0?$STestSphere@VCExplVoxelRenderer@NAI@@@NAI@@QAE@PAVCExplVoxelRenderer@1@@Z
??0?$STestSphere@VCFastRenderer@NAI@@@NAI@@QAE@PAVCFastRenderer@1@@Z
??0?$STestSphere@VCTracer@NAI@@@NAI@@QAE@PAVCTracer@1@@Z
??0?$STestSphere@VCVisionVoxelRenderer@NAI@@@NAI@@QAE@PAVCVisionVoxelRenderer@1@@Z
??0?$SVxCache@$09@NGScene@@QAE@XZ
??0?$SVxCache@$0BA@@NGScene@@QAE@XZ
??0?$SVxCache@$0M@@NGScene@@QAE@XZ
??0?$TKey@VCVec3@@@NGScene@@QAE@XZ
??0?$TKeyVector@M@NGScene@@QAE@XZ
??0?$TKeyVector@VCVec3@@@NGScene@@QAE@XZ
??0?$_Eq_char_bound@U?$char_traits@D@std@@@_STL@@QAE@D@Z
??0?$_Eq_char_bound@U?$char_traits@G@std@@@_STL@@QAE@G@Z
??0?$_Not_within_traits@U?$char_traits@D@std@@@_STL@@QAE@PBD0@Z
??0?$_String_base@DV?$allocator@D@_STL@@@_STL@@QAE@ABV?$allocator@D@1@@Z
??0?$_String_base@DV?$allocator@D@_STL@@@_STL@@QAE@ABV?$allocator@D@1@I@Z
??0?$_String_base@GV?$allocator@G@_STL@@@_STL@@QAE@ABV?$allocator@G@1@@Z
??0?$_String_base@GV?$allocator@G@_STL@@@_STL@@QAE@ABV?$allocator@G@1@I@Z
??0?$com_ptr@UIDirect3D9@@@NWin32Helper@@QAE@PAUIDirect3D9@@@Z
??0?$com_ptr@UIDirect3DCubeTexture9@@@NWin32Helper@@QAE@PAUIDirect3DCubeTexture9@@@Z
??0?$com_ptr@UIDirect3DDevice9@@@NWin32Helper@@QAE@PAUIDirect3DDevice9@@@Z
??0?$com_ptr@UIDirect3DIndexBuffer9@@@NWin32Helper@@QAE@PAUIDirect3DIndexBuffer9@@@Z
??0?$com_ptr@UIDirect3DPixelShader9@@@NWin32Helper@@QAE@PAUIDirect3DPixelShader9@@@Z
??0?$com_ptr@UIDirect3DSurface9@@@NWin32Helper@@QAE@ABV01@@Z
??0?$com_ptr@UIDirect3DSurface9@@@NWin32Helper@@QAE@PAUIDirect3DSurface9@@@Z
??0?$com_ptr@UIDirect3DTexture9@@@NWin32Helper@@QAE@PAUIDirect3DTexture9@@@Z
??0?$com_ptr@UIDirect3DVertexBuffer9@@@NWin32Helper@@QAE@PAUIDirect3DVertexBuffer9@@@Z
??0?$com_ptr@UIDirect3DVertexDeclaration9@@@NWin32Helper@@QAE@PAUIDirect3DVertexDeclaration9@@@Z
??0?$com_ptr@UIDirect3DVertexShader9@@@NWin32Helper@@QAE@PAUIDirect3DVertexShader9@@@Z
??0?$pair@$$CBGUSTFCharacter@@@_STL@@QAE@ABGABUSTFCharacter@@@Z
??0?$pair@$$CBGUSTFCharacter@@@_STL@@QAE@ABU01@@Z
??0?$pair@$$CBHH@_STL@@QAE@ABH0@Z
??0?$pair@$$CBHH@_STL@@QAE@ABU01@@Z
??0?$pair@$$CBHP6IPAVCObjectBase@@XZ@_STL@@QAE@ABHABQ6IPAVCObjectBase@@XZ@Z
??0?$pair@$$CBHP6IPAVCObjectBase@@XZ@_STL@@QAE@ABU01@@Z
??0?$pair@$$CBHUSBodypart@CFileSkinPoints@NAI@@@_STL@@QAE@ABHABUSBodypart@CFileSkinPoints@NAI@@@Z
??0?$pair@$$CBHUSBodypart@CFileSkinPoints@NAI@@@_STL@@QAE@ABU01@@Z
??0?$pair@$$CBHUSFacesVector@NGScene@@@_STL@@QAE@ABHABUSFacesVector@NGScene@@@Z
??0?$pair@$$CBHUSFacesVector@NGScene@@@_STL@@QAE@ABU01@@Z
??0?$pair@$$CBHUSFloor@NBuilding@@@_STL@@QAE@ABHABUSFloor@NBuilding@@@Z
??0?$pair@$$CBHUSFloor@NBuilding@@@_STL@@QAE@ABU01@@Z
??0?$pair@$$CBHUSFloorGroup@NBuilding@@@_STL@@QAE@ABHABUSFloorGroup@NBuilding@@@Z
??0?$pair@$$CBHUSFloorGroup@NBuilding@@@_STL@@QAE@ABU01@@Z
??0?$pair@$$CBHUSPiece@CGeometryInfo@NAI@@@_STL@@QAE@ABHABUSPiece@CGeometryInfo@NAI@@@Z
??0?$pair@$$CBHUSPiece@CGeometryInfo@NAI@@@_STL@@QAE@ABU01@@Z
??0?$pair@$$CBHUSStoredPiece@NAI@@@_STL@@QAE@ABHABUSStoredPiece@NAI@@@Z
??0?$pair@$$CBHUSStoredPiece@NAI@@@_STL@@QAE@ABU01@@Z
??0?$pair@$$CBHUSStoredSkin@NAI@@@_STL@@QAE@ABHABUSStoredSkin@NAI@@@Z
??0?$pair@$$CBHUSStoredSkin@NAI@@@_STL@@QAE@ABU01@@Z
??0?$pair@$$CBHUSTemplate@CScenarioZone@NScenario@@@_STL@@QAE@ABHABUSTemplate@CScenarioZone@NScenario@@@Z
??0?$pair@$$CBHUSTemplate@CScenarioZone@NScenario@@@_STL@@QAE@ABU01@@Z
??0?$pair@$$CBHUSUnitGroup@@@_STL@@QAE@ABHABUSUnitGroup@@@Z
??0?$pair@$$CBHUSUnitGroup@@@_STL@@QAE@ABU01@@Z
??0?$pair@$$CBHV?$CNodeMap@USSolidElement@NBuilding@@@NBuilding@@@_STL@@QAE@ABU01@@Z
??0?$pair@$$CBHV?$CNodeMap@USSolidElement@NBuilding@@@NBuilding@@@_STL@@QAE@ABU?$pair@HV?$CNodeMap@USSolidElement@NBuilding@@@NBuilding@@@1@@Z
??0?$pair@$$CBHV?$CObj@VCBuildingPart@NWorld@@@@@_STL@@QAE@ABHABV?$CObj@VCBuildingPart@NWorld@@@@@Z
??0?$pair@$$CBHV?$CObj@VCBuildingPart@NWorld@@@@@_STL@@QAE@ABU01@@Z
??0?$pair@$$CBHV?$CObj@VCMapWaypoint@@@@@_STL@@QAE@ABHABV?$CObj@VCMapWaypoint@@@@@Z
??0?$pair@$$CBHV?$CObj@VCMapWaypoint@@@@@_STL@@QAE@ABU01@@Z
??0?$pair@$$CBHV?$CObj@VCPerk@NRPG@@@@@_STL@@QAE@ABHABV?$CObj@VCPerk@NRPG@@@@@Z
??0?$pair@$$CBHV?$CObj@VCPerk@NRPG@@@@@_STL@@QAE@ABU01@@Z
??0?$pair@$$CBHV?$CObj@VCWindow@NUI@@@@@_STL@@QAE@ABHABV?$CObj@VCWindow@NUI@@@@@Z
??0?$pair@$$CBHV?$CObj@VCWindow@NUI@@@@@_STL@@QAE@ABU01@@Z
??0?$pair@$$CBHV?$CObj@VIMaterial@NGScene@@@@@_STL@@QAE@ABHABV?$CObj@VIMaterial@NGScene@@@@@Z
??0?$pair@$$CBHV?$CObj@VIMaterial@NGScene@@@@@_STL@@QAE@ABU01@@Z
??0?$pair@$$CBHV?$CPtr@VCAIGeometryConverter@NGScene@@@@@_STL@@QAE@ABHABV?$CPtr@VCAIGeometryConverter@NGScene@@@@@Z
??0?$pair@$$CBHV?$CPtr@VCAIGeometryConverter@NGScene@@@@@_STL@@QAE@ABU01@@Z
??0?$pair@$$CBHV?$CPtr@VCAISkinObjectConverter@NGScene@@@@@_STL@@QAE@ABHABV?$CPtr@VCAISkinObjectConverter@NGScene@@@@@Z
??0?$pair@$$CBHV?$CPtr@VCAISkinObjectConverter@NGScene@@@@@_STL@@QAE@ABU01@@Z
??0?$pair@$$CBHV?$CPtr@VCBSPTree@NAI@@@@@_STL@@QAE@ABHABV?$CPtr@VCBSPTree@NAI@@@@@Z
??0?$pair@$$CBHV?$CPtr@VCBSPTree@NAI@@@@@_STL@@QAE@ABU01@@Z
??0?$pair@$$CBHV?$CPtr@VCBuildInfoLoader@NBuilding@@@@@_STL@@QAE@ABHABV?$CPtr@VCBuildInfoLoader@NBuilding@@@@@Z
??0?$pair@$$CBHV?$CPtr@VCBuildInfoLoader@NBuilding@@@@@_STL@@QAE@ABU01@@Z
??0?$pair@$$CBHV?$CPtr@VCChapterInfoLoader@@@@@_STL@@QAE@ABHABV?$CPtr@VCChapterInfoLoader@@@@@Z
??0?$pair@$$CBHV?$CPtr@VCChapterInfoLoader@@@@@_STL@@QAE@ABU01@@Z
??0?$pair@$$CBHV?$CPtr@VCFileAIBind@NGScene@@@@@_STL@@QAE@ABHABV?$CPtr@VCFileAIBind@NGScene@@@@@Z
??0?$pair@$$CBHV?$CPtr@VCFileAIBind@NGScene@@@@@_STL@@QAE@ABU01@@Z
??0?$pair@$$CBHV?$CPtr@VCFileAnimation@NAnimation@@@@@_STL@@QAE@ABHABV?$CPtr@VCFileAnimation@NAnimation@@@@@Z
??0?$pair@$$CBHV?$CPtr@VCFileAnimation@NAnimation@@@@@_STL@@QAE@ABU01@@Z
??0?$pair@$$CBHV?$CPtr@VCFileBind@NGScene@@@@@_STL@@QAE@ABHABV?$CPtr@VCFileBind@NGScene@@@@@Z
??0?$pair@$$CBHV?$CPtr@VCFileBind@NGScene@@@@@_STL@@QAE@ABU01@@Z
??0?$pair@$$CBHV?$CPtr@VCFileCubeTexture@NGScene@@@@@_STL@@QAE@ABHABV?$CPtr@VCFileCubeTexture@NGScene@@@@@Z
??0?$pair@$$CBHV?$CPtr@VCFileCubeTexture@NGScene@@@@@_STL@@QAE@ABU01@@Z
??0?$pair@$$CBHV?$CPtr@VCFileFont@NGScene@@@@@_STL@@QAE@ABHABV?$CPtr@VCFileFont@NGScene@@@@@Z
??0?$pair@$$CBHV?$CPtr@VCFileFont@NGScene@@@@@_STL@@QAE@ABU01@@Z
??0?$pair@$$CBHV?$CPtr@VCFileLocators@NAnimation@@@@@_STL@@QAE@ABHABV?$CPtr@VCFileLocators@NAnimation@@@@@Z
??0?$pair@$$CBHV?$CPtr@VCFileLocators@NAnimation@@@@@_STL@@QAE@ABU01@@Z
??0?$pair@$$CBHV?$CPtr@VCFileSample2D@NSound@@@@@_STL@@QAE@ABHABV?$CPtr@VCFileSample2D@NSound@@@@@Z
??0?$pair@$$CBHV?$CPtr@VCFileSample2D@NSound@@@@@_STL@@QAE@ABU01@@Z
??0?$pair@$$CBHV?$CPtr@VCFileSample3D@NSound@@@@@_STL@@QAE@ABHABV?$CPtr@VCFileSample3D@NSound@@@@@Z
??0?$pair@$$CBHV?$CPtr@VCFileSample3D@NSound@@@@@_STL@@QAE@ABU01@@Z
??0?$pair@$$CBHV?$CPtr@VCFileSkeleton@NAnimation@@@@@_STL@@QAE@ABHABV?$CPtr@VCFileSkeleton@NAnimation@@@@@Z
??0?$pair@$$CBHV?$CPtr@VCFileSkeleton@NAnimation@@@@@_STL@@QAE@ABU01@@Z
??0?$pair@$$CBHV?$CPtr@VCFileSkinPointsLoad@NAI@@@@@_STL@@QAE@ABHABV?$CPtr@VCFileSkinPointsLoad@NAI@@@@@Z
??0?$pair@$$CBHV?$CPtr@VCFileSkinPointsLoad@NAI@@@@@_STL@@QAE@ABU01@@Z
??0?$pair@$$CBHV?$CPtr@VCGlobalInfoLoader@@@@@_STL@@QAE@ABHABV?$CPtr@VCGlobalInfoLoader@@@@@Z
??0?$pair@$$CBHV?$CPtr@VCGlobalInfoLoader@@@@@_STL@@QAE@ABU01@@Z
??0?$pair@$$CBHV?$CPtr@VCHeadMeshLoader@NLSHead@@@@@_STL@@QAE@ABHABV?$CPtr@VCHeadMeshLoader@NLSHead@@@@@Z
??0?$pair@$$CBHV?$CPtr@VCHeadMeshLoader@NLSHead@@@@@_STL@@QAE@ABU01@@Z
??0?$pair@$$CBHV?$CPtr@VCHeadSequenceLoader@NLSHead@@@@@_STL@@QAE@ABHABV?$CPtr@VCHeadSequenceLoader@NLSHead@@@@@Z
??0?$pair@$$CBHV?$CPtr@VCHeadSequenceLoader@NLSHead@@@@@_STL@@QAE@ABU01@@Z
??0?$pair@$$CBHV?$CPtr@VCLightLoader@NGScene@@@@@_STL@@QAE@ABHABV?$CPtr@VCLightLoader@NGScene@@@@@Z
??0?$pair@$$CBHV?$CPtr@VCLightLoader@NGScene@@@@@_STL@@QAE@ABU01@@Z
??0?$pair@$$CBHV?$CPtr@VCLoadGeometryInfo@NAI@@@@@_STL@@QAE@ABHABV?$CPtr@VCLoadGeometryInfo@NAI@@@@@Z
??0?$pair@$$CBHV?$CPtr@VCLoadGeometryInfo@NAI@@@@@_STL@@QAE@ABU01@@Z
??0?$pair@$$CBHV?$CPtr@VCLoadTwoBSPTrees@NAI@@@@@_STL@@QAE@ABHABV?$CPtr@VCLoadTwoBSPTrees@NAI@@@@@Z
??0?$pair@$$CBHV?$CPtr@VCLoadTwoBSPTrees@NAI@@@@@_STL@@QAE@ABU01@@Z
??0?$pair@$$CBHV?$CPtr@VCLocalAmbientCalcer@NGScene@@@@@_STL@@QAE@ABHABV?$CPtr@VCLocalAmbientCalcer@NGScene@@@@@Z
??0?$pair@$$CBHV?$CPtr@VCLocalAmbientCalcer@NGScene@@@@@_STL@@QAE@ABU01@@Z
??0?$pair@$$CBHV?$CPtr@VCMETerrainLoader@@@@@_STL@@QAE@ABHABV?$CPtr@VCMETerrainLoader@@@@@Z
??0?$pair@$$CBHV?$CPtr@VCMETerrainLoader@@@@@_STL@@QAE@ABU01@@Z
??0?$pair@$$CBHV?$CPtr@VCMapWaypoint@@@@@_STL@@QAE@ABHABV?$CPtr@VCMapWaypoint@@@@@Z
??0?$pair@$$CBHV?$CPtr@VCMapWaypoint@@@@@_STL@@QAE@ABU01@@Z
??0?$pair@$$CBHV?$CPtr@VCParticlesLoader@NGScene@@@@@_STL@@QAE@ABHABV?$CPtr@VCParticlesLoader@NGScene@@@@@Z
??0?$pair@$$CBHV?$CPtr@VCParticlesLoader@NGScene@@@@@_STL@@QAE@ABU01@@Z
??0?$pair@$$CBHV?$CPtr@VCSWTexture@NGScene@@@@@_STL@@QAE@ABHABV?$CPtr@VCSWTexture@NGScene@@@@@Z
??0?$pair@$$CBHV?$CPtr@VCSWTexture@NGScene@@@@@_STL@@QAE@ABU01@@Z
??0?$pair@$$CBHV?$CPtr@VCUnitAIInfoLoader@NAI@@@@@_STL@@QAE@ABHABV?$CPtr@VCUnitAIInfoLoader@NAI@@@@@Z
??0?$pair@$$CBHV?$CPtr@VCUnitAIInfoLoader@NAI@@@@@_STL@@QAE@ABU01@@Z
??0?$pair@$$CBHV?$CPtr@VCUnitGroupAIInfoLoader@NAI@@@@@_STL@@QAE@ABHABV?$CPtr@VCUnitGroupAIInfoLoader@NAI@@@@@Z
??0?$pair@$$CBHV?$CPtr@VCUnitGroupAIInfoLoader@NAI@@@@@_STL@@QAE@ABU01@@Z
??0?$pair@$$CBHV?$CPtr@VCUnitServer@NWorld@@@@@_STL@@QAE@ABHABV?$CPtr@VCUnitServer@NWorld@@@@@Z
??0?$pair@$$CBHV?$CPtr@VCUnitServer@NWorld@@@@@_STL@@QAE@ABU01@@Z
??0?$pair@$$CBHV?$CPtr@VCWaypointLoader@NAI@@@@@_STL@@QAE@ABHABV?$CPtr@VCWaypointLoader@NAI@@@@@Z
??0?$pair@$$CBHV?$CPtr@VCWaypointLoader@NAI@@@@@_STL@@QAE@ABU01@@Z
??0?$pair@$$CBHV?$com_ptr@UIDirect3DSurface9@@@NWin32Helper@@@_STL@@QAE@ABHABV?$com_ptr@UIDirect3DSurface9@@@NWin32Helper@@@Z
??0?$pair@$$CBHV?$com_ptr@UIDirect3DSurface9@@@NWin32Helper@@@_STL@@QAE@ABU01@@Z
??0?$pair@$$CBHV?$hash_map@HV?$list@W4ECritical@NDb@@V?$allocator@W4ECritical@NDb@@@_STL@@@_STL@@U?$hash@H@2@U?$equal_to@H@2@V?$allocator@U?$pair@$$CBHV?$list@W4ECritical@NDb@@V?$allocator@W4ECritical@NDb@@@_STL@@@_STL@@@_STL@@@2@@_STL@@@_STL@@QAE@ABHABV?$hash_map@HV?$list@W4ECritical@NDb@@V?$allocator@W4ECritical@NDb@@@_STL@@@_STL@@U?$hash@H@2@U?$equal_to@H@2@V?$allocator@U?$pair@$$CBHV?$list@W4ECritical@NDb@@V?$allocator@W4ECritical@NDb@@@_STL@@@_STL@@@_STL@@@2@@1@@Z
??0?$pair@$$CBHV?$hash_map@HV?$list@W4ECritical@NDb@@V?$allocator@W4ECritical@NDb@@@_STL@@@_STL@@U?$hash@H@2@U?$equal_to@H@2@V?$allocator@U?$pair@$$CBHV?$list@W4ECritical@NDb@@V?$allocator@W4ECritical@NDb@@@_STL@@@_STL@@@_STL@@@2@@_STL@@@_STL@@QAE@ABU01@@Z
??0?$pair@$$CBHV?$list@V?$CObj@VCScenarioFlowChartState@NScenario@@@@V?$allocator@V?$CObj@VCScenarioFlowChartState@NScenario@@@@@_STL@@@_STL@@@_STL@@QAE@ABHABV?$list@V?$CObj@VCScenarioFlowChartState@NScenario@@@@V?$allocator@V?$CObj@VCScenarioFlowChartState@NScenario@@@@@_STL@@@1@@Z
??0?$pair@$$CBHV?$list@V?$CObj@VCScenarioFlowChartState@NScenario@@@@V?$allocator@V?$CObj@VCScenarioFlowChartState@NScenario@@@@@_STL@@@_STL@@@_STL@@QAE@ABU01@@Z
??0?$pair@$$CBHV?$list@W4ECritical@NDb@@V?$allocator@W4ECritical@NDb@@@_STL@@@_STL@@@_STL@@QAE@ABHABV?$list@W4ECritical@NDb@@V?$allocator@W4ECritical@NDb@@@_STL@@@1@@Z
??0?$pair@$$CBHV?$list@W4ECritical@NDb@@V?$allocator@W4ECritical@NDb@@@_STL@@@_STL@@@_STL@@QAE@ABU01@@Z
??0?$pair@$$CBHVCCubemapBufferSet@NGfx@@@_STL@@QAE@ABHABVCCubemapBufferSet@NGfx@@@Z
??0?$pair@$$CBHVCCubemapBufferSet@NGfx@@@_STL@@QAE@ABU01@@Z
??0?$pair@$$CBHVCTextureBuffersSet@NGfx@@@_STL@@QAE@ABHABVCTextureBuffersSet@NGfx@@@Z
??0?$pair@$$CBHVCTextureBuffersSet@NGfx@@@_STL@@QAE@ABU01@@Z
??0?$pair@$$CBH_N@_STL@@QAE@ABHAB_N@Z
??0?$pair@$$CBH_N@_STL@@QAE@ABU01@@Z
??0?$pair@$$CBKH@_STL@@QAE@ABKABH@Z
??0?$pair@$$CBKH@_STL@@QAE@ABU01@@Z
??0?$pair@$$CBUCIVec3@NBuilding@@VCJunctionID@2@@_STL@@QAE@ABU01@@Z
??0?$pair@$$CBUCIVec3@NBuilding@@VCJunctionID@2@@_STL@@QAE@ABUCIVec3@NBuilding@@ABVCJunctionID@3@@Z
??0?$pair@$$CBUSClipShare@NGScene@@V?$CPtr@VCSolidObjectInfoClipper@NGScene@@@@@_STL@@QAE@ABU01@@Z
??0?$pair@$$CBUSClipShare@NGScene@@V?$CPtr@VCSolidObjectInfoClipper@NGScene@@@@@_STL@@QAE@ABUSClipShare@NGScene@@ABV?$CPtr@VCSolidObjectInfoClipper@NGScene@@@@@Z
??0?$pair@$$CBUSClipShare@NGScene@@V?$CPtr@VCWallObjectInfoClipper@NGScene@@@@@_STL@@QAE@ABU01@@Z
??0?$pair@$$CBUSClipShare@NGScene@@V?$CPtr@VCWallObjectInfoClipper@NGScene@@@@@_STL@@QAE@ABUSClipShare@NGScene@@ABV?$CPtr@VCWallObjectInfoClipper@NGScene@@@@@Z
??0?$pair@$$CBUSCompoundPosKey@NGScene@@H@_STL@@QAE@ABU01@@Z
??0?$pair@$$CBUSCompoundPosKey@NGScene@@H@_STL@@QAE@ABUSCompoundPosKey@NGScene@@ABH@Z
??0?$pair@$$CBUSDecalTargetPart@NGScene@@V?$vector@V?$CPtr@VCDecal@NGScene@@@@V?$allocator@V?$CPtr@VCDecal@NGScene@@@@@_STL@@@_STL@@@_STL@@QAE@ABU01@@Z
??0?$pair@$$CBUSDecalTargetPart@NGScene@@V?$vector@V?$CPtr@VCDecal@NGScene@@@@V?$allocator@V?$CPtr@VCDecal@NGScene@@@@@_STL@@@_STL@@@_STL@@QAE@ABUSDecalTargetPart@NGScene@@ABV?$vector@V?$CPtr@VCDecal@NGScene@@@@V?$allocator@V?$CPtr@VCDecal@NGScene@@@@@_STL@@@1@@Z
??0?$pair@$$CBUSEdge@NGScene@@H@_STL@@QAE@ABU01@@Z
??0?$pair@$$CBUSEdge@NGScene@@H@_STL@@QAE@ABUSEdge@NGScene@@ABH@Z
??0?$pair@$$CBUSEdgeInfo@NGScene@@H@_STL@@QAE@ABU01@@Z
??0?$pair@$$CBUSEdgeInfo@NGScene@@H@_STL@@QAE@ABUSEdgeInfo@NGScene@@ABH@Z
??0?$pair@$$CBUSGeometryType@NGfx@@V?$CObj@V?$CLinearBuffer@VCVB@NGfx@@VCUserGeometry@2@@NGfx@@@@@_STL@@QAE@ABU01@@Z
??0?$pair@$$CBUSGeometryType@NGfx@@V?$CObj@V?$CLinearBuffer@VCVB@NGfx@@VCUserGeometry@2@@NGfx@@@@@_STL@@QAE@ABUSGeometryType@NGfx@@ABV?$CObj@V?$CLinearBuffer@VCVB@NGfx@@VCUserGeometry@2@@NGfx@@@@@Z
??0?$pair@$$CBUSLoadVertex@NGScene@@H@_STL@@QAE@ABU01@@Z
??0?$pair@$$CBUSLoadVertex@NGScene@@H@_STL@@QAE@ABUSLoadVertex@NGScene@@ABH@Z
??0?$pair@$$CBUSMemBuilderVertex@@H@_STL@@QAE@ABU01@@Z
??0?$pair@$$CBUSMemBuilderVertex@@H@_STL@@QAE@ABUSMemBuilderVertex@@ABH@Z
??0?$pair@$$CBUSPart@NBuilding@@USStoreyInfo@2@@_STL@@QAE@ABU01@@Z
??0?$pair@$$CBUSPart@NBuilding@@USStoreyInfo@2@@_STL@@QAE@ABUSPart@NBuilding@@ABUSStoreyInfo@3@@Z
??0?$pair@$$CBUSPart@NBuilding@@_N@_STL@@QAE@ABU01@@Z
??0?$pair@$$CBUSPart@NBuilding@@_N@_STL@@QAE@ABUSPart@NBuilding@@AB_N@Z
??0?$pair@$$CBUSPartKey@NGScene@@V?$CPtr@VCObjectInfoLoader@NGScene@@@@@_STL@@QAE@ABU01@@Z
??0?$pair@$$CBUSPartKey@NGScene@@V?$CPtr@VCObjectInfoLoader@NGScene@@@@@_STL@@QAE@ABUSPartKey@NGScene@@ABV?$CPtr@VCObjectInfoLoader@NGScene@@@@@Z
??0?$pair@$$CBUSPartKey@NGScene@@V?$CPtr@VCObjectInfoPiecesLoader@NGScene@@@@@_STL@@QAE@ABU01@@Z
??0?$pair@$$CBUSPartKey@NGScene@@V?$CPtr@VCObjectInfoPiecesLoader@NGScene@@@@@_STL@@QAE@ABUSPartKey@NGScene@@ABV?$CPtr@VCObjectInfoPiecesLoader@NGScene@@@@@Z
??0?$pair@$$CBUSPartKey@NGScene@@_N@_STL@@QAE@ABU01@@Z
??0?$pair@$$CBUSPartKey@NGScene@@_N@_STL@@QAE@ABUSPartKey@NGScene@@AB_N@Z
??0?$pair@$$CBUSPathPlace@NAI@@U12@@_STL@@QAE@ABU01@@Z
??0?$pair@$$CBUSPathPlace@NAI@@U12@@_STL@@QAE@ABUSPathPlace@NAI@@0@Z
??0?$pair@$$CBUSPathPlace@NAI@@U?$SMoveInfo@USPathPlace@NAI@@G@2@@_STL@@QAE@ABU01@@Z
??0?$pair@$$CBUSPathPlace@NAI@@U?$SMoveInfo@USPathPlace@NAI@@G@2@@_STL@@QAE@ABUSPathPlace@NAI@@ABU?$SMoveInfo@USPathPlace@NAI@@G@3@@Z
??0?$pair@$$CBUSPathPlace@NAI@@USLadderTransition@CNodesLayer@2@@_STL@@QAE@ABU01@@Z
??0?$pair@$$CBUSPathPlace@NAI@@USLadderTransition@CNodesLayer@2@@_STL@@QAE@ABUSPathPlace@NAI@@ABUSLadderTransition@CNodesLayer@3@@Z
??0?$pair@$$CBUSPathPlace@NAI@@USTile@2@@_STL@@QAE@ABU01@@Z
??0?$pair@$$CBUSPathPlace@NAI@@USTile@2@@_STL@@QAE@ABUSPathPlace@NAI@@ABUSTile@3@@Z
??0?$pair@$$CBUSPathPlace@NAI@@USTransitionSet@CNodesLayer@2@@_STL@@QAE@ABU01@@Z
??0?$pair@$$CBUSPathPlace@NAI@@USTransitionSet@CNodesLayer@2@@_STL@@QAE@ABUSPathPlace@NAI@@ABUSTransitionSet@CNodesLayer@3@@Z
??0?$pair@$$CBUSPlane@@USPolygonIndices@NGScene@@@_STL@@QAE@ABU01@@Z
??0?$pair@$$CBUSPlane@@USPolygonIndices@NGScene@@@_STL@@QAE@ABUSPlane@@ABUSPolygonIndices@NGScene@@@Z
??0?$pair@$$CBUSPointLightPos@CLightmapTracker@NGScene@@V?$CObj@VCCubeTexture@NGfx@@@@@_STL@@QAE@ABU01@@Z
??0?$pair@$$CBUSPointLightPos@CLightmapTracker@NGScene@@V?$CObj@VCCubeTexture@NGfx@@@@@_STL@@QAE@ABUSPointLightPos@CLightmapTracker@NGScene@@ABV?$CObj@VCCubeTexture@NGfx@@@@@Z
??0?$pair@$$CBUSRenderFragmentKey@NGScene@@H@_STL@@QAE@ABU01@@Z
??0?$pair@$$CBUSRenderFragmentKey@NGScene@@H@_STL@@QAE@ABUSRenderFragmentKey@NGScene@@ABH@Z
??0?$pair@$$CBUSRenderStateKey@NGfx@@K@_STL@@QAE@ABU01@@Z
??0?$pair@$$CBUSRenderStateKey@NGfx@@K@_STL@@QAE@ABUSRenderStateKey@NGfx@@ABK@Z
??0?$pair@$$CBUSSrcPosInfo@NGScene@@V?$vector@VCVec3@@V?$allocator@VCVec3@@@_STL@@@_STL@@@_STL@@QAE@ABU01@@Z
??0?$pair@$$CBUSSrcPosInfo@NGScene@@V?$vector@VCVec3@@V?$allocator@VCVec3@@@_STL@@@_STL@@@_STL@@QAE@ABUSSrcPosInfo@NGScene@@ABV?$vector@VCVec3@@V?$allocator@VCVec3@@@_STL@@@1@@Z
??0?$pair@$$CBUSTextureKey@NGScene@@V?$CPtr@VCFileTexture@NGScene@@@@@_STL@@QAE@ABU01@@Z
??0?$pair@$$CBUSTextureKey@NGScene@@V?$CPtr@VCFileTexture@NGScene@@@@@_STL@@QAE@ABUSTextureKey@NGScene@@ABV?$CPtr@VCFileTexture@NGScene@@@@@Z
??0?$pair@$$CBUSVisionQuery@NRPG@@_N@_STL@@QAE@ABU01@@Z
??0?$pair@$$CBUSVisionQuery@NRPG@@_N@_STL@@QAE@ABUSVisionQuery@NRPG@@AB_N@Z
??0?$pair@$$CBUSVoxelObjectKey@NAI@@USExplObject@CExplVoxelRenderer@2@@_STL@@QAE@ABU01@@Z
??0?$pair@$$CBUSVoxelObjectKey@NAI@@USExplObject@CExplVoxelRenderer@2@@_STL@@QAE@ABUSVoxelObjectKey@NAI@@ABUSExplObject@CExplVoxelRenderer@3@@Z
??0?$pair@$$CBUSZone@NAI@@USDistanceInfo@2@@_STL@@QAE@ABU01@@Z
??0?$pair@$$CBUSZone@NAI@@USDistanceInfo@2@@_STL@@QAE@ABUSZone@NAI@@ABUSDistanceInfo@3@@Z
??0?$pair@$$CBUSZone@NAI@@_N@_STL@@QAE@ABU01@@Z
??0?$pair@$$CBUSZone@NAI@@_N@_STL@@QAE@ABUSZone@NAI@@AB_N@Z
??0?$pair@$$CBV?$CPtr@UIVisObj@NWorld@@@@H@_STL@@QAE@ABU01@@Z
??0?$pair@$$CBV?$CPtr@UIVisObj@NWorld@@@@H@_STL@@QAE@ABV?$CPtr@UIVisObj@NWorld@@@@ABH@Z
??0?$pair@$$CBV?$CPtr@V?$CFuncBase@USTerrainInfo@@@@@@V?$CObj@VCGrassTracker@NGScene@@@@@_STL@@QAE@ABU01@@Z
??0?$pair@$$CBV?$CPtr@V?$CFuncBase@USTerrainInfo@@@@@@V?$CObj@VCGrassTracker@NGScene@@@@@_STL@@QAE@ABV?$CPtr@V?$CFuncBase@USTerrainInfo@@@@@@ABV?$CObj@VCGrassTracker@NGScene@@@@@Z
??0?$pair@$$CBV?$CPtr@VCAIAction@NAI@@@@H@_STL@@QAE@ABU01@@Z
??0?$pair@$$CBV?$CPtr@VCAIAction@NAI@@@@H@_STL@@QAE@ABV?$CPtr@VCAIAction@NAI@@@@ABH@Z
??0?$pair@$$CBV?$CPtr@VCAIAction@NAI@@@@_N@_STL@@QAE@ABU01@@Z
??0?$pair@$$CBV?$CPtr@VCAIAction@NAI@@@@_N@_STL@@QAE@ABV?$CPtr@VCAIAction@NAI@@@@AB_N@Z
??0?$pair@$$CBV?$CPtr@VCObjectBase@@@@H@_STL@@QAE@ABU01@@Z
??0?$pair@$$CBV?$CPtr@VCObjectBase@@@@H@_STL@@QAE@ABV?$CPtr@VCObjectBase@@@@ABH@Z
??0?$pair@$$CBV?$CPtr@VCObjectBase@@@@USDynLockInfo@CPathNetwork@NAI@@@_STL@@QAE@ABU01@@Z
??0?$pair@$$CBV?$CPtr@VCObjectBase@@@@USDynLockInfo@CPathNetwork@NAI@@@_STL@@QAE@ABV?$CPtr@VCObjectBase@@@@ABUSDynLockInfo@CPathNetwork@NAI@@@Z
??0?$pair@$$CBV?$CPtr@VCObjectBase@@@@USLockInfo@CPathNetwork@NAI@@@_STL@@QAE@ABU01@@Z
??0?$pair@$$CBV?$CPtr@VCObjectBase@@@@USLockInfo@CPathNetwork@NAI@@@_STL@@QAE@ABV?$CPtr@VCObjectBase@@@@ABUSLockInfo@CPathNetwork@NAI@@@Z
??0?$pair@$$CBV?$CPtr@VCObjectBase@@@@V?$CPtr@VCSelection@NRender@@@@@_STL@@QAE@ABU01@@Z
??0?$pair@$$CBV?$CPtr@VCObjectBase@@@@V?$CPtr@VCSelection@NRender@@@@@_STL@@QAE@ABV?$CPtr@VCObjectBase@@@@ABV?$CPtr@VCSelection@NRender@@@@@Z
??0?$pair@$$CBV?$CPtr@VCObjectBase@@@@V?$list@HV?$allocator@H@_STL@@@_STL@@@_STL@@QAE@ABU01@@Z
??0?$pair@$$CBV?$CPtr@VCObjectBase@@@@V?$list@HV?$allocator@H@_STL@@@_STL@@@_STL@@QAE@ABV?$CPtr@VCObjectBase@@@@ABV?$list@HV?$allocator@H@_STL@@@1@@Z
??0?$pair@$$CBV?$CPtr@VCObjectBase@@@@VCPartFlags@NGScene@@@_STL@@QAE@ABU01@@Z
??0?$pair@$$CBV?$CPtr@VCObjectBase@@@@VCPartFlags@NGScene@@@_STL@@QAE@ABV?$CPtr@VCObjectBase@@@@ABVCPartFlags@NGScene@@@Z
??0?$pair@$$CBV?$CPtr@VCObjectBase@@@@_N@_STL@@QAE@ABU01@@Z
??0?$pair@$$CBV?$CPtr@VCObjectBase@@@@_N@_STL@@QAE@ABV?$CPtr@VCObjectBase@@@@AB_N@Z
??0?$pair@$$CBV?$CPtr@VCScenarioClue@NScenario@@@@H@_STL@@QAE@ABU01@@Z
??0?$pair@$$CBV?$CPtr@VCScenarioClue@NScenario@@@@H@_STL@@QAE@ABV?$CPtr@VCScenarioClue@NScenario@@@@ABH@Z
??0?$pair@$$CBV?$CPtr@VCScenarioClue@NScenario@@@@USClueSlot@@@_STL@@QAE@ABU01@@Z
??0?$pair@$$CBV?$CPtr@VCScenarioClue@NScenario@@@@USClueSlot@@@_STL@@QAE@ABV?$CPtr@VCScenarioClue@NScenario@@@@ABUSClueSlot@@@Z
??0?$pair@$$CBV?$CPtr@VCTB@NGfx@@@@V?$CObj@VCTexture@NGfx@@@@@_STL@@QAE@ABU01@@Z
??0?$pair@$$CBV?$CPtr@VCTB@NGfx@@@@V?$CObj@VCTexture@NGfx@@@@@_STL@@QAE@ABV?$CPtr@VCTB@NGfx@@@@ABV?$CObj@VCTexture@NGfx@@@@@Z
??0?$pair@$$CBV?$CPtr@VCUnit@NRPG@@@@USUnitDeployData@NRPG@@@_STL@@QAE@ABU01@@Z
??0?$pair@$$CBV?$CPtr@VCUnit@NRPG@@@@USUnitDeployData@NRPG@@@_STL@@QAE@ABV?$CPtr@VCUnit@NRPG@@@@ABUSUnitDeployData@NRPG@@@Z
??0?$pair@$$CBV?$CPtr@VCUnit@NWorld@@@@_N@_STL@@QAE@ABU01@@Z
??0?$pair@$$CBV?$CPtr@VCUnit@NWorld@@@@_N@_STL@@QAE@ABV?$CPtr@VCUnit@NWorld@@@@AB_N@Z
??0?$pair@$$CBV?$CPtr@VCUnitServer@NWorld@@@@V?$CPtr@VIPassageObject@NWorld@@@@@_STL@@QAE@ABU01@@Z
??0?$pair@$$CBV?$CPtr@VCUnitServer@NWorld@@@@V?$CPtr@VIPassageObject@NWorld@@@@@_STL@@QAE@ABV?$CPtr@VCUnitServer@NWorld@@@@ABV?$CPtr@VIPassageObject@NWorld@@@@@Z
??0?$pair@$$CBV?$CPtr@VIAIJob@NAI@@@@V?$list@V?$CPtr@VIAIJob@NAI@@@@V?$allocator@V?$CPtr@VIAIJob@NAI@@@@@_STL@@@_STL@@@_STL@@QAE@ABU01@@Z
??0?$pair@$$CBV?$CPtr@VIAIJob@NAI@@@@V?$list@V?$CPtr@VIAIJob@NAI@@@@V?$allocator@V?$CPtr@VIAIJob@NAI@@@@@_STL@@@_STL@@@_STL@@QAE@ABV?$CPtr@VIAIJob@NAI@@@@ABV?$list@V?$CPtr@VIAIJob@NAI@@@@V?$allocator@V?$CPtr@VIAIJob@NAI@@@@@_STL@@@1@@Z
??0?$pair@$$CBV?$CPtr@VIInventoryItem@NRPG@@@@V?$CPtr@VCItemText@NUI@@@@@_STL@@QAE@ABU01@@Z
??0?$pair@$$CBV?$CPtr@VIInventoryItem@NRPG@@@@V?$CPtr@VCItemText@NUI@@@@@_STL@@QAE@ABV?$CPtr@VIInventoryItem@NRPG@@@@ABV?$CPtr@VCItemText@NUI@@@@@Z
??0?$pair@$$CBV?$CPtr@VIPostProcess@NGScene@@@@V?$vector@USObject@IPostProcess@NGScene@@V?$allocator@USObject@IPostProcess@NGScene@@@_STL@@@_STL@@@_STL@@QAE@ABU01@@Z
??0?$pair@$$CBV?$CPtr@VIPostProcess@NGScene@@@@V?$vector@USObject@IPostProcess@NGScene@@V?$allocator@USObject@IPostProcess@NGScene@@@_STL@@@_STL@@@_STL@@QAE@ABV?$CPtr@VIPostProcess@NGScene@@@@ABV?$vector@USObject@IPostProcess@NGScene@@V?$allocator@USObject@IPostProcess@NGScene@@@_STL@@@1@@Z
??0?$pair@$$CBV?$CTPoint@H@@VCJunctionID@NBuilding@@@_STL@@QAE@ABU01@@Z
??0?$pair@$$CBV?$CTPoint@H@@VCJunctionID@NBuilding@@@_STL@@QAE@ABV?$CTPoint@H@@ABVCJunctionID@NBuilding@@@Z
??0?$pair@$$CBV?$basic_string@DU?$char_traits@D@std@@V?$allocator@D@_STL@@@_STL@@H@_STL@@QAE@ABU01@@Z
??0?$pair@$$CBV?$basic_string@DU?$char_traits@D@std@@V?$allocator@D@_STL@@@_STL@@H@_STL@@QAE@ABV?$basic_string@DU?$char_traits@D@std@@V?$allocator@D@_STL@@@1@ABH@Z
??0?$pair@$$CBV?$basic_string@DU?$char_traits@D@std@@V?$allocator@D@_STL@@@_STL@@V?$CObj@VCAIRouteWaypoint@NAI@@@@@_STL@@QAE@ABU01@@Z
??0?$pair@$$CBV?$basic_string@DU?$char_traits@D@std@@V?$allocator@D@_STL@@@_STL@@V?$CObj@VCAIRouteWaypoint@NAI@@@@@_STL@@QAE@ABV?$basic_string@DU?$char_traits@D@std@@V?$allocator@D@_STL@@@1@ABV?$CObj@VCAIRouteWaypoint@NAI@@@@@Z
??0?$pair@$$CBV?$basic_string@DU?$char_traits@D@std@@V?$allocator@D@_STL@@@_STL@@V?$CPtr@VCObjectBase@@@@@_STL@@QAE@ABU01@@Z
??0?$pair@$$CBV?$basic_string@DU?$char_traits@D@std@@V?$allocator@D@_STL@@@_STL@@V?$CPtr@VCObjectBase@@@@@_STL@@QAE@ABV?$basic_string@DU?$char_traits@D@std@@V?$allocator@D@_STL@@@1@ABV?$CPtr@VCObjectBase@@@@@Z
??0?$pair@$$CBV?$basic_string@DU?$char_traits@D@std@@V?$allocator@D@_STL@@@_STL@@V?$CPtr@VIFilesPackage@@@@@_STL@@QAE@ABU01@@Z
??0?$pair@$$CBV?$basic_string@DU?$char_traits@D@std@@V?$allocator@D@_STL@@@_STL@@V?$CPtr@VIFilesPackage@@@@@_STL@@QAE@ABV?$basic_string@DU?$char_traits@D@std@@V?$allocator@D@_STL@@@1@ABV?$CPtr@VIFilesPackage@@@@@Z
??0?$pair@$$CBV?$basic_string@GU?$char_traits@G@std@@V?$allocator@G@_STL@@@_STL@@V12@@_STL@@QAE@ABU01@@Z
??0?$pair@$$CBV?$basic_string@GU?$char_traits@G@std@@V?$allocator@G@_STL@@@_STL@@V12@@_STL@@QAE@ABV?$basic_string@GU?$char_traits@G@std@@V?$allocator@G@_STL@@@1@0@Z
??0?$pair@$$CBV?$basic_string@GU?$char_traits@G@std@@V?$allocator@G@_STL@@@_STL@@V?$CObj@VIMLHandler@NUI@@@@@_STL@@QAE@ABU01@@Z
??0?$pair@$$CBV?$basic_string@GU?$char_traits@G@std@@V?$allocator@G@_STL@@@_STL@@V?$CObj@VIMLHandler@NUI@@@@@_STL@@QAE@ABV?$basic_string@GU?$char_traits@G@std@@V?$allocator@G@_STL@@@1@ABV?$CObj@VIMLHandler@NUI@@@@@Z
??0?$pair@$$CBVCVec3@@H@_STL@@QAE@ABU01@@Z
??0?$pair@$$CBVCVec3@@H@_STL@@QAE@ABVCVec3@@ABH@Z
??0?$pair@$$CBVCVec3@@USDynamicAmbientInfo@NGScene@@@_STL@@QAE@ABU01@@Z
??0?$pair@$$CBVCVec3@@USDynamicAmbientInfo@NGScene@@@_STL@@QAE@ABVCVec3@@ABUSDynamicAmbientInfo@NGScene@@@Z
??0?$pair@$$CBVCVec3@@V?$CObj@VIMaterial@NGScene@@@@@_STL@@QAE@ABU01@@Z
??0?$pair@$$CBVCVec3@@V?$CObj@VIMaterial@NGScene@@@@@_STL@@QAE@ABVCVec3@@ABV?$CObj@VIMaterial@NGScene@@@@@Z
??0?$pair@$$CBVCVec3@@V?$list@PAVCPolyline@NGScene@@V?$allocator@PAVCPolyline@NGScene@@@_STL@@@_STL@@@_STL@@QAE@ABU01@@Z
??0?$pair@$$CBVCVec3@@V?$list@PAVCPolyline@NGScene@@V?$allocator@PAVCPolyline@NGScene@@@_STL@@@_STL@@@_STL@@QAE@ABVCVec3@@ABV?$list@PAVCPolyline@NGScene@@V?$allocator@PAVCPolyline@NGScene@@@_STL@@@1@@Z
??0?$pair@$$CBVCVec3@@V?$vector@V?$CObj@VCMine@NWorld@@@@V?$allocator@V?$CObj@VCMine@NWorld@@@@@_STL@@@_STL@@@_STL@@QAE@ABU01@@Z
??0?$pair@$$CBVCVec3@@V?$vector@V?$CObj@VCMine@NWorld@@@@V?$allocator@V?$CObj@VCMine@NWorld@@@@@_STL@@@_STL@@@_STL@@QAE@ABVCVec3@@ABV?$vector@V?$CObj@VCMine@NWorld@@@@V?$allocator@V?$CObj@VCMine@NWorld@@@@@_STL@@@1@@Z
??0?$pair@$$CBVCVec4@@V?$CObj@VIMaterial@NGScene@@@@@_STL@@QAE@ABU01@@Z
??0?$pair@$$CBVCVec4@@V?$CObj@VIMaterial@NGScene@@@@@_STL@@QAE@ABVCVec4@@ABV?$CObj@VIMaterial@NGScene@@@@@Z
??0?$pair@$$CBVCVec4@@V?$list@V?$CPtr@VCSelection@NGScene@@@@V?$allocator@V?$CPtr@VCSelection@NGScene@@@@@_STL@@@_STL@@@_STL@@QAE@ABU01@@Z
??0?$pair@$$CBVCVec4@@V?$list@V?$CPtr@VCSelection@NGScene@@@@V?$allocator@V?$CPtr@VCSelection@NGScene@@@@@_STL@@@_STL@@@_STL@@QAE@ABVCVec4@@ABV?$list@V?$CPtr@VCSelection@NGScene@@@@V?$allocator@V?$CPtr@VCSelection@NGScene@@@@@_STL@@@1@@Z
??0?$pair@$$CBW4_D3DFORMAT@@V?$CPtr@VCSurfaceRing@NGfx@@@@@_STL@@QAE@ABU01@@Z
??0?$pair@$$CBW4_D3DFORMAT@@V?$CPtr@VCSurfaceRing@NGfx@@@@@_STL@@QAE@ABW4_D3DFORMAT@@ABV?$CPtr@VCSurfaceRing@NGfx@@@@@Z
??0?$pair@HM@_STL@@QAE@ABHABM@Z
??0?$pair@HM@_STL@@QAE@ABU01@@Z
??0?$pair@HV?$CNodeMap@USSolidElement@NBuilding@@@NBuilding@@@_STL@@QAE@ABHABV?$CNodeMap@USSolidElement@NBuilding@@@NBuilding@@@Z
??0?$pair@QBVtype_info@@H@_STL@@QAE@ABQBVtype_info@@ABH@Z
??0?$pair@QBVtype_info@@H@_STL@@QAE@ABU01@@Z
??0?$pair@U?$_Ht_iterator@U?$pair@$$CBHV?$CNodeMap@USSolidElement@NBuilding@@@NBuilding@@@_STL@@U?$_Nonconst_traits@U?$pair@$$CBHV?$CNodeMap@USSolidElement@NBuilding@@@NBuilding@@@_STL@@@2@HU?$hash@H@2@U?$_Select1st@U?$pair@$$CBHV?$CNodeMap@USSolidElement@NBuilding@@@NBuilding@@@_STL@@@2@U?$equal_to@H@2@V?$allocator@U?$pair@$$CBHV?$CNodeMap@USSolidElement@NBuilding@@@NBuilding@@@_STL@@@2@@_STL@@_N@_STL@@QAE@ABU?$_Ht_iterator@U?$pair@$$CBHV?$CNodeMap@USSolidElement@NBuilding@@@NBuilding@@@_STL@@U?$_Nonconst_traits@U?$pair@$$CBHV?$CNodeMap@USSolidElement@NBuilding@@@NBuilding@@@_STL@@@2@HU?$hash@H@2@U?$_Select1st@U?$pair@$$CBHV?$CNodeMap@USSolidElement@NBuilding@@@NBuilding@@@_STL@@@2@U?$equal_to@H@2@V?$allocator@U?$pair@$$CBHV?$CNodeMap@USSolidElement@NBuilding@@@NBuilding@@@_STL@@@2@@1@AB_N@Z
??0?$pair@V?$CPtr@VCWindow@NUI@@@@USWindow@CLoader@NUI@@@_STL@@QAE@ABU01@@Z
??0?$pair@V?$CPtr@VCWindow@NUI@@@@USWindow@CLoader@NUI@@@_STL@@QAE@ABV?$CPtr@VCWindow@NUI@@@@ABUSWindow@CLoader@NUI@@@Z
??0?$pair@V?$CPtr@VCWindow@NUI@@@@USWindow@CLoader@NUI@@@_STL@@QAE@XZ
??0?$pointer_to_unary_function@HH@_STL@@QAE@P6IHH@Z@Z
??0?$reverse_bidirectional_iterator@U?$_List_iterator@USConsoleLine@@U?$_Nonconst_traits@USConsoleLine@@@_STL@@@_STL@@USConsoleLine@@AAU3@PAU3@H@_STL@@QAE@ABV01@@Z
??0?$reverse_bidirectional_iterator@U?$_List_iterator@USConsoleLine@@U?$_Nonconst_traits@USConsoleLine@@@_STL@@@_STL@@USConsoleLine@@AAU3@PAU3@H@_STL@@QAE@U?$_List_iterator@USConsoleLine@@U?$_Nonconst_traits@USConsoleLine@@@_STL@@@1@@Z
??0?$reverse_bidirectional_iterator@U?$_List_iterator@V?$CObj@VCDesktopWindow@NUI@@@@U?$_Nonconst_traits@V?$CObj@VCDesktopWindow@NUI@@@@@_STL@@@_STL@@V?$CObj@VCDesktopWindow@NUI@@@@AAV3@PAV3@H@_STL@@QAE@ABV01@@Z
??0?$reverse_bidirectional_iterator@U?$_List_iterator@V?$CObj@VCDesktopWindow@NUI@@@@U?$_Nonconst_traits@V?$CObj@VCDesktopWindow@NUI@@@@@_STL@@@_STL@@V?$CObj@VCDesktopWindow@NUI@@@@AAV3@PAV3@H@_STL@@QAE@U?$_List_iterator@V?$CObj@VCDesktopWindow@NUI@@@@U?$_Nonconst_traits@V?$CObj@VCDesktopWindow@NUI@@@@@_STL@@@1@@Z
??0?$reverse_bidirectional_iterator@U?$_List_iterator@V?$CObj@VIAILogRecord@NAI@@@@U?$_Nonconst_traits@V?$CObj@VIAILogRecord@NAI@@@@@_STL@@@_STL@@V?$CObj@VIAILogRecord@NAI@@@@AAV3@PAV3@H@_STL@@QAE@U?$_List_iterator@V?$CObj@VIAILogRecord@NAI@@@@U?$_Nonconst_traits@V?$CObj@VIAILogRecord@NAI@@@@@_STL@@@1@@Z
??0?$reverse_bidirectional_iterator@U?$_List_iterator@V?$CPtr@VCWindow@NUI@@@@U?$_Nonconst_traits@V?$CPtr@VCWindow@NUI@@@@@_STL@@@_STL@@V?$CPtr@VCWindow@NUI@@@@AAV3@PAV3@H@_STL@@QAE@ABV01@@Z
??0?$reverse_bidirectional_iterator@U?$_List_iterator@V?$CPtr@VCWindow@NUI@@@@U?$_Nonconst_traits@V?$CPtr@VCWindow@NUI@@@@@_STL@@@_STL@@V?$CPtr@VCWindow@NUI@@@@AAV3@PAV3@H@_STL@@QAE@U?$_List_iterator@V?$CPtr@VCWindow@NUI@@@@U?$_Nonconst_traits@V?$CPtr@VCWindow@NUI@@@@@_STL@@@1@@Z
??0?$reverse_iterator@PAV?$CObj@VIAIControl@NAI@@@@V1@AAV1@PAV1@H@_STL@@QAE@PAV?$CObj@VIAIControl@NAI@@@@@Z
??0A5ScriptInit@@QAE@XZ
??0C2DGameView@NGScene@@QAE@ABV01@@Z
??0C2DGameView@NGScene@@QAE@XZ
??0C2DGameViewRegister0xF1741142@@QAE@XZ
??0C2DQuadsRenderer@NGfx@@QAE@ABVCRenderContext@1@ABVCVec2@@H@Z
??0C2DQuadsRenderer@NGfx@@QAE@XZ
??0C2DScene@NGScene@@QAE@XZ
??0C2DSceneRegister0xF2005171@@QAE@XZ
??0C3DSound@NWorld@@QAE@ABVCVec3@@PAVCSound@NDb@@@Z
??0C3DSound@NWorld@@QAE@PAV?$CFuncBase@VCVec3@@@@PAVCSound@NDb@@@Z
??0C3DSound@NWorld@@QAE@XZ
??0C3DSoundRegister0x01512121@@QAE@XZ
??0CAAdder@NAnimation@@QAE@ABV01@@Z
??0CAAdder@NAnimation@@QAE@XZ
??0CAAdderRegister0x11931180@@QAE@XZ
??0CABoneFilter@NAnimation@@QAE@ABV01@@Z
??0CABoneFilter@NAnimation@@QAE@XZ
??0CABoneFilterRegister0x130A1190@@QAE@XZ
??0CAFunction@NAnimation@@QAE@XZ
??0CAFunctionConstant@NAnimation@@QAE@M@Z
??0CAFunctionConstantRegister0x01321153@@QAE@XZ
??0CAFunctionCos@NAnimation@@QAE@XZ
??0CAFunctionCosRegister0x11451161@@QAE@XZ
??0CAFunctionLinear@NAnimation@@QAE@KKMM@Z
??0CAFunctionLinear@NAnimation@@QAE@XZ
??0CAFunctionLinearRegister0x01321151@@QAE@XZ
??0CAFunctionParabola@NAnimation@@QAE@KK@Z
??0CAFunctionParabola@NAnimation@@QAE@XZ
??0CAFunctionParabolaRegister0x01321160@@QAE@XZ
??0CAFunctionPathDirection@NAnimation@@QAE@ABV01@@Z
??0CAFunctionPathDirection@NAnimation@@QAE@KKPAVCPathInterpolator@1@@Z
??0CAFunctionPathDirection@NAnimation@@QAE@XZ
??0CAFunctionPathDirectionRegister0x11871142@@QAE@XZ
??0CAFunctionSinus@NAnimation@@QAE@KK@Z
??0CAFunctionSinus@NAnimation@@QAE@XZ
??0CAFunctionSinusRegister0x01321152@@QAE@XZ
??0CAFunctionSum@NAnimation@@QAE@ABV01@@Z
??0CAFunctionSum@NAnimation@@QAE@PAVCAFunction@1@0@Z
??0CAFunctionSum@NAnimation@@QAE@XZ
??0CAFunctionSumRegister0x11871141@@QAE@XZ
??0CAIAction@NAI@@QAE@PAVIAIState@1@@Z
??0CAIAction@NAI@@QAE@XZ
??0CAIActionIterator@NAI@@QAE@PAVIAIState@1@H@Z
??0CAIActionIterator@NAI@@QAE@XZ
??0CAIActionIteratorRegister0x50662180@@QAE@XZ
??0CAIChoosePlaceForActionsJob@NAI@@QAE@ABV01@@Z
??0CAIChoosePlaceForActionsJob@NAI@@QAE@ABV?$vector@V?$CPtr@VCAIAction@NAI@@@@V?$allocator@V?$CPtr@VCAIAction@NAI@@@@@_STL@@@_STL@@PAVCAIJob@1@@Z
??0CAIChoosePlaceForActionsJob@NAI@@QAE@XZ
??0CAIChoosePlaceForActionsJobRegister0x51313170@@QAE@XZ
??0CAICommander@NAI@@QAE@ABV01@@Z
??0CAICommander@NAI@@QAE@PAVCWorld@NWorld@@PAVCPlayer@3@@Z
??0CAICommander@NAI@@QAE@XZ
??0CAICommanderRegister0x02731170@@QAE@XZ
??0CAIControl@NAI@@QAE@ABV01@@Z
??0CAIControl@NAI@@QAE@PAVCAICommander@1@PAVIAIUnit@1@W4EAIControlType@1@W4EAIManager@1@@Z
??0CAIControl@NAI@@QAE@XZ
??0CAICorpseSignal@NAI@@QAE@ABV01@@Z
??0CAICorpseSignal@NAI@@QAE@PAVCUnitServer@NWorld@@@Z
??0CAICorpseSignal@NAI@@QAE@XZ
??0CAICorpseSignalRegister0x50372170@@QAE@XZ
??0CAIFindGoodPlacesJob@NAI@@QAE@ABV01@@Z
??0CAIFindGoodPlacesJob@NAI@@QAE@PAVIAIUnit@1@0HPAVCAIJob@1@@Z
??0CAIFindGoodPlacesJob@NAI@@QAE@XZ
??0CAIFindGoodPlacesJobRegister0x51313140@@QAE@XZ
??0CAIFireArmsWeapon@NAI@@QAE@ABV01@@Z
??0CAIFireArmsWeapon@NAI@@QAE@PAVIAIUnit@1@PAVCWeaponItem@NRPG@@@Z
??0CAIFireArmsWeapon@NAI@@QAE@XZ
??0CAIFireArmsWeaponClip@NAI@@QAE@ABV01@@Z
??0CAIFireArmsWeaponClip@NAI@@QAE@PAVCClipItem@NRPG@@@Z
??0CAIFireArmsWeaponClip@NAI@@QAE@XZ
??0CAIFireArmsWeaponClipRegister0x52942120@@QAE@XZ
??0CAIFireArmsWeaponRegister0x52642100@@QAE@XZ
??0CAIGeometryConverter@NGScene@@QAE@ABV01@@Z
??0CAIGeometryConverter@NGScene@@QAE@HABV?$vector@HV?$allocator@H@_STL@@@_STL@@@Z
??0CAIGeometryConverter@NGScene@@QAE@XZ
??0CAIGeometryConverterRegister0x020a2171@@QAE@XZ
??0CAIGrenadeSoundSignal@NAI@@QAE@VCVec3@@@Z
??0CAIGrenadeSoundSignal@NAI@@QAE@XZ
??0CAIGrenadeSoundSignalRegister0x51962130@@QAE@XZ
??0CAIGrenadeWeapon@NAI@@QAE@PAVCGrenadeItem@NRPG@@@Z
??0CAIGrenadeWeapon@NAI@@QAE@XZ
??0CAIGrenadeWeaponRegister0x52942121@@QAE@XZ
??0CAIHitSignal@NAI@@QAE@ABV01@@Z
??0CAIHitSignal@NAI@@QAE@PAVIUnitMissionInfo@NRPG@@0@Z
??0CAIHitSignal@NAI@@QAE@XZ
??0CAIHitSignalRegister0x52662180@@QAE@XZ
??0CAIInventory@NAI@@QAE@ABV01@@Z
??0CAIInventory@NAI@@QAE@PAVIAIUnit@1@@Z
??0CAIInventory@NAI@@QAE@XZ
??0CAIInventoryRegister0x52642102@@QAE@XZ
??0CAIIterator@NAI@@QAE@ABV01@@Z
??0CAIIterator@NAI@@QAE@PAVIAIState@1@@Z
??0CAIIterator@NAI@@QAE@XZ
??0CAIJob@NAI@@QAE@ABV01@@Z
??0CAIJob@NAI@@QAE@PAVIAIJob@1@@Z
??0CAIJobManager@NAI@@QAE@ABV01@@Z
??0CAIJobManager@NAI@@QAE@M@Z
??0CAIJobManager@NAI@@QAE@XZ
??0CAIJobManagerRegister0x52442120@@QAE@XZ
??0CAIK2Chain@NAnimation@@QAE@ABV01@@Z
??0CAIK2Chain@NAnimation@@QAE@XZ
??0CAIK2ChainRegister0x12021130@@QAE@XZ
??0CAILaunchRocketAction@NAI@@QAE@PAVIAIState@1@@Z
??0CAILaunchRocketAction@NAI@@QAE@XZ
??0CAILaunchRocketActionRegister0x51413180@@QAE@XZ
??0CAILogAddWeapon@NAI@@QAE@ABV01@@Z
??0CAILogAddWeapon@NAI@@QAE@PAVIAIUnit@1@PAVCAIFireArmsWeapon@1@@Z
??0CAILogAddWeapon@NAI@@QAE@XZ
??0CAILogAddWeaponClip@NAI@@QAE@ABV01@@Z
??0CAILogAddWeaponClip@NAI@@QAE@PAVIAIUnit@1@PAVCAIFireArmsWeapon@1@PAVCAIFireArmsWeaponClip@1@@Z
??0CAILogAddWeaponClip@NAI@@QAE@XZ
??0CAILogAddWeaponClipRegister0x51362143@@QAE@XZ
??0CAILogAddWeaponRegister0x51362142@@QAE@XZ
??0CAILogChangeMaxToHit@NAI@@QAE@ABV01@@Z
??0CAILogChangeMaxToHit@NAI@@QAE@PAVIAIUnit@1@H@Z
??0CAILogChangeMaxToHit@NAI@@QAE@XZ
??0CAILogChangeMaxToHitRegister0x50972130@@QAE@XZ
??0CAILogChangeShootMode@NAI@@QAE@ABV01@@Z
??0CAILogChangeShootMode@NAI@@QAE@PAVIAIUnit@1@PAVCAIFireArmsWeapon@1@W4EShootMode@NDb@@@Z
??0CAILogChangeShootMode@NAI@@QAE@XZ
??0CAILogChangeShootModeRegister0x50872131@@QAE@XZ
??0CAILogChangeWeapon@NAI@@QAE@ABV01@@Z
??0CAILogChangeWeapon@NAI@@QAE@PAVIAIUnit@1@PAVIAIInventoryItem@1@@Z
??0CAILogChangeWeapon@NAI@@QAE@XZ
??0CAILogChangeWeaponRegister0x50732171@@QAE@XZ
??0CAILogContainer@NAI@@QAE@XZ
??0CAILogContainerRegister0x52822121@@QAE@XZ
??0CAILogDropItem@NAI@@QAE@ABV01@@Z
??0CAILogDropItem@NAI@@QAE@PAVIAIUnit@1@PAVIInventoryItem@NRPG@@@Z
??0CAILogDropItem@NAI@@QAE@XZ
??0CAILogDropItemRegister0x51362145@@QAE@XZ
??0CAILogExpediency@NAI@@QAE@ABV01@@Z
??0CAILogExpediency@NAI@@QAE@PAVIAIUnit@1@H@Z
??0CAILogExpediency@NAI@@QAE@XZ
??0CAILogExpediencyRegister0x50172150@@QAE@XZ
??0CAILogHide@NAI@@QAE@PAVIAIUnit@1@@Z
??0CAILogHide@NAI@@QAE@XZ
??0CAILogHideRegister0x52612110@@QAE@XZ
??0CAILogHurt@NAI@@QAE@ABV01@@Z
??0CAILogHurt@NAI@@QAE@PAVIAIUnit@1@H@Z
??0CAILogHurt@NAI@@QAE@XZ
??0CAILogHurtRegister0x51362147@@QAE@XZ
??0CAILogPickUpItem@NAI@@QAE@ABV01@@Z
??0CAILogPickUpItem@NAI@@QAE@PAVIAIUnit@1@PAVIInventoryItem@NRPG@@@Z
??0CAILogPickUpItem@NAI@@QAE@XZ
??0CAILogPickUpItemRegister0x51362144@@QAE@XZ
??0CAILogPosition@NAI@@QAE@ABV01@@Z
??0CAILogPosition@NAI@@QAE@PAVIAIUnit@1@USPosition@1@1W4EPose@1@@Z
??0CAILogPosition@NAI@@QAE@XZ
??0CAILogPositionRegister0x52822122@@QAE@XZ
??0CAILogRecord@NAI@@QAE@PAVIAIUnit@1@@Z
??0CAILogRecord@NAI@@QAE@XZ
??0CAILogReloadWeapon@NAI@@QAE@ABV01@@Z
??0CAILogReloadWeapon@NAI@@QAE@PAVIAIUnit@1@PAVCAIFireArmsWeapon@1@@Z
??0CAILogReloadWeapon@NAI@@QAE@XZ
??0CAILogReloadWeaponRegister0x50732170@@QAE@XZ
??0CAILogShot@NAI@@QAE@ABV01@@Z
??0CAILogShot@NAI@@QAE@PAVIAIUnit@1@0W4EHitLocation@1@@Z
??0CAILogShot@NAI@@QAE@XZ
??0CAILogShotPoint@NAI@@QAE@PAVIAIUnit@1@VCVec3@@@Z
??0CAILogShotPoint@NAI@@QAE@XZ
??0CAILogShotPointRegister0x51413190@@QAE@XZ
??0CAILogShotRegister0x52822127@@QAE@XZ
??0CAILogSpendAP@NAI@@QAE@ABV01@@Z
??0CAILogSpendAP@NAI@@QAE@PAVIAIUnit@1@H@Z
??0CAILogSpendAP@NAI@@QAE@XZ
??0CAILogSpendAPRegister0x52822125@@QAE@XZ
??0CAILogSpendAmmo@NAI@@QAE@ABV01@@Z
??0CAILogSpendAmmo@NAI@@QAE@PAVCAIFireArmsWeaponClip@1@H@Z
??0CAILogSpendAmmo@NAI@@QAE@XZ
??0CAILogSpendAmmoRegister0x51362146@@QAE@XZ
??0CAILogSpendHP@NAI@@QAE@ABV01@@Z
??0CAILogSpendHP@NAI@@QAE@PAVIAIUnit@1@H@Z
??0CAILogSpendHP@NAI@@QAE@XZ
??0CAILogSpendHPRegister0x52822126@@QAE@XZ
??0CAILogThrowGrenade@NAI@@QAE@ABV01@@Z
??0CAILogThrowGrenade@NAI@@QAE@PAVIAIUnit@1@VCVec3@@PAVCAIGrenadeWeapon@1@@Z
??0CAILogThrowGrenade@NAI@@QAE@XZ
??0CAILogThrowGrenadeRegister0x50732172@@QAE@XZ
??0CAILogic@NAI@@QAE@ABV01@@Z
??0CAILogic@NAI@@QAE@PAVIAIState@1@PAVIAILogContainer@1@PAVCAIJob@1@@Z
??0CAILogic@NAI@@QAE@XZ
??0CAILogicAttack@NAI@@QAE@ABV01@@Z
??0CAILogicAttack@NAI@@QAE@PAVIAIState@1@PAVIAILogContainer@1@PAVCAIJob@1@@Z
??0CAILogicAttack@NAI@@QAE@XZ
??0CAILogicAttackRegister0x51013110@@QAE@XZ
??0CAIMap@NAI@@QAE@ABV01@@Z
??0CAIMap@NAI@@QAE@PAVIWorld@NWorld@@@Z
??0CAIMap@NAI@@QAE@XZ
??0CAIMapRegister0x02911000@@QAE@XZ
??0CAINumberIterator@NAI@@QAE@PAVIAIState@1@H@Z
??0CAINumberIterator@NAI@@QAE@XZ
??0CAIOneSegmentSignal@NAI@@QAE@PAVIAIUnit@1@VCVec3@@@Z
??0CAIOneSegmentSignal@NAI@@QAE@XZ
??0CAIPathAPCalcer@NAI@@QAE@PAVCWorld@NWorld@@PAVIUnitMission@NRPG@@ABUSUnitPosition@1@_N@Z
??0CAIPlayer@NAI@@QAE@ABV01@@Z
??0CAIPlayer@NAI@@QAE@PAVIAIState@1@@Z
??0CAIPlayerRegister0x52822101@@QAE@XZ
??0CAIPositionIterator@NAI@@QAE@ABV01@@Z
??0CAIPositionIterator@NAI@@QAE@PAVIAIState@1@@Z
??0CAIPositionIterator@NAI@@QAE@XZ
??0CAIPositionIteratorRegister0x52822132@@QAE@XZ
??0CAIRevealEnemySignal@NAI@@QAE@VCVec3@@@Z
??0CAIRevealEnemySignal@NAI@@QAE@XZ
??0CAIRevealEnemySignalRegister0x52062130@@QAE@XZ
??0CAIRoute@NAI@@QAE@ABV?$vector@V?$CPtr@VCAIRouteWaypoint@NAI@@@@V?$allocator@V?$CPtr@VCAIRouteWaypoint@NAI@@@@@_STL@@@_STL@@@Z
??0CAIRoute@NAI@@QAE@PAVCWorld@NWorld@@ABV?$vector@V?$CPtr@VCMapWaypoint@@@@V?$allocator@V?$CPtr@VCMapWaypoint@@@@@_STL@@@_STL@@@Z
??0CAIRoute@NAI@@QAE@XZ
??0CAIRouteRegister0x52402110@@QAE@XZ
??0CAIRouteWaypoint@NAI@@QAE@ABV01@@Z
??0CAIRouteWaypoint@NAI@@QAE@PAVIPathNetwork@1@PAVCMapWaypoint@@@Z
??0CAIRouteWaypoint@NAI@@QAE@XZ
??0CAIRouteWaypointRegister0x52402111@@QAE@XZ
??0CAIShootAction@NAI@@QAE@PAVIAIState@1@@Z
??0CAIShootAction@NAI@@QAE@XZ
??0CAIShootActionRegister0x51313110@@QAE@XZ
??0CAIShootSignal@NAI@@QAE@ABV01@@Z
??0CAIShootSignal@NAI@@QAE@PAVCUnitServer@NWorld@@ABVCRay@@@Z
??0CAIShootSignal@NAI@@QAE@XZ
??0CAIShootSignalRegister0x50372050@@QAE@XZ
??0CAISignal@NAI@@QAE@ABV01@@Z
??0CAISignal@NAI@@QAE@PAVIAIUnit@1@VCVec3@@@Z
??0CAISignal@NAI@@QAE@XZ
??0CAISignalManager@NAI@@QAE@ABV01@@Z
??0CAISignalManager@NAI@@QAE@PAVCWorld@NWorld@@@Z
??0CAISignalManagerRegister0x51962150@@QAE@XZ
??0CAISkinObjectConverter@NGScene@@QAE@ABV01@@Z
??0CAISkinObjectConverter@NGScene@@QAE@XZ
??0CAISkinObjectConverterRegister0x023a2110@@QAE@XZ
??0CAISoundSignal@NAI@@QAE@VCVec3@@PAVCUnitServer@NWorld@@M@Z
??0CAISoundSignal@NAI@@QAE@XZ
??0CAISoundSignalRegister0x52662020@@QAE@XZ
??0CAIState@NAI@@QAE@ABV01@@Z
??0CAIState@NAI@@QAE@PAVCWorld@NWorld@@PAVCAITacticalCommander@1@@Z
??0CAIState@NAI@@QAE@XZ
??0CAIStateRegister0x52822120@@QAE@XZ
??0CAITacticalCommander@NAI@@QAE@ABV01@@Z
??0CAITacticalCommander@NAI@@QAE@PAVCAICommander@1@@Z
??0CAITacticalCommander@NAI@@QAE@XZ
??0CAITacticalCommanderRegister0x51422140@@QAE@XZ
??0CAITacticalControl@NAI@@QAE@PAVCAICommander@1@PAVIAIUnit@1@W4EAIManager@1@@Z
??0CAITacticalControl@NAI@@QAE@XZ
??0CAITacticalControlRegister0x52662100@@QAE@XZ
??0CAITaskCommander@NAI@@QAE@ABV01@@Z
??0CAITaskCommander@NAI@@QAE@PAVCAICommander@1@@Z
??0CAITaskCommander@NAI@@QAE@XZ
??0CAITaskCommanderRegister0x51222140@@QAE@XZ
??0CAITaskControl@NAI@@QAE@ABV01@@Z
??0CAITaskControl@NAI@@QAE@PAVCAICommander@1@PAVCTask@1@W4EAIControlType@1@W4EAIManager@1@@Z
??0CAITaskControl@NAI@@QAE@XZ
??0CAITaskControlRegister0x52662101@@QAE@XZ
??0CAIThrowGrenadeAction@NAI@@QAE@PAVIAIState@1@@Z
??0CAIThrowGrenadeAction@NAI@@QAE@XZ
??0CAIThrowGrenadeActionRegister0x51313120@@QAE@XZ
??0CAIUnit@NAI@@QAE@ABV01@@Z
??0CAIUnit@NAI@@QAE@PAVCUnitServer@NWorld@@_N@Z
??0CAIUnit@NAI@@QAE@XZ
??0CAIUnitIterator@NAI@@QAE@PAVIAIState@1@@Z
??0CAIUnitIterator@NAI@@QAE@XZ
??0CAIUnitIteratorRegister0x52822131@@QAE@XZ
??0CAIUnitNoWeaponToHitCalcer@NRPG@@QAE@PAVIAIUnit@NAI@@0@Z
??0CAIUnitNoWeaponToHitCalcer@NRPG@@QAE@XZ
??0CAIUnitNoWeaponToHitCalcerRegister0x51462140@@QAE@XZ
??0CAIUnitRegister0x52822100@@QAE@XZ
??0CAIUnitSoundSignal@NAI@@QAE@ABV01@@Z
??0CAIUnitSoundSignal@NAI@@QAE@PAVCUnitServer@NWorld@@0M@Z
??0CAIUnitSoundSignal@NAI@@QAE@XZ
??0CAIUnitSoundSignalRegister0x52662181@@QAE@XZ
??0CAIUnitToHitCalcer@NRPG@@QAE@PAVIAIUnit@NAI@@ABUSUnitPosition@3@0HW4EHitLocation@3@HPAVIInventoryItem@1@H@Z
??0CAIUnitToHitCalcer@NRPG@@QAE@XZ
??0CAIUnitToHitCalcerRegister0x51262180@@QAE@XZ
??0CAIViewer@@QAE@ABV0@@Z
??0CAIViewer@@QAE@PAVIPathNetwork@NAI@@PAVIVisionTracker@NRPG@@@Z
??0CAIViewerRegister0x02911174@@QAE@XZ
??0CAInterpolator@NAnimation@@QAE@ABV01@@Z
??0CAInterpolator@NAnimation@@QAE@XZ
??0CAInterpolatorRegister0x01321156@@QAE@XZ
??0CAPCritical@NRPG@@QAE@ABUSCritical@1@@Z
??0CAPCritical@NRPG@@QAE@XZ
??0CAPCriticalRegister0xA0812160@@QAE@XZ
??0CAParticle@NAnimation@@QAE@ABV01@@Z
??0CAParticle@NAnimation@@QAE@XZ
??0CAPoseAimer@NAnimation@@QAE@ABV01@@Z
??0CAPoseAimer@NAnimation@@QAE@XZ
??0CAPoseAimerRegister0x11941152@@QAE@XZ
??0CAPoseMemorizer@NAnimation@@QAE@ABV01@@Z
??0CAPoseMemorizer@NAnimation@@QAE@XZ
??0CAPoseMemorizerRegister0x11941151@@QAE@XZ
??0CARandom@NAnimation@@QAE@ABV01@@Z
??0CARandom@NAnimation@@QAE@H@Z
??0CARandomRegister0x123c1191@@QAE@XZ
??0CASequence@NAnimation@@QAE@ABV01@@Z
??0CASequence@NAnimation@@QAE@XZ
??0CASequenceRegister0x01321154@@QAE@XZ
??0CASmartAimer@NAnimation@@QAE@ABV01@@Z
??0CASmartAimer@NAnimation@@QAE@XZ
??0CASmartAimerRegister0x10722130@@QAE@XZ
??0CASphereSet@NAnimation@@QAE@ABV01@@Z
??0CASphereSet@NAnimation@@QAE@H@Z
??0CASphereSetRegister0x11081181@@QAE@XZ
??0CASubtractor@NAnimation@@QAE@ABV01@@Z
??0CASubtractor@NAnimation@@QAE@XZ
??0CASubtractorRegister0x11931181@@QAE@XZ
??0CATerrain@NAnimation@@QAE@ABV01@@Z
??0CATerrain@NAnimation@@QAE@XZ
??0CATerrainCrawl@NAnimation@@QAE@ABV01@@Z
??0CATerrainCrawl@NAnimation@@QAE@XZ
??0CATerrainCrawlRegister0x11651142@@QAE@XZ
??0CATerrainRegister0x11651140@@QAE@XZ
??0CATerrainSimple@NAnimation@@QAE@ABV01@@Z
??0CATerrainSimple@NAnimation@@QAE@XZ
??0CATerrainSimpleRegister0x12881190@@QAE@XZ
??0CATrailPath@NAnimation@@QAE@ABV01@@Z
??0CATrailPath@NAnimation@@QAE@XZ
??0CATrailPathRegister0xB1081181@@QAE@XZ
??0CATurnBody@NAnimation@@QAE@ABV01@@Z
??0CATurnBody@NAnimation@@QAE@M@Z
??0CATurnBodyRegister0x11451160@@QAE@XZ
??0CAccidentalShotCritical@NRPG@@QAE@ABUSCritical@1@@Z
??0CAccidentalShotCritical@NRPG@@QAE@XZ
??0CAccidentalShotCriticalRegister0xA2412182@@QAE@XZ
??0CAckAccidentallyWoundFriend@NWorld@@QAE@ABV01@@Z
??0CAckAccidentallyWoundFriend@NWorld@@QAE@PAVCUnitServer@1@PAVCDBAck@NDb@@@Z
??0CAckAccidentallyWoundFriend@NWorld@@QAE@XZ
??0CAckAccidentallyWoundFriendRegister0x52062093@@QAE@XZ
??0CAckBase@NWorld@@QAE@ABV01@@Z
??0CAckBase@NWorld@@QAE@PAVCUnitServer@1@PAVCDBAck@NDb@@@Z
??0CAckBase@NWorld@@QAE@XZ
??0CAckCannotFinishHeal@NWorld@@QAE@ABV01@@Z
??0CAckCannotFinishHeal@NWorld@@QAE@PAVCUnitServer@1@PAVCDBAck@NDb@@@Z
??0CAckCannotFinishHeal@NWorld@@QAE@XZ
??0CAckCannotFinishHealRegister0x52162102@@QAE@XZ
??0CAckCertainTypeEnemyBecomesVisible@NWorld@@QAE@ABV01@@Z
??0CAckCertainTypeEnemyBecomesVisible@NWorld@@QAE@PAVCUnitServer@1@PAVCDBAck@NDb@@@Z
??0CAckCertainTypeEnemyBecomesVisible@NWorld@@QAE@XZ
??0CAckCertainTypeEnemyBecomesVisibleRegister0x52062152@@QAE@XZ
??0CAckEnemyBecomesVisible@NWorld@@QAE@ABV01@@Z
??0CAckEnemyBecomesVisible@NWorld@@QAE@PAVCUnitServer@1@PAVCDBAck@NDb@@@Z
??0CAckEnemyBecomesVisible@NWorld@@QAE@XZ
??0CAckEnemyBecomesVisibleInRealtime@NWorld@@QAE@ABV01@@Z
??0CAckEnemyBecomesVisibleInRealtime@NWorld@@QAE@PAVCUnitServer@1@PAVCDBAck@NDb@@@Z
??0CAckEnemyBecomesVisibleInRealtime@NWorld@@QAE@XZ
??0CAckEnemyBecomesVisibleInRealtimeRegister0x50732150@@QAE@XZ
??0CAckEnemyBecomesVisibleInTurnbased@NWorld@@QAE@ABV01@@Z
??0CAckEnemyBecomesVisibleInTurnbased@NWorld@@QAE@PAVCUnitServer@1@PAVCDBAck@NDb@@@Z
??0CAckEnemyBecomesVisibleInTurnbased@NWorld@@QAE@XZ
??0CAckEnemyBecomesVisibleInTurnbasedRegister0x52912140@@QAE@XZ
??0CAckEnemyBecomesVisibleRegister0x52162050@@QAE@XZ
??0CAckEnemyHasBeenInfictedCritical@NWorld@@QAE@ABV01@@Z
??0CAckEnemyHasBeenInfictedCritical@NWorld@@QAE@XZ
??0CAckEnemyHasBeenInfictedCriticalRegister0x52912145@@QAE@XZ
??0CAckEnemyMissedTarget@NWorld@@QAE@ABV01@@Z
??0CAckEnemyMissedTarget@NWorld@@QAE@PAVCUnitServer@1@PAVCDBAck@NDb@@@Z
??0CAckEnemyMissedTarget@NWorld@@QAE@XZ
??0CAckEnemyMissedTargetRegister0x52162097@@QAE@XZ
??0CAckEvent@NUI@@QAE@XZ
??0CAckEvent@NWorld@@QAE@ABV01@@Z
??0CAckEvent@NWorld@@QAE@HPAVCUnit@1@PAVCDBAckInfo@NDb@@@Z
??0CAckEvent@NWorld@@QAE@XZ
??0CAckEventRegister0xB1228131@@QAE@XZ
??0CAckEventRegister0xB13b1141@@QAE@XZ
??0CAckFriendDies@NWorld@@QAE@ABV01@@Z
??0CAckFriendDies@NWorld@@QAE@PAVCUnitServer@1@PAVCDBAck@NDb@@@Z
??0CAckFriendDies@NWorld@@QAE@XZ
??0CAckFriendDiesRegister0x51232163@@QAE@XZ
??0CAckFriendGrenadeDestroysALotOfObjects@NWorld@@QAE@ABV01@@Z
??0CAckFriendGrenadeDestroysALotOfObjects@NWorld@@QAE@PAVCUnitServer@1@PAVCDBAck@NDb@@@Z
??0CAckFriendGrenadeDestroysALotOfObjects@NWorld@@QAE@XZ
??0CAckFriendGrenadeDestroysALotOfObjectsRegister0x50542190@@QAE@XZ
??0CAckFriendGrenadeKillsMoreThanOneEnemy@NWorld@@QAE@ABV01@@Z
??0CAckFriendGrenadeKillsMoreThanOneEnemy@NWorld@@QAE@PAVCUnitServer@1@PAVCDBAck@NDb@@@Z
??0CAckFriendGrenadeKillsMoreThanOneEnemy@NWorld@@QAE@XZ
??0CAckFriendGrenadeKillsMoreThanOneEnemyRegister0x52032120@@QAE@XZ
??0CAckFriendInflictsCriticalDamageToEnemy@NWorld@@QAE@ABV01@@Z
??0CAckFriendInflictsCriticalDamageToEnemy@NWorld@@QAE@PAVCUnitServer@1@PAVCDBAck@NDb@@@Z
??0CAckFriendInflictsCriticalDamageToEnemy@NWorld@@QAE@XZ
??0CAckFriendInflictsCriticalDamageToEnemyRegister0x52162091@@QAE@XZ
??0CAckFriendTargetMissed@NWorld@@QAE@ABV01@@Z
??0CAckFriendTargetMissed@NWorld@@QAE@PAVCUnitServer@1@PAVCDBAck@NDb@@@Z
??0CAckFriendTargetMissed@NWorld@@QAE@XZ
??0CAckFriendTargetMissedRegister0x50542192@@QAE@XZ
??0CAckGrenadeDestroysALotOfObjects@NWorld@@QAE@ABV01@@Z
??0CAckGrenadeDestroysALotOfObjects@NWorld@@QAE@PAVCUnitServer@1@PAVCDBAck@NDb@@@Z
??0CAckGrenadeDestroysALotOfObjects@NWorld@@QAE@XZ
??0CAckGrenadeDestroysALotOfObjectsRegister0x50542191@@QAE@XZ
??0CAckGrenadeKillsMoreThanOneEnemy@NWorld@@QAE@ABV01@@Z
??0CAckGrenadeKillsMoreThanOneEnemy@NWorld@@QAE@PAVCUnitServer@1@PAVCDBAck@NDb@@@Z
??0CAckGrenadeKillsMoreThanOneEnemy@NWorld@@QAE@XZ
??0CAckGrenadeKillsMoreThanOneEnemyRegister0x52032121@@QAE@XZ
??0CAckHardTargetHit@NWorld@@QAE@ABV01@@Z
??0CAckHardTargetHit@NWorld@@QAE@PAVCUnitServer@1@PAVCDBAck@NDb@@@Z
??0CAckHardTargetHit@NWorld@@QAE@XZ
??0CAckHardTargetHitRegister0x51232161@@QAE@XZ
??0CAckHealOfFriendFinished@NWorld@@QAE@ABV01@@Z
??0CAckHealOfFriendFinished@NWorld@@QAE@PAVCUnitServer@1@PAVCDBAck@NDb@@@Z
??0CAckHealOfFriendFinished@NWorld@@QAE@XZ
??0CAckHealOfFriendFinishedRegister0x52162100@@QAE@XZ
??0CAckIcon@NUI@@QAE@ABUSWindowInfo@1@PAVIMission@NGame@@@Z
??0CAckIcon@NUI@@QAE@XZ
??0CAckIconRegister0xB0241940@@QAE@XZ
??0CAckImpossibleToPerformAction@NWorld@@QAE@ABV01@@Z
??0CAckImpossibleToPerformAction@NWorld@@QAE@PAVCUnitServer@1@PAVCDBAck@NDb@@@Z
??0CAckImpossibleToPerformAction@NWorld@@QAE@XZ
??0CAckImpossibleToPerformActionRegister0x52062092@@QAE@XZ
??0CAckInflictCriticalDamageToEnemy@NWorld@@QAE@ABV01@@Z
??0CAckInflictCriticalDamageToEnemy@NWorld@@QAE@PAVCUnitServer@1@PAVCDBAck@NDb@@@Z
??0CAckInflictCriticalDamageToEnemy@NWorld@@QAE@XZ
??0CAckInflictCriticalDamageToEnemyRegister0x52162090@@QAE@XZ
??0CAckInterruptedEnemy@NWorld@@QAE@ABV01@@Z
??0CAckInterruptedEnemy@NWorld@@QAE@PAVCUnitServer@1@PAVCDBAck@NDb@@@Z
??0CAckInterruptedEnemy@NWorld@@QAE@XZ
??0CAckInterruptedEnemyRegister0x52162098@@QAE@XZ
??0CAckKilledAnEnemy@NWorld@@QAE@ABV01@@Z
??0CAckKilledAnEnemy@NWorld@@QAE@PAVCUnitServer@1@PAVCDBAck@NDb@@@Z
??0CAckKilledAnEnemy@NWorld@@QAE@XZ
??0CAckKilledAnEnemyRegister0x52162093@@QAE@XZ
??0CAckKilledCertainTypeEnemy@NWorld@@QAE@ABV01@@Z
??0CAckKilledCertainTypeEnemy@NWorld@@QAE@PAVCUnitServer@1@PAVCDBAck@NDb@@@Z
??0CAckKilledCertainTypeEnemy@NWorld@@QAE@XZ
??0CAckKilledCertainTypeEnemyRegister0x52162094@@QAE@XZ
??0CAckKillingNthEnemyInARow@NWorld@@QAE@ABV01@@Z
??0CAckKillingNthEnemyInARow@NWorld@@QAE@PAVCUnitServer@1@PAVCDBAck@NDb@@@Z
??0CAckKillingNthEnemyInARow@NWorld@@QAE@XZ
??0CAckKillingNthEnemyInARowRegister0x52162095@@QAE@XZ
??0CAckLastPieceOfAmmo@NWorld@@QAE@ABV01@@Z
??0CAckLastPieceOfAmmo@NWorld@@QAE@PAVCUnitServer@1@PAVCDBAck@NDb@@@Z
??0CAckLastPieceOfAmmo@NWorld@@QAE@XZ
??0CAckLastPieceOfAmmoRegister0x52912141@@QAE@XZ
??0CAckLongBurst@NWorld@@QAE@ABV01@@Z
??0CAckLongBurst@NWorld@@QAE@PAVCUnitServer@1@PAVCDBAck@NDb@@@Z
??0CAckLongBurstRegister0x52122180@@QAE@XZ
??0CAckNthUnitWasKilled@NWorld@@QAE@ABV01@@Z
??0CAckNthUnitWasKilled@NWorld@@QAE@PAVCUnitServer@1@PAVCDBAck@NDb@@@Z
??0CAckNthUnitWasKilled@NWorld@@QAE@XZ
??0CAckNthUnitWasKilledRegister0x52162096@@QAE@XZ
??0CAckOrderConfirmation@NWorld@@QAE@ABV01@@Z
??0CAckOrderConfirmation@NWorld@@QAE@PAVCUnitServer@1@PAVCDBAck@NDb@@@Z
??0CAckOrderConfirmation@NWorld@@QAE@XZ
??0CAckOrderConfirmationRegister0x52062091@@QAE@XZ
??0CAckPCSufferCriticalDamage@NWorld@@QAE@ABV01@@Z
??0CAckPCSufferCriticalDamage@NWorld@@QAE@PAVCUnitServer@1@PAVCDBAck@NDb@@@Z
??0CAckPCSufferCriticalDamage@NWorld@@QAE@XZ
??0CAckPCSufferCriticalDamageRegister0x52162092@@QAE@XZ
??0CAckSelfHealFinished@NWorld@@QAE@ABV01@@Z
??0CAckSelfHealFinished@NWorld@@QAE@PAVCUnitServer@1@PAVCDBAck@NDb@@@Z
??0CAckSelfHealFinished@NWorld@@QAE@XZ
??0CAckSelfHealFinishedRegister0x52162101@@QAE@XZ
??0CAckSkillIncreased@NWorld@@QAE@ABV01@@Z
??0CAckSkillIncreased@NWorld@@QAE@PAVCUnitServer@1@PAVCDBAck@NDb@@@Z
??0CAckSkillIncreased@NWorld@@QAE@XZ
??0CAckSkillIncreasedRegister0x52162099@@QAE@XZ
??0CAckStrongEnemyBecomesVisible@NWorld@@QAE@ABV01@@Z
??0CAckStrongEnemyBecomesVisible@NWorld@@QAE@PAVCUnitServer@1@PAVCDBAck@NDb@@@Z
??0CAckStrongEnemyBecomesVisible@NWorld@@QAE@XZ
??0CAckStrongEnemyBecomesVisibleRegister0x52062151@@QAE@XZ
??0CAckSuffersHardDamage@NWorld@@QAE@ABV01@@Z
??0CAckSuffersHardDamage@NWorld@@QAE@PAVCUnitServer@1@PAVCDBAck@NDb@@@Z
??0CAckSuffersHardDamage@NWorld@@QAE@XZ
??0CAckSuffersHardDamageRegister0x52912143@@QAE@XZ
??0CAckSuffersLightDamage@NWorld@@QAE@ABV01@@Z
??0CAckSuffersLightDamage@NWorld@@QAE@PAVCUnitServer@1@PAVCDBAck@NDb@@@Z
??0CAckSuffersLightDamage@NWorld@@QAE@XZ
??0CAckSuffersLightDamageRegister0x52912142@@QAE@XZ
??0CAckTargetHit@NWorld@@QAE@ABV01@@Z
??0CAckTargetHit@NWorld@@QAE@PAVCUnitServer@1@PAVCDBAck@NDb@@@Z
??0CAckTargetHit@NWorld@@QAE@XZ
??0CAckTargetHitRegister0x51232160@@QAE@XZ
??0CAckTargetMissed@NWorld@@QAE@ABV01@@Z
??0CAckTargetMissed@NWorld@@QAE@PAVCUnitServer@1@PAVCDBAck@NDb@@@Z
??0CAckTargetMissed@NWorld@@QAE@XZ
??0CAckTargetMissedRegister0x51232162@@QAE@XZ
??0CAckUnhide@NWorld@@QAE@ABV01@@Z
??0CAckUnhide@NWorld@@QAE@PAVCUnitServer@1@PAVCDBAck@NDb@@@Z
??0CAckUnhideRegister0x52122181@@QAE@XZ
??0CAckUnitDied@NWorld@@QAE@ABV01@@Z
??0CAckUnitDied@NWorld@@QAE@PAVCUnitServer@1@PAVCDBAck@NDb@@@Z
??0CAckUnitDied@NWorld@@QAE@XZ
??0CAckUnitDiedRegister0x52912144@@QAE@XZ
??0CAckWeakEnemyBecomesVisible@NWorld@@QAE@ABV01@@Z
??0CAckWeakEnemyBecomesVisible@NWorld@@QAE@PAVCUnitServer@1@PAVCDBAck@NDb@@@Z
??0CAckWeakEnemyBecomesVisible@NWorld@@QAE@XZ
??0CAckWeakEnemyBecomesVisibleRegister0x52062150@@QAE@XZ
??0CAckWeaponJammed@NWorld@@QAE@ABV01@@Z
??0CAckWeaponJammed@NWorld@@QAE@PAVCUnitServer@1@PAVCDBAck@NDb@@@Z
??0CAckWeaponJammed@NWorld@@QAE@XZ
??0CAckWeaponJammedRegister0x52062090@@QAE@XZ
??0CActionCounter@NWorld@@QAE@XZ
??0CActionCounterRegister0x013b1140@@QAE@XZ
??0CAddBoneFilter@NAnimation@@QAE@ABV01@@Z
??0CAddBoneFilter@NAnimation@@QAE@PAV?$CFuncBase@V?$vector@USBonePose@NAnimation@@V?$allocator@USBonePose@NAnimation@@@_STL@@@_STL@@@@H@Z
??0CAddBoneFilter@NAnimation@@QAE@XZ
??0CAddBoneFilterRegister0x10441190@@QAE@XZ
??0CAddBoneLocators@NAnimation@@QAE@ABV01@@Z
??0CAddBoneLocators@NAnimation@@QAE@HPAVCGeometry@NDb@@@Z
??0CAddBoneLocators@NAnimation@@QAE@XZ
??0CAddBoneLocatorsRegister0x13051130@@QAE@XZ
??0CAlienMaterial@NGScene@@QAE@PAV?$CPtrFuncBase@VCCubeTexture@NGfx@@@@@Z
??0CAlienMaterial@NGScene@@QAE@XZ
??0CAlienMaterialRegister0x023A2180@@QAE@XZ
??0CAlphaSqrtEffect@NGfx@@QAE@M@Z
??0CAmmoItem@NRPG@@QAE@ABV01@@Z
??0CAmmoItem@NRPG@@QAE@PAVCRPGAmmo@NDb@@@Z
??0CAmmoItemRegister0xE10A1142@@QAE@XZ
??0CAnimLight@NGScene@@QAE@XZ
??0CAnimLightInfo@NGScene@@QAE@ABV01@@Z
??0CAnimLightInfo@NGScene@@QAE@XZ
??0CAnimObjectServer@NWorld@@QAE@PAVCWorld@1@ABUSObjectPlace@1@_NPAVCObject@NDb@@PAVIObject@NRPG@@PAV?$CFuncBase@K@@ABV?$vector@HV?$allocator@H@_STL@@@_STL@@@Z
??0CAnimObjectServer@NWorld@@QAE@XZ
??0CAnimObjectServerBase@NWorld@@QAE@PAVCWorld@1@ABUSObjectPlace@1@_NPAVCObject@NDb@@PAVIObject@NRPG@@PAV?$CFuncBase@K@@ABV?$vector@HV?$allocator@H@_STL@@@_STL@@@Z
??0CAnimObjectServerBase@NWorld@@QAE@XZ
??0CAnimObjectServerRegister0x11122120@@QAE@XZ
??0CAnimPassageObject@NWorld@@QAE@PAVCWorld@1@ABUSObjectPlace@1@_NPAVCObject@NDb@@PAVIObject@NRPG@@PAV?$CFuncBase@K@@HHHABV?$vector@HV?$allocator@H@_STL@@@_STL@@@Z
??0CAnimPassageObject@NWorld@@QAE@XZ
??0CAnimPassageObjectRegister0x51892141@@QAE@XZ
??0CAnimUnitView@NUI@@QAE@ABUSWindowInfo@1@PAVIRenderGame@NRender@@HPAVCDBCamera@NDb@@@Z
??0CAnimUnitView@NUI@@QAE@XZ
??0CAnimUnitViewRegister0xB14b2180@@QAE@XZ
??0CAnimatedPart@NGScene@@QAE@PAV?$CPtrFuncBase@VCObjectInfo@NGScene@@@@PAV?$CFuncBase@V?$vector@USHMatrix@@V?$allocator@USHMatrix@@@_STL@@@_STL@@@@PAV?$CFuncBase@V?$vector@USCompactTransformer@NGfx@@V?$allocator@USCompactTransformer@NGfx@@@_STL@@@_STL@@@@PAVIMaterial@1@ABUSFullGroupInfo@1@@Z
??0CAnimatedPart@NGScene@@QAE@XZ
??0CAnimatedPartRegister0x02662164@@QAE@XZ
??0CAnimation@NAnimation@@QAE@ABV01@@Z
??0CAnimation@NAnimation@@QAE@PAV0NDb@@PAV?$CPtrFuncBase@VCFileSkeletonInfo@NAnimation@@@@K@Z
??0CAnimation@NAnimation@@QAE@XZ
??0CAnimationRegister0x01321155@@QAE@XZ
??0CAnimator@NAnimation@@QAE@XZ
??0CAttackPortion@NRPG@@QAE@ABV01@@Z
??0CAttackPortion@NRPG@@QAE@HHHHHHPAVIUnitMissionInfo@1@0MH_N@Z
??0CAttackPortion@NRPG@@QAE@XZ
??0CAudioOptionsUI@NUI@@QAE@ABUSWindowInfo@1@@Z
??0CAudioOptionsUI@NUI@@QAE@XZ
??0CAudioOptionsUIRegister0xB0815152@@QAE@XZ
??0CAutomaticCombiner@NGScene@@QAE@XZ
??0CAutomaticCombinerRegister0x01091206@@QAE@XZ
??0CBOTTOMHandler@NUI@@QAE@XZ
??0CBOTTOMHandlerRegister0xB1003238@@QAE@XZ
??0CBRHandler@NUI@@QAE@XZ
??0CBRHandlerRegister0xB1003239@@QAE@XZ
??0CBSPTree@NAI@@QAE@ABV01@@Z
??0CBSPTree@NAI@@QAE@XZ
??0CBSPTreeConstructor@NAI@@QAE@ABUSBSPGeometry@1@PAV01@@Z
??0CBSPTreeConstructor@NAI@@QAE@ABV01@@Z
??0CBSPTreeConstructor@NAI@@QAE@XZ
??0CBSPTreeRegister0x71582160@@QAE@XZ
??0CBackPackSlot@NUI@@QAE@ABUSWindowInfo@1@PAVIMission@NGame@@@Z
??0CBackPackSlot@NUI@@QAE@ABV01@@Z
??0CBackPackSlot@NUI@@QAE@XZ
??0CBackPackSlotRegister0xB0521142@@QAE@XZ
??0CBaseCamera@@QAE@ABV0@@Z
??0CBaseCamera@@QAE@XZ
??0CBaseParticlesGeometry@NGScene@@QAE@XZ
??0CBaseView@NUI@@QAE@ABUSWindowInfo@1@_NPAVCScreenShot@1@@Z
??0CBaseView@NUI@@QAE@ABV01@@Z
??0CBaseView@NUI@@QAE@XZ
??0CBaseViewRegister0xB1014133@@QAE@XZ
??0CBilinearTexture@NGScene@@QAE@ABV01@@Z
??0CBilinearTexture@NGScene@@QAE@ABV?$CArray2D@USPixel8888@NGfx@@@@HH@Z
??0CBilinearTexture@NGScene@@QAE@XZ
??0CBilinearTextureRegister0x007c1140@@QAE@XZ
??0CBind@NGScene@@QAE@ABV01@@Z
??0CBind@NGScene@@QAE@XZ
??0CBindRegister0x12041162@@QAE@XZ
??0CBleedingCritical@NRPG@@QAE@ABUSCritical@1@@Z
??0CBleedingCritical@NRPG@@QAE@XZ
??0CBleedingCriticalRegister0x52512140@@QAE@XZ
??0CBlindCritical@NRPG@@QAE@ABUSCritical@1@@Z
??0CBlindCritical@NRPG@@QAE@XZ
??0CBlindCriticalRegister0xA2812130@@QAE@XZ
??0CBlurEffect@NGfx@@QAE@M@Z
??0CBoolSyncSrcRegister0x01412161@@QAE@XZ
??0CBoolSyncSrcRegister0x01412162@@QAE@XZ
??0CBufferedStream@@QAE@XZ
??0CBuildInfo@NBuilding@@QAE@ABV01@@Z
??0CBuildInfo@NBuilding@@QAE@XZ
??0CBuildInfoLoader@NBuilding@@QAE@XZ
??0CBuildInfoLoaderRegister0x02741132@@QAE@XZ
??0CBuilder@NTerrain@@QAE@ABV01@@Z
??0CBuilder@NTerrain@@QAE@PAVCTerrainInfoHolder@@HABV?$list@USMapHole@@V?$allocator@USMapHole@@@_STL@@@_STL@@ABV?$list@USMapWall@@V?$allocator@USMapWall@@@_STL@@@4@@Z
??0CBuilder@NTerrain@@QAE@XZ
??0CBuilderRegister0x13051812@@QAE@XZ
??0CBuilding@NGScene@@QAE@ABV01@@Z
??0CBuilding@NGScene@@QAE@XZ
??0CBuilding@NRPG@@QAE@ABV01@@Z
??0CBuilding@NRPG@@QAE@PAVCBuildingGrid@NBuilding@@@Z
??0CBuilding@NWorld@@QAE@PAV?$CSyncSrc@UIVisObj@NWorld@@@@ABUSMapBuilding@@PAVIWorld@1@_N@Z
??0CBuilding@NWorld@@QAE@XZ
??0CBuildingGrid@NBuilding@@QAE@ABV01@@Z
??0CBuildingGrid@NBuilding@@QAE@XZ
??0CBuildingGridRegister0x02741121@@QAE@XZ
??0CBuildingInfoHold@NBuilding@@QAE@ABV01@@Z
??0CBuildingInfoHold@NBuilding@@QAE@PAVCBuildingGrid@1@PAVCSolidAndWallMap@1@H_N@Z
??0CBuildingInfoHold@NBuilding@@QAE@XZ
??0CBuildingInfoHoldRegister0xA0242120@@QAE@XZ
??0CBuildingPart@NWorld@@QAE@ABUSPart@NBuilding@@PAVCBuilding@1@_N@Z
??0CBuildingPart@NWorld@@QAE@XZ
??0CBuildingPartRegister0xA0142160@@QAE@XZ
??0CBuildingRegister0x019c1140@@QAE@XZ
??0CBuildingRegister0x02741120@@QAE@XZ
??0CBuildingRegister0x02741136@@QAE@XZ
??0CBuildingSchema@NBuilding@@QAE@ABV01@@Z
??0CBuildingSchema@NBuilding@@QAE@XZ
??0CBulletServer@NWorld@@QAE@PAVCWorld@1@ABV?$vector@USTrailPoint@NRPG@@V?$allocator@USTrailPoint@NRPG@@@_STL@@@_STL@@KPAVCModel@NDb@@M@Z
??0CBulletServer@NWorld@@QAE@XZ
??0CBulletServerRegister0xB18B1160@@QAE@XZ
??0CBumpRender@NGScene@@QAE@XZ
??0CButton@NUI@@QAE@ABUSWindowInfo@1@@Z
??0CButton@NUI@@QAE@ABV01@@Z
??0CButton@NUI@@QAE@XZ
??0CButtonRegister0xB0241961@@QAE@XZ
??0CButtonsPanel@NUI@@QAE@ABUSWindowInfo@1@@Z
??0CButtonsPanel@NUI@@QAE@XZ
??0CButtonsPanelRegister0xB0925147@@QAE@XZ
??0CCENTERHandler@NUI@@QAE@XZ
??0CCENTERHandlerRegister0xB1003232@@QAE@XZ
??0CCFBTransform@NGScene@@QAE@ABUSFBTransform@@@Z
??0CCFBTransform@NGScene@@QAE@XZ
??0CCFBTransformRegister0x02511010@@QAE@XZ
??0CCFloat@NGScene@@QAE@XZ
??0CCFloatRegister0x0251100f@@QAE@XZ
??0CCInt@NGScene@@QAE@ABH@Z
??0CCInt@NGScene@@QAE@XZ
??0CCIntRegister0x03031620@@QAE@XZ
??0CCLAmbientMulDiffuseEffect@NGfx@@QAE@HABVCVec3@@@Z
??0CCMSR@NGScene@@QAE@XZ
??0CCMSRRegister0x0251100d@@QAE@XZ
??0CCOLORHandler@NUI@@QAE@XZ
??0CCOLORHandlerRegister0xB100323A@@QAE@XZ
??0CCRectLayout@NGScene@@QAE@XZ
??0CCRectLayoutRegister0x02831151@@QAE@XZ
??0CCSWRectLayout@NGScene@@QAE@ABVCSWRectLayout@1@@Z
??0CCSWRectLayout@NGScene@@QAE@XZ
??0CCSWRectLayoutRegister0x01742120@@QAE@XZ
??0CCTPoint@NGScene@@QAE@XZ
??0CCTPointRegister0x114c1110@@QAE@XZ
??0CCTRect@NGScene@@QAE@XZ
??0CCTRectRegister0x02831000@@QAE@XZ
??0CCTerrainInfo@@QAE@XZ
??0CCTerrainInfoRegister0x10461600@@QAE@XZ
??0CCTime@@QAE@ABK@Z
??0CCTime@@QAE@XZ
??0CCTimeRegister0x0251100c@@QAE@XZ
??0CCVec2@NGScene@@QAE@ABVCVec2@@@Z
??0CCVec2@NGScene@@QAE@XZ
??0CCVec2Register0xB0118000@@QAE@XZ
??0CCVec3@NGScene@@QAE@ABVCVec3@@@Z
??0CCVec3@NGScene@@QAE@XZ
??0CCVec3Register0x0251100e@@QAE@XZ
??0CCVec4@NGScene@@QAE@ABVCVec4@@@Z
??0CCVec4@NGScene@@QAE@XZ
??0CCVec4Register0x021a2150@@QAE@XZ
??0CCWString@NGScene@@QAE@XZ
??0CCWStringRegister0x02831001@@QAE@XZ
??0CCamera@@QAE@XZ
??0CCameraRegister0xF2221130@@QAE@XZ
??0CCannon@NWorld@@QAE@PAVCWorld@1@ABUSObjectPlace@1@_NPAVCObject@NDb@@PAVIObject@NRPG@@PAV?$CFuncBase@K@@ABV?$vector@HV?$allocator@H@_STL@@@_STL@@@Z
??0CCannon@NWorld@@QAE@XZ
??0CCannonRegister0x12512141@@QAE@XZ
??0CChapterInfo@@QAE@ABV0@@Z
??0CChapterInfo@@QAE@XZ
??0CChapterInfoLoader@@QAE@XZ
??0CChapterInfoLoaderRegister0xB2506140@@QAE@XZ
??0CChapterInfoRegister0xB2506141@@QAE@XZ
??0CChapterMap@NGame@@QAE@XZ
??0CChapterMapRegister0xB2301230@@QAE@XZ
??0CChapterMapUI@NUI@@QAE@ABUSWindowInfo@1@PAVIChapterMap@NGame@@@Z
??0CChapterMapUI@NUI@@QAE@XZ
??0CChapterMapUIRegister0xB2606152@@QAE@XZ
??0CChapterSector@NUI@@QAE@ABUSWindowInfo@1@ABUSChapterSector@@@Z
??0CChapterSector@NUI@@QAE@ABV01@@Z
??0CChapterSector@NUI@@QAE@XZ
??0CCharGenMenuInterface@NGame@@QAE@ABV01@@Z
??0CCharGenMenuInterface@NGame@@QAE@XZ
??0CCharGenMenuInterfaceRegister0xB1023180@@QAE@XZ
??0CCharGenUI@NUI@@QAE@ABUSWindowInfo@1@PAVCSide@NDb@@@Z
??0CCharGenUI@NUI@@QAE@ABV01@@Z
??0CCharGenUI@NUI@@QAE@XZ
??0CCharGenUIRegister0xB1025161@@QAE@XZ
??0CCharacterPanel@NUI@@QAE@ABUSWindowInfo@1@PAVIMission@NGame@@@Z
??0CCharacterPanel@NUI@@QAE@ABV01@@Z
??0CCharacterPanel@NUI@@QAE@XZ
??0CCharacterPanelRegister0xB0521171@@QAE@XZ
??0CCheckButton@NUI@@QAE@ABUSWindowInfo@1@@Z
??0CCheckButton@NUI@@QAE@XZ
??0CCheckButtonRegister0xB0241963@@QAE@XZ
??0CClickOfDeath@NWorld@@QAE@PAVCActionCounter@1@PAVCObjectBase@@HABVCRay@@@Z
??0CClickOfDeath@NWorld@@QAE@XZ
??0CClickOfDeathRegister0x118B1161@@QAE@XZ
??0CClipItem@NRPG@@QAE@ABV01@@Z
??0CClipItem@NRPG@@QAE@PAVCRPGClip@NDb@@@Z
??0CClipItem@NRPG@@QAE@XZ
??0CClipItemRegister0xE10A1141@@QAE@XZ
??0CClipper@NGScene@@QAE@ABV01@@Z
??0CClipper@NGScene@@QAE@XZ
??0CClipperRegister0x02931400@@QAE@XZ
??0CClueItem@NRPG@@QAE@ABV01@@Z
??0CClueItem@NRPG@@QAE@PAVCRPGItem@NDb@@@Z
??0CClueItem@NRPG@@QAE@XZ
??0CClueItemRegister0x51012110@@QAE@XZ
??0CCluesInterface@NGame@@QAE@ABV01@@Z
??0CCluesInterface@NGame@@QAE@XZ
??0CCluesInterfaceRegister0xB082013A@@QAE@XZ
??0CCluesItem@NUI@@QAE@ABUSWindowInfo@1@PAVCScenarioClue@NScenario@@ABV?$basic_string@GU?$char_traits@G@std@@V?$allocator@G@_STL@@@_STL@@@Z
??0CCluesItem@NUI@@QAE@XZ
??0CCluesItemRegister0xB0820131@@QAE@XZ
??0CCluesUI@NUI@@QAE@ABUSWindowInfo@1@PAVCGlobalGame@NRPG@@@Z
??0CCluesUI@NUI@@QAE@XZ
??0CCluesUIRegister0xB0820130@@QAE@XZ
??0CCmd@NWorld@@QAE@XZ
??0CCmdActivateItem@NWorld@@QAE@ABV01@@Z
??0CCmdActivateItem@NWorld@@QAE@PAVCUnit@1@H@Z
??0CCmdActivateItem@NWorld@@QAE@XZ
??0CCmdActivateItemRegister0x113B1130@@QAE@XZ
??0CCmdAddUnit@NWorld@@QAE@ABV01@@Z
??0CCmdAddUnit@NWorld@@QAE@PAVIPlayer@1@ABUSPosition@NAI@@PAVCUnit@NRPG@@@Z
??0CCmdAddUnit@NWorld@@QAE@XZ
??0CCmdArrangeInventory@NWorld@@QAE@XZ
??0CCmdArrangeInventoryRegister0xB0211210@@QAE@XZ
??0CCmdCallScriptFunction@NWorld@@QAA@V?$basic_string@DU?$char_traits@D@std@@V?$allocator@D@_STL@@@_STL@@PADZZ
??0CCmdCallScriptFunction@NWorld@@QAE@ABV01@@Z
??0CCmdCallScriptFunction@NWorld@@QAE@XZ
??0CCmdCallScriptFunctionRegister0x51822130@@QAE@XZ
??0CCmdCancel@NWorld@@QAE@ABV01@@Z
??0CCmdCancel@NWorld@@QAE@PAVCUnit@1@@Z
??0CCmdCancel@NWorld@@QAE@XZ
??0CCmdCancelRegister0x004C1140@@QAE@XZ
??0CCmdCannon@NWorld@@QAE@ABV01@@Z
??0CCmdCannon@NWorld@@QAE@PAVIObject@1@@Z
??0CCmdCannon@NWorld@@QAE@XZ
??0CCmdCannonRegister0x12512171@@QAE@XZ
??0CCmdChangePose@NWorld@@QAE@PAVCUnit@1@ABUSUnitPosition@NAI@@@Z
??0CCmdChangePose@NWorld@@QAE@XZ
??0CCmdChangePoseRegister0x13151130@@QAE@XZ
??0CCmdCheat@NWorld@@QAE@H_N@Z
??0CCmdClimb@NWorld@@QAE@PAVCUnit@1@AAUSUnitPosition@NAI@@_N@Z
??0CCmdClimb@NWorld@@QAE@XZ
??0CCmdClimbRegister0x12681160@@QAE@XZ
??0CCmdCollectSnipeAP@NWorld@@QAE@W4ECollectSnipeAP@1@@Z
??0CCmdCollectSnipeAP@NWorld@@QAE@XZ
??0CCmdCollectSnipeAPRegister0x50372070@@QAE@XZ
??0CCmdContinue@NWorld@@QAE@XZ
??0CCmdContinueRegister0x01822130@@QAE@XZ
??0CCmdCreateInventoryItem@NWorld@@QAE@ABV01@@Z
??0CCmdCreateInventoryItem@NWorld@@QAE@PAVCRPGItem@NDb@@@Z
??0CCmdCreateInventoryItem@NWorld@@QAE@XZ
??0CCmdCreateInventoryItemRegister0xB1922112@@QAE@XZ
??0CCmdDeactivateItem@NWorld@@QAE@ABV01@@Z
??0CCmdDeactivateItem@NWorld@@QAE@PAVCUnit@1@H@Z
??0CCmdDeactivateItem@NWorld@@QAE@XZ
??0CCmdDeactivateItemRegister0x114B1130@@QAE@XZ
??0CCmdDropCorpse@NWorld@@QAE@PAVCUnit@1@@Z
??0CCmdDropCorpseRegister0x01922150@@QAE@XZ
??0CCmdEmpty@NWorld@@QAE@XZ
??0CCmdEmptyRegister0x51522140@@QAE@XZ
??0CCmdEndMove@NWorld@@QAE@ABV01@@Z
??0CCmdEndMove@NWorld@@QAE@PAVCUnit@1@_N@Z
??0CCmdEndMove@NWorld@@QAE@XZ
??0CCmdEndMoveRegister0x12541120@@QAE@XZ
??0CCmdEndOfTurn@NWorld@@QAE@XZ
??0CCmdEndOfTurnRegister0x02731140@@QAE@XZ
??0CCmdEnterLadder@NWorld@@QAE@PAVCUnit@1@AAUSUnitPosition@NAI@@_N@Z
??0CCmdEnterLadder@NWorld@@QAE@XZ
??0CCmdEnterLadderRegister0x12352171@@QAE@XZ
??0CCmdExitCannon@NWorld@@QAE@ABV01@@Z
??0CCmdExitCannon@NWorld@@QAE@PAVIObject@1@@Z
??0CCmdExitCannon@NWorld@@QAE@XZ
??0CCmdExitCannonRegister0x01922151@@QAE@XZ
??0CCmdExitPK@NWorld@@QAE@XZ
??0CCmdExitPKRegister0xB1022170@@QAE@XZ
??0CCmdExplode@NWorld@@QAE@XZ
??0CCmdExplodeRegister0x12741170@@QAE@XZ
??0CCmdGrenadeMode@NWorld@@QAE@W4EGrenadeMode@NRPG@@@Z
??0CCmdGrenadeMode@NWorld@@QAE@XZ
??0CCmdGrenadeModeRegister0xB1922111@@QAE@XZ
??0CCmdHeal@NWorld@@QAE@PAVCUnit@1@@Z
??0CCmdHeal@NWorld@@QAE@XZ
??0CCmdHealRegister0x02912141@@QAE@XZ
??0CCmdHide@NWorld@@QAE@XZ
??0CCmdHideRegister0x51212131@@QAE@XZ
??0CCmdImpossibleToPerformAction@NWorld@@QAE@XZ
??0CCmdImpossibleToPerformActionRegister0x52062173@@QAE@XZ
??0CCmdInterfaceEvent@NWorld@@QAE@W4EInterfaceEvent@1@W4EInterfaceActionType@1@@Z
??0CCmdInterfaceEvent@NWorld@@QAE@XZ
??0CCmdInterfaceEventRegister0x51402141@@QAE@XZ
??0CCmdJump@NWorld@@QAE@PAVCUnit@1@AAUSUnitPosition@NAI@@_N@Z
??0CCmdJump@NWorld@@QAE@XZ
??0CCmdJumpRegister0x12681161@@QAE@XZ
??0CCmdLeaveLadder@NWorld@@QAE@PAVCUnit@1@AAUSUnitPosition@NAI@@_N@Z
??0CCmdLeaveLadder@NWorld@@QAE@XZ
??0CCmdLeaveLadderRegister0x12352172@@QAE@XZ
??0CCmdLoadWeapon@NWorld@@QAE@ABV01@@Z
??0CCmdLoadWeapon@NWorld@@QAE@PAVIWeaponItemInfo@NRPG@@ABUSItem@1@@Z
??0CCmdLoadWeapon@NWorld@@QAE@XZ
??0CCmdLoadWeaponRegister0xB0411150@@QAE@XZ
??0CCmdLook@NWorld@@QAE@ABUSPosition@NAI@@@Z
??0CCmdLook@NWorld@@QAE@XZ
??0CCmdLookRegister0x71512110@@QAE@XZ
??0CCmdMove@NWorld@@QAE@PAVCUnit@1@AAUSUnitPosition@NAI@@_N2@Z
??0CCmdMove@NWorld@@QAE@XZ
??0CCmdMoveInventoryItem@NWorld@@QAE@ABUSItem@1@0@Z
??0CCmdMoveInventoryItem@NWorld@@QAE@ABV01@@Z
??0CCmdMoveInventoryItem@NWorld@@QAE@XZ
??0CCmdMoveInventoryItemRegister0xB0372070@@QAE@XZ
??0CCmdMoveLadder@NWorld@@QAE@PAVCUnit@1@ABUSUnitPosition@NAI@@@Z
??0CCmdMoveLadder@NWorld@@QAE@XZ
??0CCmdMoveLadderRegister0x12352170@@QAE@XZ
??0CCmdMoveRegister0x02731142@@QAE@XZ
??0CCmdNeedReload@NWorld@@QAE@XZ
??0CCmdNeedReloadRegister0x52062170@@QAE@XZ
??0CCmdOpenClose@NWorld@@QAE@ABV01@@Z
??0CCmdOpenClose@NWorld@@QAE@PAVIObject@1@_N@Z
??0CCmdOpenClose@NWorld@@QAE@XZ
??0CCmdOpenCloseRegister0x12512170@@QAE@XZ
??0CCmdOrderConfirmation@NWorld@@QAE@XZ
??0CCmdOrderConfirmationRegister0x52062172@@QAE@XZ
??0CCmdPath@NWorld@@QAE@ABUSPosition@NAI@@W4EFindPathParams@3@W4ENeedActiveItem@1@@Z
??0CCmdPath@NWorld@@QAE@ABV01@@Z
??0CCmdPath@NWorld@@QAE@XZ
??0CCmdPathRegister0x12541122@@QAE@XZ
??0CCmdPlayAnimation@NWorld@@QAE@H_N@Z
??0CCmdPlayAnimation@NWorld@@QAE@XZ
??0CCmdPlayAnimationRegister0x50112150@@QAE@XZ
??0CCmdQuitGame@NWorld@@QAE@XZ
??0CCmdQuitGameRegister0x02741156@@QAE@XZ
??0CCmdReload@NWorld@@QAE@PAVIInventoryItem@NRPG@@@Z
??0CCmdReloadRegister0xA2212130@@QAE@XZ
??0CCmdRemoveUnit@NWorld@@QAE@ABV01@@Z
??0CCmdRemoveUnit@NWorld@@QAE@PAVIPlayer@1@PAVCUnit@1@@Z
??0CCmdRotate@NWorld@@QAE@PAVCUnit@1@AAUSUnitPosition@NAI@@W4EPhase@01@@Z
??0CCmdRotate@NWorld@@QAE@XZ
??0CCmdRotateRegister0x02731143@@QAE@XZ
??0CCmdSetActiveItem@NWorld@@QAE@H@Z
??0CCmdSetActiveItem@NWorld@@QAE@XZ
??0CCmdSetActiveItemRegister0x00722120@@QAE@XZ
??0CCmdSetCommand@NWorld@@QAE@ABV01@@Z
??0CCmdSetCommand@NWorld@@QAE@PAVCUnit@1@PAVCCmd@1@@Z
??0CCmdSetCommand@NWorld@@QAE@XZ
??0CCmdSetCommandRegister0x01122120@@QAE@XZ
??0CCmdSetGrenadeOnObject@NWorld@@QAE@PAVCObjectBase@@@Z
??0CCmdSetGrenadeOnObject@NWorld@@QAE@XZ
??0CCmdSetGrenadeOnObjectRegister0x017c2181@@QAE@XZ
??0CCmdSetMineOnTile@NWorld@@QAE@ABUSPosition@NAI@@@Z
??0CCmdSetMineOnTile@NWorld@@QAE@ABV01@@Z
??0CCmdSetMineOnTile@NWorld@@QAE@XZ
??0CCmdSetMineOnTileRegister0x018c2121@@QAE@XZ
??0CCmdShootMode@NWorld@@QAE@W4EShootMode@NDb@@@Z
??0CCmdShootMode@NWorld@@QAE@XZ
??0CCmdShootModeRegister0xB1908141@@QAE@XZ
??0CCmdShootObject@NWorld@@QAE@ABV01@@Z
??0CCmdShootObject@NWorld@@QAE@PAVCObjectBase@@HW4EHitLocation@NAI@@@Z
??0CCmdShootObject@NWorld@@QAE@XZ
??0CCmdShootObjectRegister0x02912142@@QAE@XZ
??0CCmdShootTile@NWorld@@QAE@ABVCVec3@@@Z
??0CCmdShootTile@NWorld@@QAE@XZ
??0CCmdShootTileRegister0x02912143@@QAE@XZ
??0CCmdSnipeAttack@NWorld@@QAE@XZ
??0CCmdSnipeAttackRegister0xB1908140@@QAE@XZ
??0CCmdStartCombat@NWorld@@QAE@XZ
??0CCmdStartCombatRegister0xB2541122@@QAE@XZ
??0CCmdStrafe@NWorld@@QAE@XZ
??0CCmdStrafe@NWorld@@QAE@_N@Z
??0CCmdStrafeRegister0xB1111170@@QAE@XZ
??0CCmdTakeCorpse@NWorld@@QAE@PAVCUnit@1@@Z
??0CCmdTakeCorpse@NWorld@@QAE@XZ
??0CCmdTakeCorpseOnDeploy@NWorld@@QAE@ABV01@@Z
??0CCmdTakeCorpseOnDeploy@NWorld@@QAE@PAVCUnitServer@1@0_N@Z
??0CCmdTakeCorpseOnDeploy@NWorld@@QAE@XZ
??0CCmdTakeCorpseOnDeployRegister0x52492172@@QAE@XZ
??0CCmdTakeCorpseRegister0x11712180@@QAE@XZ
??0CCmdTakePerk@NWorld@@QAE@H@Z
??0CCmdTakePerk@NWorld@@QAE@XZ
??0CCmdTakePerkRegister0x71512111@@QAE@XZ
??0CCmdTalk@NWorld@@QAE@PAVCUnit@1@@Z
??0CCmdTalk@NWorld@@QAE@XZ
??0CCmdTalkRegister0x51922110@@QAE@XZ
??0CCmdTeleport@NWorld@@QAE@AAUSUnitPosition@NAI@@@Z
??0CCmdTeleport@NWorld@@QAE@ABV01@@Z
??0CCmdTeleport@NWorld@@QAE@XZ
??0CCmdTeleportRegister0x12541121@@QAE@XZ
??0CCmdTravel@NWorld@@QAE@ABV01@@Z
??0CCmdTravel@NWorld@@QAE@PAVCUnit@1@ABUSUnitPosition@NAI@@@Z
??0CCmdTravel@NWorld@@QAE@XZ
??0CCmdUnit@NWorld@@QAE@ABV01@@Z
??0CCmdUnit@NWorld@@QAE@PAVCUnit@1@@Z
??0CCmdUnit@NWorld@@QAE@XZ
??0CCmdUnloadWeapon@NWorld@@QAE@ABV01@@Z
??0CCmdUnloadWeapon@NWorld@@QAE@PAVIWeaponItemInfo@NRPG@@@Z
??0CCmdUnloadWeapon@NWorld@@QAE@XZ
??0CCmdUnloadWeaponRegister0xB0411151@@QAE@XZ
??0CCmdUntrapObject@NWorld@@QAE@PAVCObjectBase@@@Z
??0CCmdUntrapObject@NWorld@@QAE@XZ
??0CCmdUntrapObjectRegister0x018c2120@@QAE@XZ
??0CCmdUsePassage@NWorld@@QAE@ABV01@@Z
??0CCmdUsePassage@NWorld@@QAE@PAVIPassageObject@1@@Z
??0CCmdUsePassage@NWorld@@QAE@XZ
??0CCmdUsePassageRegister0x51892142@@QAE@XZ
??0CCmdWeaponJammed@NWorld@@QAE@XZ
??0CCmdWeaponJammedRegister0x52062171@@QAE@XZ
??0CCmdWishPose@NWorld@@QAE@W4EPose@NAI@@@Z
??0CCmdWishPose@NWorld@@QAE@XZ
??0CCmdWishPoseRegister0x01122140@@QAE@XZ
??0CCollider@NAI@@QAE@XZ
??0CColorMaterialShare@NGScene@@QAE@XZ
??0CColorTexture@NGScene@@QAE@ABVCVec4@@@Z
??0CColorTexture@NGScene@@QAE@XZ
??0CColorTextureRegister0x00682200@@QAE@XZ
??0CColouredWaysCalcer@NAI@@QAE@ABV01@@Z
??0CColouredWaysCalcer@NAI@@QAE@XZ
??0CColouredWaysCalcerRegister0x72452120@@QAE@XZ
??0CCombinedPart@NGScene@@QAE@ABV01@@Z
??0CCombinedPart@NGScene@@QAE@PAUSStaticTrackers@1@W4EType@01@@Z
??0CCombinedPart@NGScene@@QAE@XZ
??0CCombinedPartRegister0x11791170@@QAE@XZ
??0CComboBox@NUI@@QAE@ABUSWindowInfo@1@@Z
??0CComboBox@NUI@@QAE@XZ
??0CComboBoxItem@NUI@@QAE@ABUSWindowInfo@1@H@Z
??0CComboBoxItem@NUI@@QAE@XZ
??0CComboBoxItemRegister0xB0241968@@QAE@XZ
??0CComboBoxList@NUI@@QAE@ABUSWindowInfo@1@@Z
??0CComboBoxList@NUI@@QAE@XZ
??0CComboBoxListRegister0xB0241969@@QAE@XZ
??0CComboBoxRegister0xB024196A@@QAE@XZ
??0CCommand@NWorld@@QAE@XZ
??0CCommandExecute@NWorld@@QAE@ABV01@@Z
??0CCommandExecute@NWorld@@QAE@PAVCUnitServer@1@@Z
??0CCommander@NWorld@@QAE@ABV01@@Z
??0CCommander@NWorld@@QAE@XZ
??0CCommanderRegister0x02731130@@QAE@XZ
??0CComplexButton@NUI@@QAE@ABUSWindowInfo@1@PAVCUITexture@NDb@@111@Z
??0CComplexButton@NUI@@QAE@ABV01@@Z
??0CComplexButton@NUI@@QAE@XZ
??0CComplexButtonRegister0xB224395B@@QAE@XZ
??0CComplexComboBox@NUI@@QAE@ABUSWindowInfo@1@@Z
??0CComplexComboBox@NUI@@QAE@XZ
??0CComplexComboBoxRegister0xB0815157@@QAE@XZ
??0CComplexSlider@NUI@@QAE@ABUSWindowInfo@1@@Z
??0CComplexSlider@NUI@@QAE@ABV01@@Z
??0CComplexSlider@NUI@@QAE@XZ
??0CComplexSliderRegister0xB0815155@@QAE@XZ
??0CComplexTextSlider@NUI@@QAE@ABUSWindowInfo@1@@Z
??0CComplexTextSlider@NUI@@QAE@ABV01@@Z
??0CComplexTextSlider@NUI@@QAE@XZ
??0CComplexTextSliderRegister0xB0815156@@QAE@XZ
??0CConsole@NUI@@QAE@ABUSWindowInfo@1@@Z
??0CConsole@NUI@@QAE@ABV01@@Z
??0CConsole@NUI@@QAE@XZ
??0CConsoleRegister0xF2501170@@QAE@XZ
??0CControlsOptionsUI@NUI@@QAE@ABUSWindowInfo@1@@Z
??0CControlsOptionsUI@NUI@@QAE@XZ
??0CControlsOptionsUIRegister0xB0815154@@QAE@XZ
??0CConvexHull@NAI@@QAE@PAV?$CPtrFuncBase@VCGeometryInfo@NAI@@@@ABUSFBTransform@@PAVCRPGArmor@NDb@@PAVCObjectBase@@HH@Z
??0CConvexHull@NAI@@QAE@XZ
??0CCoverInfo@NRPG@@QAE@ABV01@@Z
??0CCoverInfo@NRPG@@QAE@XZ
??0CCoverInfoRegister0x02841161@@QAE@XZ
??0CCritical@NRPG@@QAE@ABUSCritical@1@@Z
??0CCritical@NRPG@@QAE@XZ
??0CCriticalSection@NWin32Helper@@QAE@XZ
??0CCriticalSectionLock@NWin32Helper@@QAE@AAVCCriticalSection@1@@Z
??0CCriticalsBan@NWorld@@QAE@XZ
??0CCubeTB@NGfx@@QAE@HHW4_D3DFORMAT@@W4ETextureUsage@1@@Z
??0CCubeTB@NGfx@@QAE@XZ
??0CCubeTexture@NGfx@@QAE@PAVCCubeTB@1@@Z
??0CCubemapBufferSet@NGfx@@QAE@ABV01@@Z
??0CCubemapBufferSet@NGfx@@QAE@XZ
??0CCursor@NUI@@QAE@ABV01@@Z
??0CCursor@NUI@@QAE@_N@Z
??0CCursorRegister0x00821183@@QAE@XZ
??0CDBIteratorBase@@IAE@ABVCDBTableBase@@@Z
??0CDBPtrWrapperRegister0x52302140@@QAE@XZ
??0CDBRecord@@QAE@XZ
??0CDFrozenItem@NWorld@@QAE@PAV?$CSyncSrc@UIVisObj@NWorld@@@@ABUSItemRenderInfo@1@ABUSHMatrix@@HPAVIInventoryItem@NRPG@@PAVCDebrisControllerTrash@1@@Z
??0CDFrozenItem@NWorld@@QAE@XZ
??0CDFrozenItemRegister0x009b1140@@QAE@XZ
??0CDGrassEvent@NWorld@@QAE@ABVCVec3@@@Z
??0CDGrassEvent@NWorld@@QAE@XZ
??0CDGrassEventRegister0x01512122@@QAE@XZ
??0CDItem@NWorld@@QAE@PAV?$CSyncSrc@UIVisObj@NWorld@@@@ABUSItemRenderInfo@1@PAV?$CFuncBase@V?$vector@USBonePose@NAnimation@@V?$allocator@USBonePose@NAnimation@@@_STL@@@_STL@@@@HPAVIInventoryItem@NRPG@@@Z
??0CDItem@NWorld@@QAE@XZ
??0CDItemRegister0x130A1191@@QAE@XZ
??0CDParticles@NWorld@@QAE@ABVCVec3@@ABVCQuat@@PAVCEffect@NDb@@H@Z
??0CDParticles@NWorld@@QAE@PAV?$CFuncBase@USFBTransform@@@@PAVCEffect@NDb@@H@Z
??0CDParticles@NWorld@@QAE@XZ
??0CDParticlesRegister0x01512120@@QAE@XZ
??0CDamageWeaponCritical@NRPG@@QAE@ABUSCritical@1@@Z
??0CDamageWeaponCritical@NRPG@@QAE@XZ
??0CDamageWeaponCriticalRegister0xA2512150@@QAE@XZ
??0CDataStream@@QAE@XZ
??0CDeafCritical@NRPG@@QAE@ABUSCritical@1@@Z
??0CDeafCritical@NRPG@@QAE@XZ
??0CDeafCriticalRegister0x50842160@@QAE@XZ
??0CDeathCritical@NRPG@@QAE@ABUSCritical@1@@Z
??0CDeathCritical@NRPG@@QAE@XZ
??0CDeathCriticalRegister0xA1812120@@QAE@XZ
??0CDebrisController@NWorld@@QAE@ABV01@@Z
??0CDebrisController@NWorld@@QAE@XZ
??0CDebrisControllerTrash@NWorld@@QAE@XZ
??0CDebrisControllerTrashRegister0x50692130@@QAE@XZ
??0CDecal@NGScene@@QAE@PAVCDecalsManager@1@PAVCDecalTarget@1@PAVIMaterial@1@@Z
??0CDecal@NGScene@@QAE@XZ
??0CDecal@NWorld@@QAE@PAVCWorld@1@ABVCVec3@@1MPAVCMaterial@NDb@@PAVCObjectBase@@@Z
??0CDecal@NWorld@@QAE@PAVCWorld@1@ABVCVec3@@MPAVCMaterial@NDb@@AAV?$vector@PAVCObjectBase@@V?$allocator@PAVCObjectBase@@@_STL@@@_STL@@@Z
??0CDecal@NWorld@@QAE@XZ
??0CDecalGeometry@NGScene@@QAE@ABV01@@Z
??0CDecalGeometry@NGScene@@QAE@PAV?$CPtrFuncBase@VCObjectInfo@NGScene@@@@ABUSDiscretePos@@ABVCVec3@@2ABVCVec2@@M3MM@Z
??0CDecalGeometry@NGScene@@QAE@XZ
??0CDecalGeometryRegister0x00442130@@QAE@XZ
??0CDecalRegister0x003c2130@@QAE@XZ
??0CDecalRegister0x003c2140@@QAE@XZ
??0CDecalTarget@NGScene@@QAE@ABUSDecalMappingInfo@1@@Z
??0CDecalTarget@NGScene@@QAE@XZ
??0CDecalTargetRegister0x003c2142@@QAE@XZ
??0CDecalsManager@NGScene@@QAE@PAVIDecalQuery@1@@Z
??0CDecalsManagerRegister0x003c2141@@QAE@XZ
??0CDescriptionText@NUI@@QAE@ABUSWindowInfo@1@@Z
??0CDescriptionText@NUI@@QAE@ABV01@@Z
??0CDescriptionText@NUI@@QAE@XZ
??0CDescriptionTextRegister0xB2606156@@QAE@XZ
??0CDesktopWindow@NUI@@QAE@ABUSWindowInfo@1@@Z
??0CDesktopWindow@NUI@@QAE@XZ
??0CDesktopWindowRegister0xB1228130@@QAE@XZ
??0CDirectionalLight@NGScene@@QAE@ABV01@@Z
??0CDirectionalLight@NGScene@@QAE@PAV?$CFuncBase@VCVec3@@@@0ABVCVec3@@11ABVCVec2@@MPAVCVersioningBase@@0_NMPAVICacheLightRender@1@00@Z
??0CDirectionalLight@NGScene@@QAE@XZ
??0CDirectionalLightRegister0x02511009@@QAE@XZ
??0CDiscretePart@NGScene@@QAE@PAV?$CPtrFuncBase@VCObjectInfo@NGScene@@@@PAVIMaterial@1@ABUSFullGroupInfo@1@ABUSDiscretePos@@@Z
??0CDiscretePart@NGScene@@QAE@XZ
??0CDiscretePartRegister0x02662162@@QAE@XZ
??0CDumbUnitServer@NWorld@@QAE@PAVCWorld@1@PAVIUnitMission@NRPG@@PAVCModel@NDb@@ABUSUnitPosition@NAI@@@Z
??0CDumbUnitServer@NWorld@@QAE@XZ
??0CDynamicConvexHull@NAI@@QAE@PAV?$CPtrFuncBase@VCGeometryInfo@NAI@@@@ABUSFBTransform@@PAVCRPGArmor@NDb@@PAVCObjectBase@@HHPAV?$CFuncBase@USBound@@@@PAV?$CFuncBase@V?$vector@USBonePose@NAnimation@@V?$allocator@USBonePose@NAnimation@@@_STL@@@_STL@@@@@Z
??0CDynamicConvexHull@NAI@@QAE@XZ
??0CDynamicConvexHullRegister0x02942161@@QAE@XZ
??0CDynamicGeometryPart@NGScene@@QAE@PAV?$CPtrFuncBase@VCObjectInfo@NGScene@@@@PAV?$CFuncBase@USBound@@@@PAVIMaterial@1@ABUSFullGroupInfo@1@@Z
??0CDynamicGeometryPart@NGScene@@QAE@XZ
??0CDynamicGeometryPartRegister0x02662165@@QAE@XZ
??0CDynamicLightCache@NGScene@@QAE@XZ
??0CDynamicPart@NGScene@@QAE@ABV01@@Z
??0CDynamicPart@NGScene@@QAE@PAV?$CPtrFuncBase@VCObjectInfo@NGScene@@@@PAV?$CFuncBase@USFBTransform@@@@PAVIMaterial@1@ABUSFullGroupInfo@1@@Z
??0CDynamicPart@NGScene@@QAE@XZ
??0CDynamicPartRegister0x02662163@@QAE@XZ
??0CDynamicPointLight@NGScene@@QAE@ABV01@@Z
??0CDynamicPointLight@NGScene@@QAE@PAV?$CPtrFuncBase@VCAnimLight@NGScene@@@@@Z
??0CDynamicPointLight@NGScene@@QAE@XZ
??0CDynamicPointLightRegister0x02682130@@QAE@XZ
??0CDynamicSkill@NRPG@@QAE@HH@Z
??0CDynamicSkillRegister0x24051151@@QAE@XZ
??0CDynamicTrisIndices16@NGfx@@QAE@XZ
??0CDynamicTrisIndices32@NGfx@@QAE@XZ
??0CEdgesInfo@NAI@@QAE@ABV01@@Z
??0CEdgesInfo@NAI@@QAE@XZ
??0CEdit@NUI@@QAE@ABUSWindowInfo@1@@Z
??0CEdit@NUI@@QAE@XZ
??0CEditRegister0xB0241960@@QAE@XZ
??0CEditorCursor@NUI@@QAE@XZ
??0CEditorCursorRegister0xA2812160@@QAE@XZ
??0CEmptyOptionsUI@NUI@@QAE@ABUSWindowInfo@1@W4EOptionsScreen@NGame@@@Z
??0CEmptyOptionsUI@NUI@@QAE@XZ
??0CEmptyOptionsUIRegister0xB0815158@@QAE@XZ
??0CEnemyIcon@NUI@@QAE@ABUSWindowInfo@1@PAVIMission@NGame@@PAVCMissionUI@1@@Z
??0CEnemyIcon@NUI@@QAE@ABV01@@Z
??0CEnemyIcon@NUI@@QAE@XZ
??0CEnemyIconRegister0xB0241948@@QAE@XZ
??0CEnemyTurnProgressBar@NUI@@QAE@ABUSWindowInfo@1@PAVIMission@NGame@@@Z
??0CEnemyTurnProgressBar@NUI@@QAE@ABV01@@Z
??0CEnemyTurnProgressBar@NUI@@QAE@XZ
??0CEnemyTurnProgressBarRegister0xB0521163@@QAE@XZ
??0CEvent@NWin32Helper@@QAE@_N0@Z
??0CEventOnNewPlayerFastTurnOrTime@NWorld@@QAE@PAVCPlayer@1@@Z
??0CEventOnNewPlayerTurn@NWorld@@QAE@PAVCPlayer@1@@Z
??0CEventOnNewPlayerTurnOrTime@NWorld@@QAE@PAVCPlayer@1@@Z
??0CEventOnUnitLongBurst@NWorld@@QAE@PAVCUnitServer@1@@Z
??0CEventOnUnitUnhide@NWorld@@QAE@PAVCDumbUnitServer@1@@Z
??0CExecAccidentalShot@NWorld@@QAE@PAVCUnitServer@1@@Z
??0CExecAccidentalShotRegister0x00722171@@QAE@XZ
??0CExecArrangeInventory@NWorld@@QAE@PAVCUnitServer@1@@Z
??0CExecArrangeInventory@NWorld@@QAE@XZ
??0CExecAttack@NWorld@@QAE@PAVCUnitServer@1@@Z
??0CExecCannon@NWorld@@QAE@ABV01@@Z
??0CExecCannon@NWorld@@QAE@PAVCUnitServer@1@PAVIObject@1@_N@Z
??0CExecCannon@NWorld@@QAE@XZ
??0CExecCannonRegister0x00122175@@QAE@XZ
??0CExecCollectSnipeAP@NWorld@@QAE@PAVCUnitServer@1@W4ECollectSnipeAP@1@@Z
??0CExecCollectSnipeAP@NWorld@@QAE@XZ
??0CExecCollectSnipeAPRegister0x50372121@@QAE@XZ
??0CExecCorpse@NWorld@@QAE@ABV01@@Z
??0CExecCorpse@NWorld@@QAE@PAVCUnitServer@1@0_N@Z
??0CExecCorpse@NWorld@@QAE@XZ
??0CExecCorpseRegister0x00422110@@QAE@XZ
??0CExecCreateInventoryItem@NWorld@@QAE@ABV01@@Z
??0CExecCreateInventoryItem@NWorld@@QAE@PAVCUnitServer@1@PAVCCmdCreateInventoryItem@1@@Z
??0CExecCreateInventoryItem@NWorld@@QAE@XZ
??0CExecCriticalLostWeapon@NWorld@@QAE@PAVCUnitServer@1@_N@Z
??0CExecCriticalLostWeapon@NWorld@@QAE@XZ
??0CExecCriticalLostWeaponRegister0x00722170@@QAE@XZ
??0CExecDisarmMine@NWorld@@QAE@PAVCUnitServer@1@PAVCMine@1@@Z
??0CExecDisarmMine@NWorld@@QAE@XZ
??0CExecDisarmTrap@NWorld@@QAE@PAVCUnitServer@1@PAVCWindowDoor@1@@Z
??0CExecDisarmTrap@NWorld@@QAE@XZ
??0CExecExplode@NWorld@@QAE@PAVCUnitServer@1@@Z
??0CExecExplodeRegister0x01122130@@QAE@XZ
??0CExecGrenadeMode@NWorld@@QAE@ABV01@@Z
??0CExecGrenadeMode@NWorld@@QAE@PAVCUnitServer@1@PAVCCmdGrenadeMode@1@@Z
??0CExecGrenadeMode@NWorld@@QAE@XZ
??0CExecGrenadeModeRegister0xB1912112@@QAE@XZ
??0CExecHeal@NWorld@@QAE@PAVCUnitServer@1@0@Z
??0CExecHeal@NWorld@@QAE@XZ
??0CExecHealRegister0x00622140@@QAE@XZ
??0CExecHide@NWorld@@QAE@PAVCUnitServer@1@@Z
??0CExecImpossibleToPerformAction@NWorld@@QAE@PAVCUnitServer@1@@Z
??0CExecImpossibleToPerformActionRegister0x52062178@@QAE@XZ
??0CExecLaunchRocket@NWorld@@QAE@PAVCUnitServer@1@ABVCVec3@@@Z
??0CExecLaunchRocket@NWorld@@QAE@PAVCUnitServer@1@W4EType@01@@Z
??0CExecLaunchRocket@NWorld@@QAE@XZ
??0CExecLaunchRocketRegister0x50372000@@QAE@XZ
??0CExecLeaveInventory@NWorld@@QAE@PAVCUnitServer@1@@Z
??0CExecLeaveInventoryRegister0x01122131@@QAE@XZ
??0CExecLoadWeapon@NWorld@@QAE@ABV01@@Z
??0CExecLoadWeapon@NWorld@@QAE@PAVCUnitServer@1@PAVIWeaponItemInfo@NRPG@@ABUSItem@1@@Z
??0CExecLoadWeapon@NWorld@@QAE@XZ
??0CExecLoadWeaponRegister0xB206217A@@QAE@XZ
??0CExecMelee@NWorld@@QAE@PAVCUnitServer@1@H@Z
??0CExecMelee@NWorld@@QAE@XZ
??0CExecMeleeTile@NWorld@@QAE@PAVCUnitServer@1@ABVCVec3@@@Z
??0CExecMeleeTile@NWorld@@QAE@XZ
??0CExecMeleeTileRegister0x00422171@@QAE@XZ
??0CExecMeleeUnit@NWorld@@QAE@ABV01@@Z
??0CExecMeleeUnit@NWorld@@QAE@PAVCUnitServer@1@0W4EHitLocation@NAI@@H@Z
??0CExecMeleeUnit@NWorld@@QAE@XZ
??0CExecMeleeUnitRegister0x00422172@@QAE@XZ
??0CExecMove@NWorld@@QAE@ABV01@@Z
??0CExecMove@NWorld@@QAE@PAVCUnitServer@1@PAVCPath@NAI@@W4EFindPathParams@4@W4ENeedActiveItem@1@_N@Z
??0CExecMove@NWorld@@QAE@XZ
??0CExecMoveInventoryItem@NWorld@@QAE@ABV01@@Z
??0CExecMoveInventoryItem@NWorld@@QAE@PAVCUnitServer@1@PAVCCmdMoveInventoryItem@1@@Z
??0CExecMoveInventoryItem@NWorld@@QAE@XZ
??0CExecMoveInventoryItemRegister0x01122132@@QAE@XZ
??0CExecMoveRegister0x03112170@@QAE@XZ
??0CExecNeedReload@NWorld@@QAE@PAVCUnitServer@1@@Z
??0CExecNeedReloadRegister0x52062175@@QAE@XZ
??0CExecOpenClose@NWorld@@QAE@ABV01@@Z
??0CExecOpenClose@NWorld@@QAE@PAVCUnitServer@1@PAVCCmdOpenClose@1@@Z
??0CExecOpenClose@NWorld@@QAE@XZ
??0CExecOpenCloseRegister0x10422130@@QAE@XZ
??0CExecOrderConfirmation@NWorld@@QAE@PAVCUnitServer@1@@Z
??0CExecOrderConfirmationRegister0x52062177@@QAE@XZ
??0CExecPanzerklein@NWorld@@QAE@ABV01@@Z
??0CExecPanzerklein@NWorld@@QAE@PAVCUnitServer@1@PAVCCmdTakeCorpse@1@@Z
??0CExecPanzerklein@NWorld@@QAE@XZ
??0CExecPlayAnimation@NWorld@@QAE@PAVCUnitServer@1@H_N@Z
??0CExecPlayAnimation@NWorld@@QAE@XZ
??0CExecPlayAnimationRegister0x50112152@@QAE@XZ
??0CExecQueue@NWorld@@QAE@ABV01@@Z
??0CExecQueue@NWorld@@QAE@PAVCUnitServer@1@@Z
??0CExecQueueRegister0x00122174@@QAE@XZ
??0CExecReload@NWorld@@QAE@PAVCUnitServer@1@PAVIInventoryItem@NRPG@@@Z
??0CExecReloadRegister0x00122170@@QAE@XZ
??0CExecSetActiveItem@NWorld@@QAE@PAVCUnitServer@1@W4ESlot@NDb@@@Z
??0CExecSetActiveItem@NWorld@@QAE@XZ
??0CExecSetActiveItemRegister0x01122133@@QAE@XZ
??0CExecSetMine@NWorld@@QAE@PAVCUnitServer@1@PAVCCmdSetMineOnTile@1@@Z
??0CExecSetMine@NWorld@@QAE@XZ
??0CExecSetStrafe@NWorld@@QAE@PAVCUnitServer@1@_N@Z
??0CExecSetStrafe@NWorld@@QAE@XZ
??0CExecSetTrap@NWorld@@QAE@PAVCUnitServer@1@PAVCWindowDoor@1@@Z
??0CExecSetTrap@NWorld@@QAE@XZ
??0CExecSetWishPose@NWorld@@QAE@PAVCUnitServer@1@W4EPose@NAI@@@Z
??0CExecSetWishPose@NWorld@@QAE@XZ
??0CExecSetWishPoseRegister0x01122134@@QAE@XZ
??0CExecShoot@NWorld@@QAE@ABV01@@Z
??0CExecShoot@NWorld@@QAE@PAVCUnitServer@1@H@Z
??0CExecShoot@NWorld@@QAE@XZ
??0CExecShootMode@NWorld@@QAE@ABV01@@Z
??0CExecShootMode@NWorld@@QAE@PAVCUnitServer@1@PAVCCmdShootMode@1@@Z
??0CExecShootMode@NWorld@@QAE@XZ
??0CExecShootTile@NWorld@@QAE@PAVCUnitServer@1@ABVCVec3@@@Z
??0CExecShootTile@NWorld@@QAE@XZ
??0CExecShootTileRegister0x00122173@@QAE@XZ
??0CExecShootUnit@NWorld@@QAE@ABV01@@Z
??0CExecShootUnit@NWorld@@QAE@PAVCUnitServer@1@0W4EHitLocation@NAI@@H@Z
??0CExecShootUnit@NWorld@@QAE@XZ
??0CExecShootUnitRegister0x00422170@@QAE@XZ
??0CExecSnipeAim@NWorld@@QAE@PAVCUnitServer@1@0@Z
??0CExecSnipeAim@NWorld@@QAE@XZ
??0CExecSnipeAimRegister0x53042170@@QAE@XZ
??0CExecSpendAPAndRegister@NWorld@@QAE@PAVCUnitServer@1@W4EAction@NRPG@@@Z
??0CExecSpendAPAndRegisterRegister0x71912110@@QAE@XZ
??0CExecStartCombat@NWorld@@QAE@PAVCUnitServer@1@@Z
??0CExecStartCombatRegister0xB2062179@@QAE@XZ
??0CExecTakeCorpseOnDeploy@NWorld@@QAE@ABV01@@Z
??0CExecTakeCorpseOnDeploy@NWorld@@QAE@PAVCUnitServer@1@0_N@Z
??0CExecTakeCorpseOnDeploy@NWorld@@QAE@XZ
??0CExecTakeCorpseOnDeployRegister0x52492170@@QAE@XZ
??0CExecTakePerk@NWorld@@QAE@PAVCUnitServer@1@H@Z
??0CExecTakePerk@NWorld@@QAE@XZ
??0CExecTakePerkRegister0xB1912111@@QAE@XZ
??0CExecTalk@NWorld@@QAE@PAVCUnitServer@1@0@Z
??0CExecTalk@NWorld@@QAE@XZ
??0CExecTalkRegister0x51922130@@QAE@XZ
??0CExecTeleport@NWorld@@QAE@ABV01@@Z
??0CExecTeleport@NWorld@@QAE@PAVCUnitServer@1@PAVCCmdTeleport@1@@Z
??0CExecTeleport@NWorld@@QAE@XZ
??0CExecTeleportRegister0x01122135@@QAE@XZ
??0CExecThrowGrenade@NWorld@@QAE@ABV01@@Z
??0CExecThrowGrenade@NWorld@@QAE@PAVCUnitServer@1@ABVCVec3@@@Z
??0CExecThrowGrenade@NWorld@@QAE@XZ
??0CExecThrowGrenadeRegister0x00222190@@QAE@XZ
??0CExecThrowKnife@NWorld@@QAE@ABV01@@Z
??0CExecThrowKnife@NWorld@@QAE@PAVCUnitServer@1@ABVCVec3@@0@Z
??0CExecThrowKnife@NWorld@@QAE@XZ
??0CExecThrowKnifeRegister0x10662170@@QAE@XZ
??0CExecUnloadWeapon@NWorld@@QAE@PAVCUnitServer@1@PAVIWeaponItemInfo@NRPG@@@Z
??0CExecUnloadWeapon@NWorld@@QAE@XZ
??0CExecUnloadWeaponRegister0xB206217B@@QAE@XZ
??0CExecUsePassage@NWorld@@QAE@ABV01@@Z
??0CExecUsePassage@NWorld@@QAE@PAVCUnitServer@1@PAVCCmdUsePassage@1@@Z
??0CExecUsePassage@NWorld@@QAE@XZ
??0CExecUsePassageRegister0x51892150@@QAE@XZ
??0CExecWeaponJammed@NWorld@@QAE@PAVCUnitServer@1@@Z
??0CExecWeaponJammedRegister0x52062176@@QAE@XZ
??0CExitMenuInterface@NGame@@QAE@ABV01@@Z
??0CExitMenuInterface@NGame@@QAE@XZ
??0CExitMenuInterfaceRegister0xB1203150@@QAE@XZ
??0CExitMenuUI@NUI@@QAE@ABUSWindowInfo@1@@Z
??0CExitMenuUI@NUI@@QAE@XZ
??0CExitMenuUIRegister0xB1203151@@QAE@XZ
??0CExitZoneSector@NUI@@QAE@ABUSWindowInfo@1@PAVIChapterMap@NGame@@ABUSChapterSector@@@Z
??0CExitZoneSector@NUI@@QAE@ABV01@@Z
??0CExitZoneSector@NUI@@QAE@XZ
??0CExitZoneSectorRegister0xB2606155@@QAE@XZ
??0CExplCube@NWorld@@QAE@ABV01@@Z
??0CExplCube@NWorld@@QAE@VCVec3@@PAVIAIMap@NAI@@PAVCVoxelExpl@1@@Z
??0CExplCube@NWorld@@QAE@XZ
??0CExplCubeRegister0x52382160@@QAE@XZ
??0CExplVoxelRenderer@NAI@@QAE@XZ
??0CExplosionAnimator@NGScene@@QAE@ABV01@@Z
??0CExplosionAnimator@NGScene@@QAE@PAVCParticleInstance@NDb@@@Z
??0CExplosionAnimator@NGScene@@QAE@XZ
??0CExplosionAnimatorRegister0x11932170@@QAE@XZ
??0CExplosionDecalGeometry@NGScene@@QAE@PAVIPart@1@ABV?$vector@VCVec3@@V?$allocator@VCVec3@@@_STL@@@_STL@@ABVCVec3@@MM@Z
??0CExplosionDecalGeometry@NGScene@@QAE@XZ
??0CExplosionDecalGeometryRegister0x004c2170@@QAE@XZ
??0CExplosionDecalMaterial@NGScene@@QAE@PAV?$CPtrFuncBase@VCTexture@NGfx@@@@@Z
??0CExplosionDecalMaterial@NGScene@@QAE@XZ
??0CExplosionDecalMaterialRegister0x004c2180@@QAE@XZ
??0CExplosionParticleEffect@NGScene@@QAE@ABV01@@Z
??0CExplosionParticleEffect@NGScene@@QAE@XZ
??0CExplosionShadowBuilder@NGScene@@QAE@PAUSData@CObjectInfo@1@ABV31@ABV?$vector@VCVec3@@V?$allocator@VCVec3@@@_STL@@@_STL@@ABVCVec3@@MM@Z
??0CExtractTranslation@NGScene@@QAE@ABV01@@Z
??0CExtractTranslation@NGScene@@QAE@PAV?$CFuncBase@USFBTransform@@@@@Z
??0CExtractTranslationRegister0x022a2120@@QAE@XZ
??0CFBTransform@@QAE@ABUSFBTransform@@@Z
??0CFBTransform@@QAE@XZ
??0CFBTransformRegister0x025a1130@@QAE@XZ
??0CFONTHandler@NUI@@QAE@XZ
??0CFONTHandlerRegister0xB100323B@@QAE@XZ
??0CFPCamera@@QAE@XZ
??0CFPCameraRegister0xF2221131@@QAE@XZ
??0CFWContext@@QAE@PAPAVCWorld@NWorld@@PAV12@@Z
??0CFaceGenMenuInterface@NGame@@QAE@ABV01@@Z
??0CFaceGenMenuInterface@NGame@@QAE@XZ
??0CFaceGenMenuInterfaceRegister0xB1204021@@QAE@XZ
??0CFaceGenScroll@NUI@@QAE@ABUSWindowInfo@1@@Z
??0CFaceGenScroll@NUI@@QAE@ABV01@@Z
??0CFaceGenScroll@NUI@@QAE@XZ
??0CFaceGenUI@NUI@@QAE@ABUSWindowInfo@1@PAVCSide@NDb@@PAVCNationality@4@PAVCRPGPers@4@PAVCComplexHead@4@@Z
??0CFaceGenUI@NUI@@QAE@ABV01@@Z
??0CFaceGenUI@NUI@@QAE@XZ
??0CFaceGenUIRegister0xB1204020@@QAE@XZ
??0CFakeParticleLMTexture@NGScene@@QAE@XZ
??0CFakeParticleLMTextureRegister0x00372140@@QAE@XZ
??0CFakeRPGUnit@NRender@@QAE@PAVIGameView@NGScene@@PAV?$CSyncSrc@UIVisObj@NWorld@@@@PAVCUnit@NRPG@@PAV?$CFuncBase@K@@@Z
??0CFakeRPGUnit@NRender@@QAE@XZ
??0CFakeRPGUnitRegister0x01941136@@QAE@XZ
??0CFakeWorldUnit@NRender@@QAE@PAV?$CSyncSrc@UIVisObj@NWorld@@@@PAVCUnit@NWorld@@PAV?$CFuncBase@K@@@Z
??0CFakeWorldUnit@NRender@@QAE@XZ
??0CFakeWorldUnitRegister0x01941133@@QAE@XZ
??0CFastRenderer@NAI@@QAE@XZ
??0CFibElement@NCache@@QAE@HH@Z
??0CFibElement@NCache@@QAE@XZ
??0CFileAIBind@NGScene@@QAE@XZ
??0CFileAIBindRegister0x12041161@@QAE@XZ
??0CFileAnimation@NAnimation@@QAE@XZ
??0CFileAnimationInfo@NAnimation@@QAE@ABV01@@Z
??0CFileAnimationInfo@NAnimation@@QAE@XZ
??0CFileAnimationRegister0x01321162@@QAE@XZ
??0CFileBind@NGScene@@QAE@XZ
??0CFileBindInfo@NGScene@@QAE@XZ
??0CFileBindRegister0x12041160@@QAE@XZ
??0CFileCubeTexture@NGScene@@QAE@XZ
??0CFileCubeTextureRegister0x01412121@@QAE@XZ
??0CFileFont@NGScene@@QAE@XZ
??0CFileFontRegister0x02321160@@QAE@XZ
??0CFileLocators@NAnimation@@QAE@XZ
??0CFileLocatorsRegister0x12361120@@QAE@XZ
??0CFileRequest@NGScene@@QAE@PBDABUSPartKey@1@@Z
??0CFileRequest@NGScene@@QAE@PBDH@Z
??0CFileRequest@NGScene@@QAE@XZ
??0CFileResource@NGScene@@QAE@PBDH@Z
??0CFileSample2D@NSound@@QAE@XZ
??0CFileSample2DRegister0x03081141@@QAE@XZ
??0CFileSample3D@NSound@@QAE@XZ
??0CFileSample3DRegister0x03081140@@QAE@XZ
??0CFileSkeleton@NAnimation@@QAE@XZ
??0CFileSkeletonInfo@NAnimation@@QAE@XZ
??0CFileSkeletonRegister0x01321167@@QAE@XZ
??0CFileSkinPoints@NAI@@QAE@ABV01@@Z
??0CFileSkinPoints@NAI@@QAE@XZ
??0CFileSkinPointsLoad@NAI@@QAE@XZ
??0CFileSkinPointsLoadRegister0x014c1110@@QAE@XZ
??0CFileStream@@QAE@XZ
??0CFileTexture@NGScene@@QAE@ABV01@@Z
??0CFileTexture@NGScene@@QAE@XZ
??0CFileTextureRegister0x00821150@@QAE@XZ
??0CFirstAidItem@NRPG@@QAE@ABV01@@Z
??0CFirstAidItem@NRPG@@QAE@PAVCRPGFirstAid@NDb@@@Z
??0CFirstAidItem@NRPG@@QAE@XZ
??0CFirstAidItemRegister0xA1112153@@QAE@XZ
??0CFlashButton@NUI@@QAE@ABUSWindowInfo@1@PAVCUITexture@NDb@@1@Z
??0CFlashButton@NUI@@QAE@ABV01@@Z
??0CFlashButton@NUI@@QAE@XZ
??0CFlashButtonRegister0xB2243954@@QAE@XZ
??0CFlashImage@NUI@@QAE@ABUSWindowInfo@1@@Z
??0CFlashImage@NUI@@QAE@ABV01@@Z
??0CFlashImage@NUI@@QAE@XZ
??0CFlashImageRegister0xB2540911@@QAE@XZ
??0CFloorsSet@NAI@@QAE@H@Z
??0CFloorsSet@NAI@@QAE@XZ
??0CFogIntegrator@NGScene@@QAE@MM@Z
??0CFogRender@NGScene@@QAE@XZ
??0CFontFormatInfo@@QAE@ABV0@@Z
??0CFontFormatInfo@@QAE@XZ
??0CFontFormatInfoRegister0x02321170@@QAE@XZ
??0CFontInfo@NGScene@@QAE@ABUSFont@1@PAV?$CPtrFuncBase@VCTexture@NGfx@@@@PAV?$CPtrFuncBase@VCFontFormatInfo@@@@@Z
??0CFontInfo@NGScene@@QAE@ABV01@@Z
??0CFontInfo@NGScene@@QAE@XZ
??0CFontInfoRegister0x020c1140@@QAE@XZ
??0CForcedIconBarSet@NUI@@QAE@PAVIMission@NGame@@ABV?$vector@V?$CPtr@VCComplexButton@NUI@@@@V?$allocator@V?$CPtr@VCComplexButton@NUI@@@@@_STL@@@_STL@@@Z
??0CForcedIconBarSet@NUI@@QAE@XZ
??0CForcedIconBarSetRegister0xB0830174@@QAE@XZ
??0CGScene@NGScene@@QAE@ABV01@@Z
??0CGScene@NGScene@@QAE@H@Z
??0CGScene@NGScene@@QAE@XZ
??0CGSceneRegister0x0251100b@@QAE@XZ
??0CGame@NRPG@@QAE@ABV01@@Z
??0CGame@NRPG@@QAE@PAVIAIMap@NAI@@PAVIPathNetwork@3@@Z
??0CGame@NRPG@@QAE@XZ
??0CGamePlayOptionsUI@NUI@@QAE@ABUSWindowInfo@1@@Z
??0CGamePlayOptionsUI@NUI@@QAE@XZ
??0CGamePlayOptionsUIRegister0xB0815153@@QAE@XZ
??0CGameRegister0x02841121@@QAE@XZ
??0CGameView@NGScene@@QAE@ABV01@@Z
??0CGameView@NGScene@@QAE@XZ
??0CGameViewRegister0x01741140@@QAE@XZ
??0CGenericDynamicPart@NGScene@@QAE@ABV01@@Z
??0CGenericDynamicPart@NGScene@@QAE@PAV?$CPtrFuncBase@VCObjectInfo@NGScene@@@@PAVIMaterial@1@ABUSFullGroupInfo@1@@Z
??0CGenericDynamicPart@NGScene@@QAE@XZ
??0CGenericMaterial@NGScene@@QAE@ABV01@@Z
??0CGenericMaterial@NGScene@@QAE@XZ
??0CGenericMaterial@NGScene@@QAE@_N@Z
??0CGenericMaterialRegister0x02191161@@QAE@XZ
??0CGeometry@NGfx@@QAE@XZ
??0CGeometryInfo@NAI@@QAE@ABV01@@Z
??0CGeometryInfo@NAI@@QAE@XZ
??0CGetTranspCache@NGScene@@QAE@XZ
??0CGetTranspCacheRegister0x00372110@@QAE@XZ
??0CGlobalAck@NWorld@@QAE@ABV01@@Z
??0CGlobalAck@NWorld@@QAE@XZ
??0CGlobalAckRegister0x52412170@@QAE@XZ
??0CGlobalDiplomacy@NRPG@@QAE@XZ
??0CGlobalDiplomacyRegister0x50692161@@QAE@XZ
??0CGlobalGame@NRPG@@QAE@ABV01@@Z
??0CGlobalGame@NRPG@@QAE@XZ
??0CGlobalGameRegister0x02511015@@QAE@XZ
??0CGlobalInfo@@QAE@ABV0@@Z
??0CGlobalInfo@@QAE@XZ
??0CGlobalInfoLoader@@QAE@XZ
??0CGlobalInfoLoaderRegister0xB0912180@@QAE@XZ
??0CGlobalInfoRegister0xB0912181@@QAE@XZ
??0CGlobalMap@NGame@@QAE@XZ
??0CGlobalMapRegister0xB1808180@@QAE@XZ
??0CGlobalMapUI@NUI@@QAE@ABUSWindowInfo@1@PAVIGlobalMap@NGame@@@Z
??0CGlobalMapUI@NUI@@QAE@XZ
??0CGlobalMapUIRegister0xB0912170@@QAE@XZ
??0CGlobalPlayer@NRPG@@QAE@ABV01@@Z
??0CGlobalPlayer@NRPG@@QAE@XZ
??0CGlobalPlayerRegister0x53082180@@QAE@XZ
??0CGlobalSector@NUI@@QAE@ABUSWindowInfo@1@ABUSGlobalSector@@@Z
??0CGlobalSector@NUI@@QAE@XZ
??0CGrass@NGScene@@QAE@ABV01@@Z
??0CGrass@NGScene@@QAE@PAVIAIMap@NAI@@@Z
??0CGrass@NGScene@@QAE@XZ
??0CGrassAnimator@NGScene@@QAE@ABV01@@Z
??0CGrassAnimator@NGScene@@QAE@PAVCGrass@NDb@@PAVCGrassTracker@1@PAV?$CPtrFuncBase@VCGrassPosition@NGScene@@@@PAV?$CFuncBase@K@@H@Z
??0CGrassAnimator@NGScene@@QAE@XZ
??0CGrassAnimatorRegister0x125A1140@@QAE@XZ
??0CGrassParticleEffect@NGScene@@QAE@ABV01@@Z
??0CGrassParticleEffect@NGScene@@QAE@XZ
??0CGrassPosCalcer@NGScene@@QAE@ABV01@@Z
??0CGrassPosCalcer@NGScene@@QAE@HHHPAVIAIMap@NAI@@PAV?$CFuncBase@USTerrainInfo@@@@PAVCVersioningBase@@@Z
??0CGrassPosCalcer@NGScene@@QAE@XZ
??0CGrassPosCalcerRegister0x010c1170@@QAE@XZ
??0CGrassPosition@NGScene@@QAE@XZ
??0CGrassRegister0xB25A1190@@QAE@XZ
??0CGrassTracker@NGScene@@QAE@ABV01@@Z
??0CGrassTracker@NGScene@@QAE@PAVCTerrainInfoHolder@@PAVIAIMap@NAI@@@Z
??0CGrassTracker@NGScene@@QAE@XZ
??0CGrassTrackerRegister0x125A1190@@QAE@XZ
??0CGrenadeItem@NRPG@@QAE@ABV01@@Z
??0CGrenadeItem@NRPG@@QAE@PAVCRPGGrenade@NDb@@@Z
??0CGrenadeItem@NRPG@@QAE@XZ
??0CGrenadeItemRegister0x101B1170@@QAE@XZ
??0CGrenadeModeIconBarSet@NUI@@QAE@PAVIMission@NGame@@ABV?$vector@V?$CPtr@VCComplexButton@NUI@@@@V?$allocator@V?$CPtr@VCComplexButton@NUI@@@@@_STL@@@_STL@@@Z
??0CGrenadeModeIconBarSet@NUI@@QAE@XZ
??0CGrenadeModeIconBarSetRegister0xB0241946@@QAE@XZ
??0CGrenadeServer@NWorld@@QAE@PAVCWorld@1@ABVCVec3@@1KMPAVCModel@NDb@@PAVCRPGGrenade@5@PAVCUnitServer@1@@Z
??0CGrenadeServer@NWorld@@QAE@XZ
??0CGrenadeServerRegister0x118B1160@@QAE@XZ
??0CGrenadeToHitCalcer@NRPG@@QAE@ABV01@@Z
??0CGrenadeToHitCalcer@NRPG@@QAE@PAVIUnitMission@1@W4EPose@NAI@@HVCVec3@@_N22PAVCRPGGrenade@NDb@@@Z
??0CGrenadeToHitCalcer@NRPG@@QAE@XZ
??0CGrenadeToHitCalcerRegister0x52232160@@QAE@XZ
??0CHZBuffer@NGScene@@QAE@XZ
??0CHead@NLSHead@@QAE@ABV01@@Z
??0CHead@NLSHead@@QAE@PAV?$CFuncBase@USFBTransform@@@@PAV?$CFuncBase@USHeadFrame@NLSHead@@@@PAV?$CPtrFuncBase@VCHeadMeshInfo@NLSHead@@@@@Z
??0CHead@NLSHead@@QAE@XZ
??0CHeadAnimator@NLSHead@@QAE@ABV01@@Z
??0CHeadAnimator@NLSHead@@QAE@PAV?$CFuncBase@K@@PAVCHead@NDb@@@Z
??0CHeadAnimator@NLSHead@@QAE@XZ
??0CHeadAnimatorRegister0x10942151@@QAE@XZ
??0CHeadBound@NLSHead@@QAE@ABV01@@Z
??0CHeadBound@NLSHead@@QAE@PAV?$CFuncBase@USFBTransform@@@@@Z
??0CHeadBound@NLSHead@@QAE@XZ
??0CHeadBoundRegister0x10942150@@QAE@XZ
??0CHeadMeshInfo@NLSHead@@QAE@ABV01@@Z
??0CHeadMeshInfo@NLSHead@@QAE@XZ
??0CHeadMeshLoader@NLSHead@@QAE@XZ
??0CHeadMeshLoaderRegister0x11042141@@QAE@XZ
??0CHeadRegister0x10942152@@QAE@XZ
??0CHeadSequenceInfo@NLSHead@@QAE@XZ
??0CHeadSequenceLoader@NLSHead@@QAE@XZ
??0CHeadSequenceLoaderRegister0x11042142@@QAE@XZ
??0CHeadsController@NLSHead@@QAE@ABV01@@Z
??0CHeadsController@NLSHead@@QAE@XZ
??0CHeadsControllerRegister0x11042140@@QAE@XZ
??0CHeightMapBlock@NWorld@@QAE@ABV01@@Z
??0CHeightMapBlock@NWorld@@QAE@ABVCVec3@@PAVIAIMap@NAI@@@Z
??0CHeightMapBlock@NWorld@@QAE@XZ
??0CHeightMapBlockInfo@NAI@@QAE@XZ
??0CHeightMapBlockRegister0x11461141@@QAE@XZ
??0CHeroMenuInterface@NGame@@QAE@ABV01@@Z
??0CHeroMenuInterface@NGame@@QAE@XZ
??0CHeroMenuInterfaceRegister0xB111219A@@QAE@XZ
??0CHeroMenuUI@NUI@@QAE@ABUSWindowInfo@1@PAVCRenderBaseInterface@NGame@@PAVCSide@NDb@@@Z
??0CHeroMenuUI@NUI@@QAE@ABV01@@Z
??0CHeroMenuUI@NUI@@QAE@XZ
??0CHeroMenuUIRegister0xB1112190@@QAE@XZ
??0CHitLocator@NWorld@@QAE@HABVCVec3@@@Z
??0CHitLocator@NWorld@@QAE@XZ
??0CHitLocatorRegister0xB13b1142@@QAE@XZ
??0CHitTracker@NUI@@QAE@ABUSWindowInfo@1@PAVIMission@NGame@@PAVCHitLocator@NWorld@@ABK@Z
??0CHitTracker@NUI@@QAE@ABV01@@Z
??0CHitTracker@NUI@@QAE@XZ
??0CHitTrackerRegister0xB0241949@@QAE@XZ
??0CHoleWallBuilder@NTerrain@@QAE@ABUSMapWall@@PAV?$CFuncBase@USTerrainInfo@@@@@Z
??0CHoleWallBuilder@NTerrain@@QAE@ABV01@@Z
??0CHoleWallBuilder@NTerrain@@QAE@XZ
??0CHoleWallBuilderRegister0x13051814@@QAE@XZ
??0CHoverButton@NUI@@QAE@ABUSWindowInfo@1@@Z
??0CHoverButton@NUI@@QAE@XZ
??0CHoverButtonRegister0xB2243955@@QAE@XZ
??0CIBCombiner@NGScene@@QAE@ABV01@@Z
??0CIBCombiner@NGScene@@QAE@PAV?$CFuncBase@V?$vector@V?$CPtr@VIPart@NGScene@@@@V?$allocator@V?$CPtr@VIPart@NGScene@@@@@_STL@@@_STL@@@@W4ELightmapType@1@W4EIBTargetType@1@@Z
??0CIBCombiner@NGScene@@QAE@XZ
??0CIBCombinerRegister0x02741135@@QAE@XZ
??0CICAIView@@QAE@ABV0@@Z
??0CICAIView@@QAE@PAVIAIMap@NAI@@PAVIPathNetwork@2@PAVIVisionTracker@NRPG@@ABUSCameraPos@ICamera@@@Z
??0CICAIView@@QAE@XZ
??0CICBeginChapter@NGame@@QAE@HPAVCGlobalGame@NRPG@@@Z
??0CICBeginGame@NGame@@QAE@ABV01@@Z
??0CICBeginGame@NGame@@QAE@HABV?$vector@V?$CObj@VCGlobalPlayer@NRPG@@@@V?$allocator@V?$CObj@VCGlobalPlayer@NRPG@@@@@_STL@@@_STL@@@Z
??0CICBeginMission@NGame@@QAE@ABV01@@Z
??0CICBeginMission@NGame@@QAE@HHABV?$vector@V?$basic_string@DU?$char_traits@D@std@@V?$allocator@D@_STL@@@_STL@@V?$allocator@V?$basic_string@DU?$char_traits@D@std@@V?$allocator@D@_STL@@@_STL@@@2@@_STL@@PAVCGlobalGame@NRPG@@@Z
??0CICBeginMission@NGame@@QAE@PAVCScenarioZone@NScenario@@HABV?$vector@V?$basic_string@DU?$char_traits@D@std@@V?$allocator@D@_STL@@@_STL@@V?$allocator@V?$basic_string@DU?$char_traits@D@std@@V?$allocator@D@_STL@@@_STL@@@2@@_STL@@PAVCGlobalGame@NRPG@@@Z
??0CICBeginMission@NGame@@QAE@XZ
??0CICCharGen@NGame@@QAE@PAVCSide@NDb@@@Z
??0CICClues@NGame@@QAE@PAVCGlobalGame@NRPG@@@Z
??0CICContainer@NMainLoop@@QAE@ABV?$vector@V?$CPtr@VCInterfaceCommand@NMainLoop@@@@V?$allocator@V?$CPtr@VCInterfaceCommand@NMainLoop@@@@@_STL@@@_STL@@@Z
??0CICContinueChapter@NGame@@QAE@PAVCGlobalGame@NRPG@@@Z
??0CICContinueGlobal@NGame@@QAE@PAVCGlobalGame@NRPG@@@Z
??0CICEndMission@NGame@@QAE@PAVIMission@1@@Z
??0CICExitMenu@NGame@@QAE@PAVCScreenshotTexture@NGScene@@@Z
??0CICExitModal@NMainLoop@@QAE@XZ
??0CICFaceGen@NGame@@QAE@ABV01@@Z
??0CICFaceGen@NGame@@QAE@PAVCSide@NDb@@PAVCRPGPers@3@PAVCComplexHead@3@@Z
??0CICHeroMenu@NGame@@QAE@PAVCSide@NDb@@@Z
??0CICInGameMenu@NGame@@QAE@PAVCGlobalPlayer@NRPG@@@Z
??0CICInterMission@@QAE@ABV0@@Z
??0CICInterMission@@QAE@ABV?$basic_string@DU?$char_traits@D@std@@V?$allocator@D@_STL@@@_STL@@ABV?$basic_string@GU?$char_traits@G@std@@V?$allocator@G@_STL@@@2@@Z
??0CICInterMission@@QAE@XZ
??0CICInterMissionWait@@QAE@ABV0@@Z
??0CICInterMissionWait@@QAE@PAVCUIContainer@NDb@@ABV?$CArray2D@USPixel8888@NGfx@@@@@Z
??0CICInterMissionWait@@QAE@PAVCUITexture@NDb@@@Z
??0CICInterMissionWait@@QAE@XZ
??0CICLoad@NMainLoop@@QAE@ABV01@@Z
??0CICLoad@NMainLoop@@QAE@ABV?$basic_string@DU?$char_traits@D@std@@V?$allocator@D@_STL@@@_STL@@_N@Z
??0CICLoseMenu@NGame@@QAE@PAVCScreenshotTexture@NGScene@@@Z
??0CICMainMenu@NGame@@QAE@XZ
??0CICMapEditBeginMission@NGame@@QAE@HPAVCGlobalGame@NRPG@@@Z
??0CICOptions@NGame@@QAE@ABV01@@Z
??0CICOptions@NGame@@QAE@W4EOptionsScreen@1@PAVCScreenshotTexture@NGScene@@@Z
??0CICProfile@NMainLoop@@QAE@ABV?$basic_string@DU?$char_traits@D@std@@V?$allocator@D@_STL@@@_STL@@@Z
??0CICRadTest@@QAE@PAVIGameView@NGScene@@ABUSCameraPos@ICamera@@@Z
??0CICRadTest@@QAE@XZ
??0CICRadTestRegister0x01552130@@QAE@XZ
??0CICSave@NMainLoop@@QAE@ABV01@@Z
??0CICSave@NMainLoop@@QAE@ABV?$basic_string@DU?$char_traits@D@std@@V?$allocator@D@_STL@@@_STL@@_N@Z
??0CICSaveLoadMenu@NGame@@QAE@W4ESaveLoadType@1@PAVCScreenshotTexture@NGScene@@@Z
??0CICShowClue@NGame@@QAE@ABV01@@Z
??0CICShowClue@NGame@@QAE@PAVCGlobalGame@NRPG@@PAVCScenarioClue@NScenario@@PAVCScreenShot@NUI@@@Z
??0CICShowGlobal@NGame@@QAE@PAVCGlobalGame@NRPG@@@Z
??0CICSideMenu@NGame@@QAE@XZ
??0CICTeamMngMenu@NGame@@QAE@ABV01@@Z
??0CICTeamMngMenu@NGame@@QAE@PAVCGlobalPlayer@NRPG@@PAVIMission@1@@Z
??0CIMAGEHandler@NUI@@QAE@XZ
??0CIMAGEHandlerRegister0xB100323C@@QAE@XZ
??0CIVec3@NBuilding@@QAE@MMM@Z
??0CIconBarSet@NUI@@QAE@ABV01@@Z
??0CIconBarSet@NUI@@QAE@PAVIMission@NGame@@ABV?$vector@V?$CPtr@VCComplexButton@NUI@@@@V?$allocator@V?$CPtr@VCComplexButton@NUI@@@@@_STL@@@_STL@@@Z
??0CIconBarSet@NUI@@QAE@XZ
??0CIdleHandCritical@NRPG@@QAE@ABUSCritical@1@@Z
??0CIdleHandCritical@NRPG@@QAE@XZ
??0CIdleHandCriticalRegister0xA2412181@@QAE@XZ
??0CImage@NUI@@QAE@ABUSWindowInfo@1@@Z
??0CImage@NUI@@QAE@ABV01@@Z
??0CImage@NUI@@QAE@XZ
??0CImageDraw@NUI@@QAE@ABV01@@Z
??0CImageDraw@NUI@@QAE@ABV?$CTRect@H@@PAVCUITexture@NDb@@0ABUSPixel8888@NGfx@@@Z
??0CImageDrawRegister0xB0814161@@QAE@XZ
??0CImageNumber@NUI@@QAE@ABUSWindowInfo@1@W4EType@01@@Z
??0CImageNumber@NUI@@QAE@ABV01@@Z
??0CImageNumber@NUI@@QAE@XZ
??0CImageNumberRegister0xB2243953@@QAE@XZ
??0CImageRegister0xB0241954@@QAE@XZ
??0CInGameMenuInterface@NGame@@QAE@ABV01@@Z
??0CInGameMenuInterface@NGame@@QAE@XZ
??0CInGameMenuInterfaceRegister0xB0905130@@QAE@XZ
??0CInGameMenuUI@NUI@@QAE@ABUSWindowInfo@1@PAVCGlobalPlayer@NRPG@@@Z
??0CInGameMenuUI@NUI@@QAE@XZ
??0CInGameMenuUIRegister0xB0905131@@QAE@XZ
??0CInfoPanelCritical@NUI@@QAE@ABUSWindowInfo@1@@Z
??0CInfoPanelCritical@NUI@@QAE@ABV01@@Z
??0CInfoPanelCritical@NUI@@QAE@XZ
??0CInfoPanelCriticalRegister0xB0241944@@QAE@XZ
??0CInfoPanelMultipleUnits@NUI@@QAE@ABUSWindowInfo@1@PAVIMission@NGame@@@Z
??0CInfoPanelMultipleUnits@NUI@@QAE@ABV01@@Z
??0CInfoPanelMultipleUnits@NUI@@QAE@XZ
??0CInfoPanelMultipleUnitsRegister0xB0521157@@QAE@XZ
??0CInfoPanelSingleUnit@NUI@@QAE@ABUSWindowInfo@1@PAVIMission@NGame@@@Z
??0CInfoPanelSingleUnit@NUI@@QAE@ABV01@@Z
??0CInfoPanelSingleUnit@NUI@@QAE@XZ
??0CInfoPanelSingleUnitRegister0xB0521156@@QAE@XZ
??0CInfoPanelSlot@NUI@@QAE@ABUSWindowInfo@1@PAVIMission@NGame@@W4ESlot@NDb@@@Z
??0CInfoPanelSlot@NUI@@QAE@XZ
??0CInfoPanelSlotRegister0xB0521155@@QAE@XZ
??0CInfoPanelSpecialSlot@NUI@@QAE@ABUSWindowInfo@1@PAVIMission@NGame@@@Z
??0CInfoPanelSpecialSlot@NUI@@QAE@XZ
??0CInfoPanelSpecialSlotRegister0xB052115A@@QAE@XZ
??0CInterMissionInterface@@QAE@ABV0@@Z
??0CInterMissionInterface@@QAE@XZ
??0CInterMissionInterfaceRegister0x02511018@@QAE@XZ
??0CInteractiveUnitView@NUI@@QAE@ABUSWindowInfo@1@PAVIRenderGame@NRender@@@Z
??0CInteractiveUnitView@NUI@@QAE@ABV01@@Z
??0CInteractiveUnitView@NUI@@QAE@XZ
??0CInteractiveUnitViewRegister0xB224395C@@QAE@XZ
??0CInterface@NUI@@QAE@ABV01@@Z
??0CInterface@NUI@@QAE@PAVICursor@1@PAVISoundScene@NSound@@@Z
??0CInterface@NUI@@QAE@XZ
??0CInterfaceCommand@NMainLoop@@QAE@XZ
??0CInterfaceRegister0xB2841123@@QAE@XZ
??0CInventory@NRPG@@QAE@ABV01@@Z
??0CInventory@NRPG@@QAE@PAVCUnit@1@@Z
??0CInventoryAnimator@NAnimation@@QAE@ABV01@@Z
??0CInventoryAnimator@NAnimation@@QAE@KABVCVec3@@0@Z
??0CInventoryAnimator@NAnimation@@QAE@XZ
??0CInventoryAnimatorRegister0x10661180@@QAE@XZ
??0CInventoryItem@NRPG@@QAE@ABV01@@Z
??0CInventoryItem@NRPG@@QAE@PAVCRPGItem@NDb@@@Z
??0CInventoryItem@NRPG@@QAE@XZ
??0CInventoryPanel@NUI@@QAE@ABUSWindowInfo@1@PAVIMission@NGame@@@Z
??0CInventoryPanel@NUI@@QAE@ABV01@@Z
??0CInventoryPanel@NUI@@QAE@XZ
??0CInventoryPanelRegister0xB0521143@@QAE@XZ
??0CInventoryRegister0xE0591410@@QAE@XZ
??0CItem@NRPG@@QAE@ABV01@@Z
??0CItem@NRPG@@QAE@XZ
??0CItemModel@NUI@@QAE@ABUSWindowInfo@1@PAVIMission@NGame@@@Z
??0CItemModel@NUI@@QAE@XZ
??0CItemModelRegister0xB2243959@@QAE@XZ
??0CItemText@NUI@@QAE@ABUSWindowInfo@1@PAVIMission@NGame@@PAVCMissionUI@1@ABUSItem@NWorld@@@Z
??0CItemText@NUI@@QAE@ABV01@@Z
??0CItemText@NUI@@QAE@XZ
??0CItemTextRegister0xB0241947@@QAE@XZ
??0CJUSTIFYHandler@NUI@@QAE@XZ
??0CJUSTIFYHandlerRegister0xB1003233@@QAE@XZ
??0CJunction@NBuilding@@QAE@ABV01@@Z
??0CJunction@NBuilding@@QAE@PAVCBuildingSchema@1@HABUSRodEdge@1@M_N2@Z
??0CJunctionID@NBuilding@@QAE@H@Z
??0CKnifeAnimator@NWorld@@QAE@ABV01@@Z
??0CKnifeAnimator@NWorld@@QAE@KABVCVec3@@0@Z
??0CKnifeAnimator@NWorld@@QAE@XZ
??0CKnifeAnimatorRegister0x10661181@@QAE@XZ
??0CKnifeServer@NWorld@@QAE@PAVCWorld@1@ABVCVec3@@1KMPAVCModel@NDb@@AAVCAttackPortion@NRPG@@PAVIInventoryItem@7@PAVCUnitServer@1@@Z
??0CKnifeServer@NWorld@@QAE@XZ
??0CKnifeServerRegister0x10662182@@QAE@XZ
??0CLEFTHandler@NUI@@QAE@XZ
??0CLEFTHandlerRegister0xB1003230@@QAE@XZ
??0CLODCalcer@NGScene@@QAE@ABV01@@Z
??0CLODCalcer@NGScene@@QAE@ABVCVec3@@PAV?$CFuncBase@VCVec3@@@@@Z
??0CLODCalcer@NGScene@@QAE@XZ
??0CLODCalcerRegister0xF1871801@@QAE@XZ
??0CLUACallParam@NScript@@QAE@ABV01@@Z
??0CLUACallParam@NScript@@QAE@ABV?$basic_string@DU?$char_traits@D@std@@V?$allocator@D@_STL@@@_STL@@@Z
??0CLUACallParam@NScript@@QAE@H@Z
??0CLUACallParam@NScript@@QAE@M@Z
??0CLUACallParam@NScript@@QAE@PAVCObjectBase@@@Z
??0CLUACallParam@NScript@@QAE@XZ
??0CLUACallParamRegister0x51822131@@QAE@XZ
??0CLUAObjectPosition@NScript@@QAE@VCVec3@@@Z
??0CLUAObjectPositionRegister0x52122170@@QAE@XZ
??0CLadderCalcer@NAI@@QAE@PAVCNodesLayer@1@PAVIAIMap@1@PAUSLadder@21@PAV?$vector@DV?$allocator@D@_STL@@@_STL@@@Z
??0CLadderTracker@NAI@@QAE@ABV01@@Z
??0CLadderTracker@NAI@@QAE@PAVIAIMap@1@PAVCNodesLayer@1@HABUSBound@@@Z
??0CLadderTracker@NAI@@QAE@XZ
??0CLadderTrackerRegister0x01352160@@QAE@XZ
??0CLayerColorConstraints@NAI@@QAE@PAVCPathNetwork@1@_NPBH@Z
??0CLayersGroup@NAI@@QAE@ABV01@@Z
??0CLayersGroup@NAI@@QAE@XZ
??0CLayersGroupRegister0x72952151@@QAE@XZ
??0CLayersSetTracker@NAI@@QAE@ABV01@@Z
??0CLayersSetTracker@NAI@@QAE@PAVIAIMap@1@PAVCLayersGroup@1@ABV?$CTPoint@H@@ABUSBound@@@Z
??0CLayersSetTracker@NAI@@QAE@XZ
??0CLayersSetTrackerRegister0x72952150@@QAE@XZ
??0CLevelSwitchBar@NUI@@QAE@ABUSWindowInfo@1@PAVIMission@NGame@@@Z
??0CLevelSwitchBar@NUI@@QAE@ABV01@@Z
??0CLevelSwitchBar@NUI@@QAE@XZ
??0CLevelSwitchBarRegister0xB0241943@@QAE@XZ
??0CLightAnimator@NGScene@@QAE@ABV01@@Z
??0CLightAnimator@NGScene@@QAE@PAVCLightInstance@NDb@@KM@Z
??0CLightAnimator@NGScene@@QAE@XZ
??0CLightAnimatorRegister0x11062160@@QAE@XZ
??0CLightCalcer@NGScene@@QAE@ABV01@@Z
??0CLightCalcer@NGScene@@QAE@HHPAV?$CFuncBase@VCVec3@@@@0PAVCBuildingGrid@NBuilding@@@Z
??0CLightCalcer@NGScene@@QAE@XZ
??0CLightCalcerRegister0x013c1180@@QAE@XZ
??0CLightGroup@NGScene@@QAE@PAVCGScene@1@H@Z
??0CLightGroup@NGScene@@QAE@XZ
??0CLightGroupRegister0x01362120@@QAE@XZ
??0CLightLoader@NGScene@@QAE@XZ
??0CLightLoaderRegister0x11062161@@QAE@XZ
??0CLightState@NGScene@@QAE@ABV01@@Z
??0CLightState@NGScene@@QAE@XZ
??0CLightmapTracker@NGScene@@QAE@XZ
??0CLightmapTrackerRegister0x02592130@@QAE@XZ
??0CLineBar@NUI@@QAE@ABUSWindowInfo@1@@Z
??0CLineBar@NUI@@QAE@ABV01@@Z
??0CLineBar@NUI@@QAE@XZ
??0CLineBarRegister0xB2243951@@QAE@XZ
??0CListView@NUI@@QAE@ABUSWindowInfo@1@@Z
??0CListView@NUI@@QAE@XZ
??0CListViewRegister0xB0241967@@QAE@XZ
??0CLoadGeometryInfo@NAI@@QAE@XZ
??0CLoadGeometryInfoRegister0x012c1160@@QAE@XZ
??0CLoadTwoBSPTrees@NAI@@QAE@XZ
??0CLoadTwoBSPTreesRegister0x73102121@@QAE@XZ
??0CLoadView@NUI@@QAE@ABUSWindowInfo@1@PAVCScreenShot@1@@Z
??0CLoadView@NUI@@QAE@ABV01@@Z
??0CLoadView@NUI@@QAE@XZ
??0CLoadViewRegister0xB1014134@@QAE@XZ
??0CLoader@NUI@@QAE@ABV01@@Z
??0CLoader@NUI@@QAE@XZ
??0CLocalAmbientCalcer@NGScene@@QAE@ABV01@@Z
??0CLocalAmbientCalcer@NGScene@@QAE@XZ
??0CLocalAmbientCalcerRegister0x013c1181@@QAE@XZ
??0CLockable@NGfx@@QAE@XZ
??0CLogPanel@NUI@@QAE@ABUSWindowInfo@1@W4EStreamType@@@Z
??0CLogPanel@NUI@@QAE@ABV01@@Z
??0CLogPanel@NUI@@QAE@XZ
??0CLogPanelRegister0xB0207140@@QAE@XZ
??0CLoseMenuInterface@NGame@@QAE@ABV01@@Z
??0CLoseMenuInterface@NGame@@QAE@XZ
??0CLoseMenuInterfaceRegister0xB1217150@@QAE@XZ
??0CLoseMenuUI@NUI@@QAE@ABUSWindowInfo@1@@Z
??0CLoseMenuUI@NUI@@QAE@XZ
??0CLoseMenuUIRegister0xB1217151@@QAE@XZ
??0CLostWeaponCritical@NRPG@@QAE@ABUSCritical@1@@Z
??0CLostWeaponCritical@NRPG@@QAE@XZ
??0CLostWeaponCriticalRegister0xA2412180@@QAE@XZ
??0CMETerrainInfo@@QAE@ABV0@@Z
??0CMETerrainInfo@@QAE@XZ
??0CMETerrainLoader@@QAE@XZ
??0CMETerrainLoaderRegister0xA2852170@@QAE@XZ
??0CMIDDLEHandler@NUI@@QAE@XZ
??0CMIDDLEHandlerRegister0xB1003237@@QAE@XZ
??0CML@NUI@@QAE@ABV01@@Z
??0CML@NUI@@QAE@XZ
??0CMLImageObject@NUI@@QAE@ABV01@@Z
??0CMLImageObject@NUI@@QAE@PAVCUITexture@NDb@@W4EHORAlign@SState@1@HHH@Z
??0CMLImageObject@NUI@@QAE@XZ
??0CMLImageObjectRegister0xB0829161@@QAE@XZ
??0CMLLayout@NUI@@QAE@ABV01@@Z
??0CMLLayout@NUI@@QAE@XZ
??0CMLLayoutRegister0xB0829162@@QAE@XZ
??0CMLRegister0xB0829163@@QAE@XZ
??0CMLText@NUI@@QAE@ABUSWindowInfo@1@@Z
??0CMLText@NUI@@QAE@XZ
??0CMLTextObject@NUI@@QAE@ABV01@@Z
??0CMLTextObject@NUI@@QAE@ABV?$basic_string@GU?$char_traits@G@std@@V?$allocator@G@_STL@@@_STL@@@Z
??0CMLTextObject@NUI@@QAE@XZ
??0CMLTextObjectRegister0xB0829160@@QAE@XZ
??0CMLTextRegister0xB0241953@@QAE@XZ
??0CMMXAnimationMatrices@NGScene@@QAE@PAV?$CFuncBase@V?$vector@USHMatrix@@V?$allocator@USHMatrix@@@_STL@@@_STL@@@@@Z
??0CMMXAnimationMatricesRegister0x009c2130@@QAE@XZ
??0CMNode@NGScene@@QAE@ABV01@@Z
??0CMNode@NGScene@@QAE@PAV?$CFuncBase@USFBTransform@@@@PAV?$CFuncBase@VCVec3@@@@@Z
??0CMNode@NGScene@@QAE@XZ
??0CMNodeRegister0x00821180@@QAE@XZ
??0CMSRConvert@NGScene@@QAE@ABV01@@Z
??0CMSRConvert@NGScene@@QAE@XZ
??0CMSRConvertRegister0x02511011@@QAE@XZ
??0CMSRNode@NGScene@@QAE@ABV01@@Z
??0CMSRNode@NGScene@@QAE@XZ
??0CMSRNodeRegister0x02511005@@QAE@XZ
??0CMainIconBarSet@NUI@@QAE@ABV01@@Z
??0CMainIconBarSet@NUI@@QAE@PAVIMission@NGame@@ABV?$vector@V?$CPtr@VCComplexButton@NUI@@@@V?$allocator@V?$CPtr@VCComplexButton@NUI@@@@@_STL@@@_STL@@@Z
??0CMainIconBarSet@NUI@@QAE@XZ
??0CMainIconBarSetRegister0xB0830171@@QAE@XZ
??0CMainMenuInterface@NGame@@QAE@ABV01@@Z
??0CMainMenuInterface@NGame@@QAE@XZ
??0CMainMenuInterfaceRegister0xB2540912@@QAE@XZ
??0CMainMenuUI@NUI@@QAE@ABUSWindowInfo@1@@Z
??0CMainMenuUI@NUI@@QAE@ABV01@@Z
??0CMainMenuUI@NUI@@QAE@XZ
??0CMainMenuUIRegister0xB2540910@@QAE@XZ
??0CMapBuilder@?A0xaa01e5fa@@QAE@PAUSMapInfo@@PAVIPathNetwork@NAI@@USRandomSeed@@@Z
??0CMapColourer@NAI@@QAE@ABV01@@Z
??0CMapColourer@NAI@@QAE@XZ
??0CMapColourerRegister0x70142160@@QAE@XZ
??0CMapWaypoint@@QAE@ABV0@@Z
??0CMapWaypoint@@QAE@XZ
??0CMaterialShare@NGScene@@QAE@ABV01@@Z
??0CMaterialShare@NGScene@@QAE@XZ
??0CMaterialShareRegister0x01671182@@QAE@XZ
??0CMayaCamera@@QAE@M@Z
??0CMayaCameraRegister0xA2912170@@QAE@XZ
??0CMeleeToHitCalcer@NRPG@@QAE@ABV01@@Z
??0CMeleeToHitCalcer@NRPG@@QAE@XZ
??0CMeleeToHitCalcerRegister0x51642170@@QAE@XZ
??0CMeleeWeaponItem@NRPG@@QAE@ABV01@@Z
??0CMeleeWeaponItem@NRPG@@QAE@PAVCRPGMeleeWeapon@NDb@@@Z
??0CMeleeWeaponItem@NRPG@@QAE@XZ
??0CMeleeWeaponItemRegister0xA1512132@@QAE@XZ
??0CMemGeometry@NGScene@@QAE@ABV?$vector@VCVec3@@V?$allocator@VCVec3@@@_STL@@@_STL@@@Z
??0CMemGeometry@NGScene@@QAE@XZ
??0CMemGeometryInfo@NAI@@QAE@ABV01@@Z
??0CMemGeometryInfo@NAI@@QAE@PAVCMemObject@@@Z
??0CMemGeometryInfoRegister0x012c1161@@QAE@XZ
??0CMemGeometryRegister0x02911170@@QAE@XZ
??0CMemObject@@QAE@ABV0@@Z
??0CMemObject@@QAE@XZ
??0CMemObjectBuilder@@QAE@PAVCMemObject@@@Z
??0CMemObjectInfo@NGScene@@QAE@ABV01@@Z
??0CMemObjectInfo@NGScene@@QAE@ABV?$vector@USTriangle@@V?$allocator@USTriangle@@@_STL@@@_STL@@ABV?$vector@VCVec3@@V?$allocator@VCVec3@@@_STL@@@3@1@Z
??0CMemObjectInfo@NGScene@@QAE@XZ
??0CMemObjectInfoRegister0x02911172@@QAE@XZ
??0CMeshBound@NGScene@@QAE@ABV01@@Z
??0CMeshBound@NGScene@@QAE@PAV?$CFuncBase@V?$vector@USHMatrix@@V?$allocator@USHMatrix@@@_STL@@@_STL@@@@@Z
??0CMeshBoundRegister0x12061180@@QAE@XZ
??0CMine@NWorld@@QAE@PAVCWorld@1@ABVCVec3@@PAVCRPGMine@NDb@@HH@Z
??0CMine@NWorld@@QAE@XZ
??0CMineRegister0x019c2120@@QAE@XZ
??0CMineTracker@NWorld@@QAE@XZ
??0CMineTrackerRegister0x019c2170@@QAE@XZ
??0CMission@NGame@@QAE@ABV01@@Z
??0CMission@NGame@@QAE@XZ
??0CMissionDlgUI@NUI@@QAE@ABUSWindowInfo@1@PAVIMission@NGame@@PAVCDesktopWindow@1@ABV?$basic_string@DU?$char_traits@D@std@@V?$allocator@D@_STL@@@_STL@@ABV?$vector@V?$CObj@VCUnit@NWorld@@@@V?$allocator@V?$CObj@VCUnit@NWorld@@@@@_STL@@@7@ABV?$vector@V?$CPtr@VCAckEvent@NWorld@@@@V?$allocator@V?$CPtr@VCAckEvent@NWorld@@@@@_STL@@@7@@Z
??0CMissionDlgUI@NUI@@QAE@XZ
??0CMissionDlgUIRegister0xB1211180@@QAE@XZ
??0CMissionMovieUI@NUI@@QAE@ABUSWindowInfo@1@PAVIMission@NGame@@PAVCDesktopWindow@1@@Z
??0CMissionMovieUI@NUI@@QAE@XZ
??0CMissionMovieUIRegister0xB1212160@@QAE@XZ
??0CMissionRegister0xB251121B@@QAE@XZ
??0CMissionTrailerUI@NUI@@QAE@ABUSWindowInfo@1@PAVIMission@NGame@@PAVCDesktopWindow@1@@Z
??0CMissionTrailerUI@NUI@@QAE@XZ
??0CMissionTrailerUIRegister0xB3114160@@QAE@XZ
??0CMissionUI@NUI@@QAE@ABUSWindowInfo@1@PAVIMission@NGame@@@Z
??0CMissionUI@NUI@@QAE@XZ
??0CMissionUIRegister0xB0241942@@QAE@XZ
??0CMixedMaterial@NBuilding@@QAE@XZ
??0CModel@NUI@@QAE@ABUSWindowInfo@1@@Z
??0CModel@NUI@@QAE@ABV01@@Z
??0CModel@NUI@@QAE@XZ
??0CModelDraw@NUI@@QAE@ABV01@@Z
??0CModelDraw@NUI@@QAE@ABV?$CTRect@H@@PAVCModel@NDb@@PAVCFBTransform@@@Z
??0CModelDrawRegister0xB0814163@@QAE@XZ
??0CModelRegister0xB0241955@@QAE@XZ
??0CMotionlessCritical@NRPG@@QAE@ABUSCritical@1@@Z
??0CMotionlessCritical@NRPG@@QAE@XZ
??0CMotionlessCriticalRegister0xA2112180@@QAE@XZ
??0CMouseCaptureHandler@NUI@@QAE@PAVCInterface@1@PAVCWindow@1@@Z
??0CMouseCaptureHandler@NUI@@QAE@XZ
??0CMouseCaptureHandlerRegister0xB2841122@@QAE@XZ
??0CMoveAnimator@NAnimation@@QAE@ABV01@@Z
??0CMoveAnimator@NAnimation@@QAE@KABVCVec3@@M0M@Z
??0CMoveAnimator@NAnimation@@QAE@XZ
??0CMoveAnimatorRegister0x12041188@@QAE@XZ
??0CMovesCalcer@NAI@@QAE@PAVCNodesLayer@1@PAVIAIMap@1@ABV?$CTRect@H@@AAU?$STempArrayGroup@USTile@NAI@@@1@HHPAVCCollider@1@@Z
??0CMovesEnumerator@NAI@@QAE@PAVIPathNetwork@1@PBH_N22@Z
??0CMultiMovesTable@NAI@@QAE@ABV01@@Z
??0CMultiMovesTable@NAI@@QAE@XZ
??0CMusic@NSound@@QAE@ABV01@@Z
??0CMusic@NSound@@QAE@XZ
??0CNodesLayer@NAI@@QAE@ABV01@@Z
??0CNodesLayer@NAI@@QAE@XZ
??0CNodesLayerProxy@NAI@@QAE@ABV01@@Z
??0CNodesLayerProxy@NAI@@QAE@PAVCNodesLayer@1@PAVIAIMap@1@@Z
??0CNodesLayerProxy@NAI@@QAE@XZ
??0CNodesLayerProxyRegister0x70142161@@QAE@XZ
??0CNodesLayerRegister0x00941130@@QAE@XZ
??0CNonePart@NGScene@@QAE@ABV01@@Z
??0CNonePart@NGScene@@QAE@PAV?$CPtrFuncBase@VCObjectInfo@NGScene@@@@PAVIMaterial@1@ABUSFullGroupInfo@1@@Z
??0CNonePart@NGScene@@QAE@XZ
??0CNonePartRegister0x02662160@@QAE@XZ
??0CObject@NRPG@@QAE@ABV01@@Z
??0CObject@NRPG@@QAE@HPAVCModel@NDb@@H@Z
??0CObject@NRPG@@QAE@XZ
??0CObjectBase@@QAE@ABV0@@Z
??0CObjectBase@@QAE@XZ
??0CObjectInfo@NGScene@@QAE@ABV01@@Z
??0CObjectInfo@NGScene@@QAE@XZ
??0CObjectInfoLoader@NGScene@@QAE@XZ
??0CObjectInfoLoaderRegister0x02741123@@QAE@XZ
??0CObjectInfoPieces@NGScene@@QAE@XZ
??0CObjectInfoPiecesLoader@NGScene@@QAE@XZ
??0CObjectInfoPiecesLoaderRegister0x02741130@@QAE@XZ
??0CObjectInfoProcessor@NGScene@@QAE@PAUSData@CObjectInfo@1@ABV31@@Z
??0CObjectRegister0x02781180@@QAE@XZ
??0CObjectServer@NWorld@@QAE@PAVCWorld@1@ABUSObjectPlace@1@_NPAVCObject@NDb@@PAVIObject@NRPG@@ABV?$vector@HV?$allocator@H@_STL@@@_STL@@2@Z
??0CObjectServer@NWorld@@QAE@XZ
??0CObjectServerBase@NWorld@@QAE@PAVCWorld@1@ABUSObjectPlace@1@_NPAVCObject@NDb@@PAVIObject@NRPG@@ABV?$vector@HV?$allocator@H@_STL@@@_STL@@2@Z
??0CObjectServerBase@NWorld@@QAE@XZ
??0CObjectServerRegister0x11291180@@QAE@XZ
??0CObjectSet@NGScene@@QAE@XZ
??0CObjectToHitCalcer@NRPG@@QAE@PAVIUnitMission@1@W4EPose@NAI@@HVCVec3@@HH_N2H@Z
??0CObjectToHitCalcer@NRPG@@QAE@XZ
??0CObjectToHitCalcerRegister0x52132180@@QAE@XZ
??0COccluderMaterial@NGScene@@QAE@XZ
??0COccluderMaterialRegister0x020A2170@@QAE@XZ
??0COptionsInterface@NGame@@QAE@ABV01@@Z
??0COptionsInterface@NGame@@QAE@XZ
??0COptionsInterfaceRegister0xB081515A@@QAE@XZ
??0COptionsUI@NUI@@QAE@ABUSWindowInfo@1@W4EOptionsScreen@NGame@@@Z
??0COptionsUI@NUI@@QAE@XZ
??0COptionsUIRegister0xB0815150@@QAE@XZ
??0CPackageResource@NGScene@@QAE@PAVIFilesPackage@@H@Z
??0CPanzerkleinCritical@NRPG@@QAE@ABUSCritical@1@@Z
??0CPanzerkleinCritical@NRPG@@QAE@XZ
??0CPanzerkleinCriticalRegister0x71502140@@QAE@XZ
??0CPartBuilder@NTerrain@@QAE@ABUSGroup@1@ABUSMapHole@@PAV?$CFuncBase@USTerrainInfo@@@@PAVCVersioningBase@@@Z
??0CPartBuilder@NTerrain@@QAE@ABV01@@Z
??0CPartBuilder@NTerrain@@QAE@XZ
??0CPartBuilderRegister0x13051813@@QAE@XZ
??0CParticleAnimator@NGScene@@QAE@ABV01@@Z
??0CParticleAnimator@NGScene@@QAE@PAVCParticleInstance@NDb@@K@Z
??0CParticleAnimator@NGScene@@QAE@XZ
??0CParticleAnimatorRegister0x27041142@@QAE@XZ
??0CParticleEffect@NGScene@@QAE@ABV01@@Z
??0CParticleEffect@NGScene@@QAE@XZ
??0CParticleSkeleton@NAnimation@@QAE@ABV01@@Z
??0CParticleSkeleton@NAnimation@@QAE@PAVCCInt@NGScene@@PAV?$CPtrFuncBase@VCFileSkeletonInfo@NAnimation@@@@@Z
??0CParticleSkeleton@NAnimation@@QAE@XZ
??0CParticleSkeletonRegister0x10441191@@QAE@XZ
??0CParticleWaveTexture@NGScene@@QAE@XZ
??0CParticles@NGScene@@QAE@PAV?$CPtrFuncBase@VCParticleEffect@NGScene@@@@PAV?$CFuncBase@USFBTransform@@@@ABUSBound@@ABUSGroupInfo@1@H@Z
??0CParticles@NGScene@@QAE@XZ
??0CParticlesInfo@NGScene@@QAE@ABV01@@Z
??0CParticlesInfo@NGScene@@QAE@XZ
??0CParticlesLoader@NGScene@@QAE@XZ
??0CParticlesLoaderRegister0x02541140@@QAE@XZ
??0CParticlesRegister0x27041130@@QAE@XZ
??0CParticlesTriList@NGScene@@QAE@XZ
??0CParticlesTriListRegister0x01561150@@QAE@XZ
??0CPartsRender@NGScene@@QAE@HH@Z
??0CPassCalcer@NAI@@QAE@PAVCPathNetwork@1@PAVCLayersGroup@1@PAVIAIMap@1@AAU?$STempArrayGroup@USTile@NAI@@@1@ABV?$CTRect@H@@@Z
??0CPassCalcerJob@NAI@@QAE@ABV01@@Z
??0CPassCalcerJob@NAI@@QAE@PAVIAIMap@1@PAVCLayersGroup@1@ABUSPathPlace@1@@Z
??0CPassCalcerJob@NAI@@QAE@XZ
??0CPassageObject@NWorld@@QAE@PAVCWorld@1@ABUSObjectPlace@1@_NPAVCObject@NDb@@PAVIObject@NRPG@@HHHABV?$vector@HV?$allocator@H@_STL@@@_STL@@@Z
??0CPassageObject@NWorld@@QAE@XZ
??0CPassageObjectBase@NWorld@@QAE@HHH@Z
??0CPassageObjectBase@NWorld@@QAE@XZ
??0CPassageObjectRegister0x51412110@@QAE@XZ
??0CPath@NAI@@QAE@ABV01@@Z
??0CPath@NAI@@QAE@XZ
??0CPathAPCalcer@NWorld@@QAE@PAVCWorld@1@PAVIUnitMission@NRPG@@ABUSUnitPosition@NAI@@_N@Z
??0CPathInterpolator@NAnimation@@QAE@AAVCVec3@@M@Z
??0CPathInterpolator@NAnimation@@QAE@ABV01@HH@Z
??0CPathInterpolator@NAnimation@@QAE@ABV?$vector@VCVec2@@V?$allocator@VCVec2@@@_STL@@@_STL@@@Z
??0CPathInterpolator@NAnimation@@QAE@ABV?$vector@VCVec3@@V?$allocator@VCVec3@@@_STL@@@_STL@@@Z
??0CPathInterpolator@NAnimation@@QAE@XZ
??0CPathInterpolatorRegister0x01041130@@QAE@XZ
??0CPathNetwork@NAI@@QAE@ABV01@@Z
??0CPathNetwork@NAI@@QAE@PAVIAIMap@1@PAVIAIJobManager@1@@Z
??0CPathNetworkRegister0x01041150@@QAE@XZ
??0CPathPlaceTable@NAI@@QAE@XZ
??0CPathRegister0x00641180@@QAE@XZ
??0CPathViewer@NWorld@@QAE@ABV01@@Z
??0CPathViewer@NWorld@@QAE@PAVCUnitServer@1@@Z
??0CPathViewer@NWorld@@QAE@XZ
??0CPathViewerRegister0x02682140@@QAE@XZ
??0CPatientCritical@NRPG@@QAE@ABUSCritical@1@@Z
??0CPatientCritical@NRPG@@QAE@XZ
??0CPatientCriticalRegister0x50642130@@QAE@XZ
??0CPerMaterialCombiner@NGScene@@QAE@PAUSStaticTrackers@1@@Z
??0CPerMaterialCombiner@NGScene@@QAE@XZ
??0CPerMaterialCombinerRegister0x02741133@@QAE@XZ
??0CPerPolyDecal@NGScene@@QAE@ABV01@@Z
??0CPerPolyDecal@NGScene@@QAE@PAVIPart@1@ABV?$vector@VCVec3@@V?$allocator@VCVec3@@@_STL@@@_STL@@@Z
??0CPerPolyDecal@NGScene@@QAE@XZ
??0CPerPolyDecalBuilder@NGScene@@QAE@PAUSData@CObjectInfo@1@ABV31@ABV?$vector@VCVec3@@V?$allocator@VCVec3@@@_STL@@@_STL@@ABVCVec3@@3ABVCVec2@@MV7@@Z
??0CPerPolyDecalGeometry@NGScene@@QAE@ABV01@@Z
??0CPerPolyDecalGeometry@NGScene@@QAE@PAVIPart@1@ABV?$vector@VCVec3@@V?$allocator@VCVec3@@@_STL@@@_STL@@ABVCVec3@@2ABVCVec2@@M3@Z
??0CPerPolyDecalGeometry@NGScene@@QAE@XZ
??0CPerPolyDecalGeometryRegister0x006c2160@@QAE@XZ
??0CPerk@NRPG@@QAE@ABV01@@Z
??0CPerk@NRPG@@QAE@PAVCDBPerk@NDb@@@Z
??0CPerk@NRPG@@QAE@XZ
??0CPerkButton@NUI@@QAE@ABUSWindowInfo@1@PAVCPerk@NRPG@@@Z
??0CPerkButton@NUI@@QAE@ABV01@@Z
??0CPerkRegister0x52612060@@QAE@XZ
??0CPerksPanel@NUI@@QAE@ABUSWindowInfo@1@PAVIMission@NGame@@@Z
??0CPerksPanel@NUI@@QAE@ABV01@@Z
??0CPerksPanel@NUI@@QAE@XZ
??0CPerksPanelRegister0xB1202130@@QAE@XZ
??0CPerksPanelView@NUI@@QAE@ABUSWindowInfo@1@PAVIMission@NGame@@PAVCUnit@NWorld@@@Z
??0CPerksPanelView@NUI@@QAE@ABV01@@Z
??0CPerksPanelView@NUI@@QAE@XZ
??0CPerksPanelViewRegister0xB1202131@@QAE@XZ
??0CPerksTree@NRPG@@QAE@ABV01@@Z
??0CPerksTree@NRPG@@QAE@H@Z
??0CPerksTreeRegister0x52612151@@QAE@XZ
??0CPhysCollider@NAI@@QAE@XZ
??0CPlayer@NWorld@@QAE@ABV01@@Z
??0CPlayer@NWorld@@QAE@ABV?$basic_string@GU?$char_traits@G@std@@V?$allocator@G@_STL@@@_STL@@PAVCGlobalGame@NRPG@@PAVCGlobalPlayer@5@H@Z
??0CPlayer@NWorld@@QAE@XZ
??0CPlayerRegister0x02731131@@QAE@XZ
??0CPlayerTracker@NGame@@QAE@ABV01@@Z
??0CPlayerTracker@NGame@@QAE@PAVIMission@1@PAVCGlobalPlayer@NRPG@@ABV?$basic_string@GU?$char_traits@G@std@@V?$allocator@G@_STL@@@_STL@@@Z
??0CPlayerTracker@NGame@@QAE@XZ
??0CPlayerTrackerRegister0xB2022800@@QAE@XZ
??0CPointGlowAnimator@NGScene@@QAE@ABV01@@Z
??0CPointGlowAnimator@NGScene@@QAE@PAVIGScene@1@PAV?$CFuncBase@K@@PAV?$CFuncBase@VCVec3@@@@PAV?$CPtrFuncBase@VCTexture@NGfx@@@@MMM@Z
??0CPointGlowAnimator@NGScene@@QAE@XZ
??0CPointGlowAnimatorRegister0x114a2181@@QAE@XZ
??0CPointGlowEffect@NGScene@@QAE@ABV01@@Z
??0CPointGlowEffect@NGScene@@QAE@XZ
??0CPointGlowEffectRegister0x114a2180@@QAE@XZ
??0CPointLight@NGScene@@QAE@ABV01@@Z
??0CPointLight@NGScene@@QAE@ABVCVec3@@0MPAVCVersioningBase@@_N@Z
??0CPointLight@NGScene@@QAE@XZ
??0CPointLightRegister0x01961170@@QAE@XZ
??0CPolyClipper@@QAE@XZ
??0CPolyline@NGScene@@QAE@XZ
??0CPolylineRegister0x03111000@@QAE@XZ
??0CPosNode@NGScene@@QAE@ABV01@@Z
??0CPosNode@NGScene@@QAE@PAV?$CFuncBase@V?$CTRect@H@@@@@Z
??0CPosNode@NGScene@@QAE@XZ
??0CPosNodeRegister0xF2005170@@QAE@XZ
??0CPoseIconBarSet@NUI@@QAE@PAVIMission@NGame@@ABV?$vector@V?$CPtr@VCComplexButton@NUI@@@@V?$allocator@V?$CPtr@VCComplexButton@NUI@@@@@_STL@@@_STL@@@Z
??0CPoseIconBarSet@NUI@@QAE@XZ
??0CPoseIconBarSetRegister0xB0830172@@QAE@XZ
??0CPostColorer@NGScene@@QAE@PAV?$CFuncBase@VCVec4@@@@@Z
??0CPostColorerRegister0x022a2151@@QAE@XZ
??0CPostProcessBinder@NGScene@@QAE@ABV01@@Z
??0CPostProcessBinder@NGScene@@QAE@XZ
??0CPostProcessBinderRegister0x020a2190@@QAE@XZ
??0CPostWorldCreateInfo@NWorld@@QAE@XZ
??0CPotionContainer@NRPG@@QAE@ABV01@@Z
??0CPotionContainer@NRPG@@QAE@XZ
??0CPotionContainerRegister0xA2312141@@QAE@XZ
??0CPotionItem@NRPG@@QAE@ABV01@@Z
??0CPotionItem@NRPG@@QAE@XZ
??0CPotionItemRegister0xA2312140@@QAE@XZ
??0CPreciseTranspRender@NGScene@@QAE@PAVCRenderContext@NGfx@@PAV?$vector@USTransparentInfo@NGScene@@V?$allocator@USTransparentInfo@NGScene@@@_STL@@@_STL@@PAV?$vector@MV?$allocator@M@_STL@@@5@PAV?$vector@HV?$allocator@H@_STL@@@5@@Z
??0CProgressBar@NUI@@QAE@ABUSWindowInfo@1@@Z
??0CProgressBar@NUI@@QAE@XZ
??0CProgressBarRegister0xB024196B@@QAE@XZ
??0CProjectedText@NUI@@QAE@ABUSWindowInfo@1@HABVCVec3@@PAVIMission@NGame@@@Z
??0CProjectedText@NUI@@QAE@ABV01@@Z
??0CProjectedText@NUI@@QAE@XZ
??0CProjectedTextRegister0x12221221@@QAE@XZ
??0CPushButton@NUI@@QAE@ABUSWindowInfo@1@@Z
??0CPushButton@NUI@@QAE@XZ
??0CPushButtonRegister0xB0241962@@QAE@XZ
??0CQuadTreeElement@NCache@@QAE@HHHH@Z
??0CQuadTreeElement@NCache@@QAE@XZ
??0CQuat@@QAE@MABVCVec3@@_N@Z
??0CQuat@@QAE@MMMM@Z
??0CQuat@@QAE@XZ
??0CRIGHTHandler@NUI@@QAE@XZ
??0CRIGHTHandlerRegister0xB1003231@@QAE@XZ
??0CRLauncherToHitCalcer@NRPG@@QAE@PAVIUnitMission@1@W4EPose@NAI@@HVCVec3@@H_N2W4ETileHitLocation@4@2@Z
??0CRLauncherToHitCalcer@NRPG@@QAE@XZ
??0CRLauncherToHitCalcerRegister0x72762140@@QAE@XZ
??0CRandomSector@NUI@@QAE@ABUSWindowInfo@1@PAVIChapterMap@NGame@@ABUSChapterSector@@@Z
??0CRandomSector@NUI@@QAE@ABV01@@Z
??0CRandomSector@NUI@@QAE@XZ
??0CRandomSectorRegister0xB2606154@@QAE@XZ
??0CRay@@QAE@XZ
??0CRecognitionAttribute@NAI@@QAE@XZ
??0CRecognitionAttributeRegister0x50392112@@QAE@XZ
??0CRecognitionClass@NAI@@QAE@XZ
??0CRecognitionClassRegister0x50392111@@QAE@XZ
??0CRecognizer@NAI@@QAE@XZ
??0CRecognizerRegister0x50392110@@QAE@XZ
??0CRecountColourerJob@NAI@@QAE@ABV01@@Z
??0CRecountColourerJob@NAI@@QAE@PAVCLayersGroup@1@@Z
??0CRectLayout@@QAE@ABV0@@Z
??0CRectLayout@@QAE@XZ
??0CRects@NGScene@@QAE@ABV01@@Z
??0CRects@NGScene@@QAE@XZ
??0CRects@NGScene@@QAE@_NPAV?$CPtrFuncBase@VCTexture@NGfx@@@@PAV?$CFuncBase@VCRectLayout@@@@@Z
??0CRectsRegister0xF2005175@@QAE@XZ
??0CRenderBaseInterface@NGame@@QAE@ABV01@@Z
??0CRenderBaseInterface@NGame@@QAE@XZ
??0CRenderBaseInterfaceRegister0xB3140918@@QAE@XZ
??0CRenderCmdList@NGScene@@QAE@XZ
??0CRenderContext@NGfx@@QAE@ABV01@@Z
??0CRenderContext@NGfx@@QAE@XZ
??0CRenderGame@NRender@@QAE@ABV01@@Z
??0CRenderGame@NRender@@QAE@PAVIWorld@NWorld@@PAVIGameView@NGScene@@@Z
??0CRenderGame@NRender@@QAE@XZ
??0CRenderGameRegister0x01941130@@QAE@XZ
??0CRenderNode@NGScene@@QAE@XZ
??0CRenderNodeRegister0x01741141@@QAE@XZ
??0CRenderSound@NRender@@QAE@ABV01@@Z
??0CRenderSound@NRender@@QAE@PAVIWorld@NWorld@@PAVISoundScene@NSound@@@Z
??0CRenderSound@NRender@@QAE@XZ
??0CRenderSoundRegister0x03081142@@QAE@XZ
??0CRenderWrapper@NGScene@@QAE@PAVCGScene@1@@Z
??0CResourceFileOpener@NGScene@@QAE@PBDABUSPartKey@1@@Z
??0CResourceFileOpener@NGScene@@QAE@PBDH@Z
??0CResourceOpener@NGScene@@QAE@PBDH@Z
??0CResourcePrecacheRegister0x028b2120@@QAE@XZ
??0CResourcePrecacheRegister0x028b2121@@QAE@XZ
??0CResourcePrecacheRegister0x028b2122@@QAE@XZ
??0CResourcePrecacheRegister0x028b2140@@QAE@XZ
??0CResourcePrecacheRegister0x028b2141@@QAE@XZ
??0CResourcePrecacheRegister0x028b2142@@QAE@XZ
??0CResourcePrecacheRegister0x028b2144@@QAE@XZ
??0CResourcePrecacheRegister0x028b2170@@QAE@XZ
??0CResourceTracker@NGScene@@QAE@PBD@Z
??0CRocketAnimator@NWorld@@QAE@ABV01@@Z
??0CRocketAnimator@NWorld@@QAE@KABVCVec3@@0@Z
??0CRocketAnimator@NWorld@@QAE@XZ
??0CRocketAnimatorRegister0x73062151@@QAE@XZ
??0CRocketFlameAnimator@NWorld@@QAE@KABVCVec3@@0@Z
??0CRocketServer@NWorld@@QAE@PAVCWorld@1@ABVCVec3@@1KMPAVCModel@NDb@@AAVCAttackPortion@NRPG@@PAVIClipItem@7@PAVCUnitServer@1@PAVCEffect@5@@Z
??0CRocketServer@NWorld@@QAE@XZ
??0CRocketServerRegister0x73062152@@QAE@XZ
??0CRod@NBuilding@@QAE@PAVCBuildingSchema@1@VCJunctionID@1@1@Z
??0CRoulette@@QAE@XZ
??0CSW2DScene@NGScene@@QAE@XZ
??0CSW2DSceneRegister0xF3005172@@QAE@XZ
??0CSWRectLayout@NGScene@@QAE@ABV01@@Z
??0CSWRectLayout@NGScene@@QAE@XZ
??0CSWRects@NGScene@@QAE@ABV01@@Z
??0CSWRects@NGScene@@QAE@PAV?$CFuncBase@VCSWRectLayout@NGScene@@@@PAV?$CPtrFuncBase@VCSWTextureData@NGScene@@@@1@Z
??0CSWRects@NGScene@@QAE@XZ
??0CSWRectsRegister0xF3005171@@QAE@XZ
??0CSWSpot@NGScene@@QAE@ABV01@@Z
??0CSWSpot@NGScene@@QAE@ABVCVec2@@0MPAV?$CPtrFuncBase@VCSWTextureData@NGScene@@@@1@Z
??0CSWSpot@NGScene@@QAE@XZ
??0CSWSpotRegister0xF3005173@@QAE@XZ
??0CSWTexture@NGScene@@QAE@ABV01@@Z
??0CSWTexture@NGScene@@QAE@XZ
??0CSWTextureData@NGScene@@QAE@ABV01@@Z
??0CSWTextureData@NGScene@@QAE@XZ
??0CSWTextureRegister0xF0821150@@QAE@XZ
??0CSaveLoadItem@NUI@@QAE@ABUSWindowInfo@1@ABV?$basic_string@DU?$char_traits@D@std@@V?$allocator@D@_STL@@@_STL@@@Z
??0CSaveLoadItem@NUI@@QAE@XZ
??0CSaveLoadItemRegister0xB1014132@@QAE@XZ
??0CSaveLoadMenuInterface@NGame@@QAE@ABV01@@Z
??0CSaveLoadMenuInterface@NGame@@QAE@XZ
??0CSaveLoadMenuInterfaceRegister0xB1014130@@QAE@XZ
??0CSaveLoadUI@NUI@@QAE@ABUSWindowInfo@1@ABV?$CArray2D@USPixel8888@NGfx@@@@@Z
??0CSaveLoadUI@NUI@@QAE@ABV01@@Z
??0CSaveLoadUI@NUI@@QAE@XZ
??0CSaveLoadUIRegister0xB1014131@@QAE@XZ
??0CSaveManager@NMainLoop@@QAE@XZ
??0CSaveView@NUI@@QAE@ABUSWindowInfo@1@PAVCScreenShot@1@@Z
??0CSaveView@NUI@@QAE@ABV01@@Z
??0CSaveView@NUI@@QAE@XZ
??0CSaveViewRegister0xB1014135@@QAE@XZ
??0CScaleConverter@NAI@@QAE@XZ
??0CScaleConverterPoint@NAI@@QAE@MM@Z
??0CScaleConverterPoint@NAI@@QAE@XZ
??0CScaleConverterPointRegister0x52822135@@QAE@XZ
??0CScaleConverterRegister0x52822136@@QAE@XZ
??0CScaleNode@NGScene@@QAE@ABV01@@Z
??0CScaleNode@NGScene@@QAE@XZ
??0CScaleNodeRegister0x12341181@@QAE@XZ
??0CScenarioClue@NScenario@@QAE@ABV01@@Z
??0CScenarioClue@NScenario@@QAE@PAVCDBScenarioClue@NDb@@H@Z
??0CScenarioClue@NScenario@@QAE@XZ
??0CScenarioClueRegister0x50982102@@QAE@XZ
??0CScenarioFlowChart@NScenario@@QAE@ABV01@@Z
??0CScenarioFlowChart@NScenario@@QAE@H_N@Z
??0CScenarioFlowChart@NScenario@@QAE@XZ
??0CScenarioFlowChartBase@NScenario@@QAE@ABV01@@Z
??0CScenarioFlowChartBase@NScenario@@QAE@H_N@Z
??0CScenarioFlowChartBase@NScenario@@QAE@XZ
??0CScenarioFlowChartBaseRegister0x50302100@@QAE@XZ
??0CScenarioFlowChartItemsListRegister0x50102140@@QAE@XZ
??0CScenarioFlowChartItemsListRegister0x50102141@@QAE@XZ
??0CScenarioFlowChartPathFinder@NScenario@@QAE@ABV01@@Z
??0CScenarioFlowChartPathFinder@NScenario@@QAE@PAVCScenarioFlowChartBase@1@@Z
??0CScenarioFlowChartPathFinder@NScenario@@QAE@XZ
??0CScenarioFlowChartPathFinderRegister0x53092110@@QAE@XZ
??0CScenarioFlowChartRegister0x50982100@@QAE@XZ
??0CScenarioFlowChartState@NScenario@@QAE@ABV01@@Z
??0CScenarioFlowChartState@NScenario@@QAE@PAV01@@Z
??0CScenarioFlowChartState@NScenario@@QAE@PAVCScenarioFlowChartPathFinder@1@@Z
??0CScenarioFlowChartState@NScenario@@QAE@XZ
??0CScenarioFlowChartStateRegister0x52792140@@QAE@XZ
??0CScenarioObjective@NScenario@@QAE@ABV01@@Z
??0CScenarioObjective@NScenario@@QAE@PAVCDBScenarioObjective@NDb@@H@Z
??0CScenarioObjective@NScenario@@QAE@XZ
??0CScenarioObjectiveRegister0x50982103@@QAE@XZ
??0CScenarioTracker@NScenario@@QAE@ABV01@@Z
??0CScenarioTracker@NScenario@@QAE@XZ
??0CScenarioTrackerRegister0x51582120@@QAE@XZ
??0CScenarioZone@NScenario@@QAE@ABV01@@Z
??0CScenarioZone@NScenario@@QAE@PAVCDBScenarioZone@NDb@@H@Z
??0CScenarioZone@NScenario@@QAE@XZ
??0CScenarioZoneRegister0x50982101@@QAE@XZ
??0CSceneFragments@NGScene@@QAE@XZ
??0CSchemaObject@@QAE@ABV0@@Z
??0CSchemaObject@@QAE@XZ
??0CScreenShot@NUI@@QAE@ABUSWindowInfo@1@@Z
??0CScreenShot@NUI@@QAE@XZ
??0CScreenShotRegister0xB024196C@@QAE@XZ
??0CScreenshotTexture@NGScene@@QAE@ABV01@@Z
??0CScreenshotTexture@NGScene@@QAE@XZ
??0CScreenshotTextureRegister0xB2030101@@QAE@XZ
??0CScript@NScript@@QAE@XZ
??0CScriptButton@NUI@@QAE@ABUSWindowInfo@1@PAVCRenderBaseInterface@NGame@@@Z
??0CScriptButton@NUI@@QAE@ABV01@@Z
??0CScriptButton@NUI@@QAE@XZ
??0CScriptButtonRegister0xB1112191@@QAE@XZ
??0CScriptHoverButton@NUI@@QAE@ABUSWindowInfo@1@PAVCRenderBaseInterface@NGame@@@Z
??0CScriptHoverButton@NUI@@QAE@ABV01@@Z
??0CScriptHoverButton@NUI@@QAE@XZ
??0CScriptHoverButtonRegister0xB1112181@@QAE@XZ
??0CScriptRegister0x70652130@@QAE@XZ
??0CScroll@NUI@@QAE@ABUSWindowInfo@1@@Z
??0CScroll@NUI@@QAE@ABV01@@Z
??0CScroll@NUI@@QAE@XZ
??0CScrollRegister0xB0241966@@QAE@XZ
??0CScrollWindowBase@NUI@@QAE@ABUSWindowInfo@1@@Z
??0CScrollWindowBase@NUI@@QAE@ABV01@@Z
??0CScrollWindowBase@NUI@@QAE@XZ
??0CScrollWindowBaseRegister0xB2243957@@QAE@XZ
??0CScrollWindowRegister0xB0820132@@QAE@XZ
??0CScrollWindowRegister0xB0820133@@QAE@XZ
??0CSelectFragments@NGScene@@QAE@PAVCSceneFragments@1@ABUSLightmappedFilter@1@@Z
??0CSelectFragments@NGScene@@QAE@PAVCSceneFragments@1@ABUSNonLightmappedFilter@1@@Z
??0CSelectGeometries@NGScene@@QAE@PAVCSceneFragments@1@ABUSBoundIntersectFilter@1@@Z
??0CSelectGeometries@NGScene@@QAE@PAVCSceneFragments@1@ABUSSphereFilter@1@@Z
??0CSelection@NGScene@@QAE@ABV01@@Z
??0CSelection@NGScene@@QAE@XZ
??0CSelection@NRender@@QAE@ABV01@@Z
??0CSelection@NRender@@QAE@ABVCVec4@@PAVCSelectionNode@NGScene@@@Z
??0CSelection@NRender@@QAE@XZ
??0CSelectionNode@NGScene@@QAE@PAVIGScene@1@ABV?$vector@PAVCObjectBase@@V?$allocator@PAVCObjectBase@@@_STL@@@_STL@@ABVCVec4@@@Z
??0CSelectionNode@NGScene@@QAE@XZ
??0CSelectionNodeRegister0x01741142@@QAE@XZ
??0CSelectionRegister0x00861121@@QAE@XZ
??0CSelectionRegister0x01941131@@QAE@XZ
??0CSelectionWindow@NUI@@QAE@ABUSWindowInfo@1@PAVCStateSelection@NGame@@@Z
??0CSelectionWindow@NUI@@QAE@ABV01@@Z
??0CSelectionWindow@NUI@@QAE@XZ
??0CSetRender@NRender@@QAE@ABV01@@Z
??0CSetRender@NRender@@QAE@PAV?$CSyncSrc@UIVisObj@NWorld@@@@PAVIGameView@NGScene@@@Z
??0CSetRender@NRender@@QAE@XZ
??0CSetSyncSrcRegister0x01412160@@QAE@XZ
??0CShaderParticlesGeometry@NGScene@@QAE@ABUSParticleOrientationInfo@1@ABUSCompactVector@NGfx@@@Z
??0CShaderParticlesGeometry@NGScene@@QAE@XZ
??0CShaderParticlesGeometryRegister0x01561151@@QAE@XZ
??0CShadowBuilder@NGScene@@QAE@PAVCObjectInfo@1@MM@Z
??0CShadowCastMaterial@NGScene@@QAE@XZ
??0CShadowCastMaterial@NGScene@@QAE@_N@Z
??0CShadowMapsShare@NGScene@@QAE@XZ
??0CShadowVolumeBuilder@NGScene@@QAE@ABVCVec3@@MPAV?$vector@VCVec3@@V?$allocator@VCVec3@@@_STL@@@_STL@@PAV?$vector@USTriangle@@V?$allocator@USTriangle@@@_STL@@@4@@Z
??0CShowAlphaEffect@NGfx@@QAE@XZ
??0CShowClueInterface@NGame@@QAE@ABV01@@Z
??0CShowClueInterface@NGame@@QAE@XZ
??0CShowClueInterfaceRegister0xB1001180@@QAE@XZ
??0CShowClueUI@NUI@@QAE@ABUSWindowInfo@1@PAVCGlobalGame@NRPG@@PAVCScenarioClue@NScenario@@@Z
??0CShowClueUI@NUI@@QAE@XZ
??0CShowClueUIRegister0xB1001181@@QAE@XZ
??0CShowClueView@NUI@@QAE@ABUSWindowInfo@1@PAVCGlobalGame@NRPG@@PAVCScenarioClue@NScenario@@@Z
??0CShowClueView@NUI@@QAE@XZ
??0CShowClueViewRegister0xB1001182@@QAE@XZ
??0CShowItemModel@NUI@@QAE@ABUSWindowInfo@1@@Z
??0CShowItemModel@NUI@@QAE@ABV01@@Z
??0CShowItemModel@NUI@@QAE@XZ
??0CShowItemModelRegister0xB2243958@@QAE@XZ
??0CShowRPGUnit@NRender@@QAE@PAVIGameView@NGScene@@PAVCUnit@NRPG@@PAV?$CFuncBase@K@@PAVCHeadsController@NLSHead@@@Z
??0CShowRPGUnit@NRender@@QAE@XZ
??0CShowRPGUnitRegister0x01941135@@QAE@XZ
??0CShowUnitHead@NRender@@QAE@PAVIGameView@NGScene@@PAVCUnit@NWorld@@PAVCHeadsController@NLSHead@@PAV?$CFuncBase@USFBTransform@@@@@Z
??0CShowUnitHead@NRender@@QAE@XZ
??0CShowUnitHeadRegister0x01941134@@QAE@XZ
??0CShowWorldUnit@NRender@@QAE@PAVIGameView@NGScene@@PAVCUnit@NWorld@@PAV?$CFuncBase@K@@PAVCHeadsController@NLSHead@@@Z
??0CShowWorldUnit@NRender@@QAE@XZ
??0CShowWorldUnitRegister0x01941132@@QAE@XZ
??0CShrinkButton@NUI@@QAE@ABUSWindowInfo@1@@Z
??0CShrinkButton@NUI@@QAE@XZ
??0CShrinkButtonRegister0xB224395A@@QAE@XZ
??0CSideMenuInterface@NGame@@QAE@ABV01@@Z
??0CSideMenuInterface@NGame@@QAE@XZ
??0CSideMenuInterfaceRegister0xB111218A@@QAE@XZ
??0CSideMenuUI@NUI@@QAE@ABUSWindowInfo@1@PAVCRenderBaseInterface@NGame@@@Z
??0CSideMenuUI@NUI@@QAE@ABV01@@Z
??0CSideMenuUI@NUI@@QAE@XZ
??0CSideMenuUIRegister0xB1112180@@QAE@XZ
??0CSimpleExecQueue@NWorld@@QAE@PAVCUnitServer@1@@Z
??0CSimpleExecQueueRegister0x018c2161@@QAE@XZ
??0CSimplePart@NGScene@@QAE@PAV?$CPtrFuncBase@VCObjectInfo@NGScene@@@@PAVIMaterial@1@ABUSFullGroupInfo@1@ABUSFBTransform@@@Z
??0CSimplePart@NGScene@@QAE@XZ
??0CSimplePartRegister0x02662161@@QAE@XZ
??0CSinus@NGScene@@QAE@ABV01@@Z
??0CSinus@NGScene@@QAE@XZ
??0CSinusRegister0x02511013@@QAE@XZ
??0CSkeletonAnimator@NAnimation@@QAE@ABV01@@Z
??0CSkeletonAnimator@NAnimation@@QAE@PAVCSkeleton@NDb@@@Z
??0CSkeletonAnimator@NAnimation@@QAE@XZ
??0CSkeletonAnimatorRegister0x01321150@@QAE@XZ
??0CSkeletonState@NAnimation@@QAE@ABV01@@Z
??0CSkeletonState@NAnimation@@QAE@XZ
??0CSkeletonStateRegister0x10722131@@QAE@XZ
??0CSkillModifier@NRPG@@QAE@PAVCDynamicSkill@1@M@Z
??0CSkillModifier@NRPG@@QAE@XZ
??0CSkillModifierRegister0x24051152@@QAE@XZ
??0CSkinner@NAI@@QAE@ABV01@@Z
??0CSkinner@NAI@@QAE@PAV?$CPtrFuncBase@VCFileSkinPoints@NAI@@@@PAV?$CFuncBase@V?$vector@USHMatrix@@V?$allocator@USHMatrix@@@_STL@@@_STL@@@@@Z
??0CSkinner@NAI@@QAE@XZ
??0CSkinnerRegister0x014c1111@@QAE@XZ
??0CSkyAdapter@NGScene@@QAE@ABV01@@Z
??0CSkyAdapter@NGScene@@QAE@XZ
??0CSkyAdapterRegister0x01812140@@QAE@XZ
??0CSlider@NUI@@QAE@ABUSWindowInfo@1@@Z
??0CSlider@NUI@@QAE@ABV01@@Z
??0CSlider@NUI@@QAE@XZ
??0CSliderRegister0xB0241965@@QAE@XZ
??0CSlot@NUI@@QAE@ABUSWindowInfo@1@PAVIMission@NGame@@HHW4ECameraType@NDb@@_N@Z
??0CSlot@NUI@@QAE@ABV01@@Z
??0CSlot@NUI@@QAE@XZ
??0CSlotReloadButton@NUI@@QAE@ABUSWindowInfo@1@PAVIMission@NGame@@@Z
??0CSlotReloadButton@NUI@@QAE@XZ
??0CSlotReloadButtonRegister0xB0521159@@QAE@XZ
??0CSlotScroll@NUI@@QAE@ABUSWindowInfo@1@PAVIMission@NGame@@@Z
??0CSlotScroll@NUI@@QAE@ABV01@@Z
??0CSlotScroll@NUI@@QAE@XZ
??0CSlotScrollRegister0xB1110182@@QAE@XZ
??0CSolidAndWallMap@NBuilding@@QAE@PAV?$CPtrFuncBase@VCBuildInfo@NBuilding@@@@ABUSRandomSeed@@@Z
??0CSolidAndWallMap@NBuilding@@QAE@XZ
??0CSolidAndWallMapRegister0xA14b2190@@QAE@XZ
??0CSolidObjectInfoClipper@NGScene@@QAE@ABV01@@Z
??0CSolidObjectInfoClipper@NGScene@@QAE@XZ
??0CSolidObjectInfoClipperRegister0x00571120@@QAE@XZ
??0CSomeItemRegister0x018c2110@@QAE@XZ
??0CSomeItemRegister0x024c2141@@QAE@XZ
??0CSomeItemRegister0x11462170@@QAE@XZ
??0CSound2D@NSound@@QAE@XZ
??0CSound@NSound@@QAE@ABV01@@Z
??0CSound@NSound@@QAE@XZ
??0CSoundEffect@NSound@@QAE@PAV0NDb@@KPAV?$CFuncBase@K@@PAV?$CFuncBase@VCVec3@@@@ABV?$vector@HV?$allocator@H@_STL@@@_STL@@@Z
??0CSoundInstance@NSound@@QAE@ABV01@@Z
??0CSoundInstance@NSound@@QAE@PAV0NDb@@KPAV?$CFuncBase@K@@PAV?$CFuncBase@VCVec3@@@@ABV?$vector@HV?$allocator@H@_STL@@@_STL@@@Z
??0CSoundInstance@NSound@@QAE@XZ
??0CSoundRegister0x03081147@@QAE@XZ
??0CSoundScene@NSound@@QAE@ABV01@@Z
??0CSoundScene@NSound@@QAE@PAVCMusic@NDb@@@Z
??0CSoundSceneRegister0x02881171@@QAE@XZ
??0CSquareMapCosts@NAI@@QAE@XZ
??0CSquarePacker@NGScene@@QAE@HAAVCObjectInfo@1@M@Z
??0CStandAnimator@NAnimation@@QAE@ABV01@@Z
??0CStandAnimator@NAnimation@@QAE@KABVCVec3@@M@Z
??0CStandAnimator@NAnimation@@QAE@XZ
??0CStandAnimatorRegister0x12041189@@QAE@XZ
??0CStandardParticleEffect@NGScene@@QAE@ABV01@@Z
??0CStandardParticleEffect@NGScene@@QAE@XZ
??0CStatChange@NUI@@QAE@ABUSWindowInfo@1@PAVCStatPoints@1@@Z
??0CStatChange@NUI@@QAE@ABV01@@Z
??0CStatChange@NUI@@QAE@XZ
??0CStatChangeRegister0xB1025160@@QAE@XZ
??0CStatPoints@NUI@@QAE@XZ
??0CStatPointsRegister0xB1025162@@QAE@XZ
??0CStateAttack@NGame@@QAE@ABV01@@Z
??0CStateAttack@NGame@@QAE@XZ
??0CStateAttack@NGame@@QAE@_N@Z
??0CStateAttackRegister0xB1007112@@QAE@XZ
??0CStateBase@NGame@@QAE@_N@Z
??0CStateDragItem@NGame@@QAE@ABV01@@Z
??0CStateDragItem@NGame@@QAE@XZ
??0CStateDragItemRegister0xB1007115@@QAE@XZ
??0CStateDropCorpse@NGame@@QAE@ABV01@@Z
??0CStateDropCorpse@NGame@@QAE@XZ
??0CStateDropCorpseRegister0xB100711E@@QAE@XZ
??0CStateEmpty@NGame@@QAE@ABV01@@Z
??0CStateEmpty@NGame@@QAE@XZ
??0CStateEmptyRegister0xB100711A@@QAE@XZ
??0CStateFirstAid@NGame@@QAE@ABV01@@Z
??0CStateFirstAid@NGame@@QAE@XZ
??0CStateFirstAidRegister0xB1007119@@QAE@XZ
??0CStateFriend@NGame@@QAE@ABV01@@Z
??0CStateFriend@NGame@@QAE@XZ
??0CStateFriendRegister0xB1007121@@QAE@XZ
??0CStateMove@NGame@@QAE@ABV01@@Z
??0CStateMove@NGame@@QAE@XZ
??0CStateMove@NGame@@QAE@_N@Z
??0CStateMoveItem@NGame@@QAE@ABV01@@Z
??0CStateMoveItem@NGame@@QAE@PAVCUnit@NWorld@@ABUSItem@3@1@Z
??0CStateMoveItem@NGame@@QAE@XZ
??0CStateMoveItemRegister0xB100711C@@QAE@XZ
??0CStateMoveRegister0xB1007111@@QAE@XZ
??0CStatePickItem@NGame@@QAE@ABV01@@Z
??0CStatePickItem@NGame@@QAE@XZ
??0CStatePickItemRegister0xB1007114@@QAE@XZ
??0CStatePose@NGame@@QAE@ABV01@@Z
??0CStatePose@NGame@@QAE@W4EPose@NAI@@@Z
??0CStatePose@NGame@@QAE@XZ
??0CStatePoseRegister0xB100711B@@QAE@XZ
??0CStateRotate@NGame@@QAE@ABV01@@Z
??0CStateRotate@NGame@@QAE@XZ
??0CStateRotateRegister0xB1007118@@QAE@XZ
??0CStateSelection@NGame@@QAE@ABV01@@Z
??0CStateSelection@NGame@@QAE@ABVCVec2@@@Z
??0CStateSelection@NGame@@QAE@XZ
??0CStateSelectionRegister0xB1007116@@QAE@XZ
??0CStateSetMine@NGame@@QAE@ABV01@@Z
??0CStateSetMine@NGame@@QAE@XZ
??0CStateSetMineRegister0xB100711F@@QAE@XZ
??0CStateSetTrap@NGame@@QAE@ABV01@@Z
??0CStateSetTrap@NGame@@QAE@XZ
??0CStateTeam@NGame@@QAE@ABV01@@Z
??0CStateTeam@NGame@@QAE@XZ
??0CStateTeamRegister0xB1007110@@QAE@XZ
??0CStateUnloadItem@NGame@@QAE@ABV01@@Z
??0CStateUnloadItem@NGame@@QAE@XZ
??0CStateUnloadItemRegister0xB1007117@@QAE@XZ
??0CStateUntrap@NGame@@QAE@ABV01@@Z
??0CStateUntrap@NGame@@QAE@XZ
??0CStateUntrapRegister0xB1007120@@QAE@XZ
??0CStateUse@NGame@@QAE@ABV01@@Z
??0CStateUse@NGame@@QAE@XZ
??0CStateUseRegister0xB1007113@@QAE@XZ
??0CStateWait@NGame@@QAE@ABV01@@Z
??0CStateWait@NGame@@QAE@XZ
??0CStateWaitRegister0xB100711D@@QAE@XZ
??0CStaticConvexHull@NAI@@QAE@PAV?$CPtrFuncBase@VCGeometryInfo@NAI@@@@ABUSFBTransform@@PAVCRPGArmor@NDb@@PAVCObjectBase@@HH@Z
??0CStaticConvexHull@NAI@@QAE@XZ
??0CStaticConvexHullRegister0x02942160@@QAE@XZ
??0CStorePanel@NUI@@QAE@ABUSWindowInfo@1@PAVIMission@NGame@@@Z
??0CStorePanel@NUI@@QAE@ABV01@@Z
??0CStorePanel@NUI@@QAE@XZ
??0CStorePanelRegister0xB1110181@@QAE@XZ
??0CStoreSlot@NUI@@QAE@ABUSWindowInfo@1@PAVIMission@NGame@@PAVCScrollWindowBase@1@@Z
??0CStoreSlot@NUI@@QAE@ABV01@@Z
??0CStoreSlot@NUI@@QAE@XZ
??0CStoreSlotRegister0xB1110180@@QAE@XZ
??0CStructureSaver@@QAE@AAVCDataStream@@W4EMode@0@@Z
??0CStunCritical@NRPG@@QAE@ABUSCritical@1@@Z
??0CStunCritical@NRPG@@QAE@XZ
??0CStunCriticalRegister0xA0132160@@QAE@XZ
??0CSuperCollider@NCollider@@QAE@XZ
??0CSurfaceRing@NGfx@@QAE@W4_D3DFORMAT@@H@Z
??0CSysTexture@NGfx@@QAE@ABV01@@Z
??0CSysTexture@NGfx@@QAE@W4_D3DFORMAT@@@Z
??0CSysTexture@NGfx@@QAE@XZ
??0CTB@NGfx@@QAE@ABV01@@Z
??0CTB@NGfx@@QAE@HHHW4_D3DFORMAT@@W4ETextureUsage@1@@Z
??0CTB@NGfx@@QAE@XZ
??0CTOPHandler@NUI@@QAE@XZ
??0CTOPHandlerRegister0xB1003236@@QAE@XZ
??0CTask@NAI@@QAE@ABV01@@Z
??0CTask@NAI@@QAE@PAVCUnitServer@NWorld@@_N@Z
??0CTask@NAI@@QAE@XZ
??0CTaskCommand@NAI@@QAE@ABV01@@Z
??0CTaskCommand@NAI@@QAE@PAVCUnitServer@NWorld@@@Z
??0CTaskCommandChangeDirection@NAI@@QAE@ABV01@@Z
??0CTaskCommandChangeDirection@NAI@@QAE@H@Z
??0CTaskCommandChangeDirection@NAI@@QAE@XZ
??0CTaskCommandChangeDirectionRegister0x51222142@@QAE@XZ
??0CTaskCommandChangePose@NAI@@QAE@ABV01@@Z
??0CTaskCommandChangePose@NAI@@QAE@W4EPose@1@@Z
??0CTaskCommandChangePose@NAI@@QAE@XZ
??0CTaskCommandChangePoseRegister0x51222141@@QAE@XZ
??0CTaskCommandCustomIdleAnimation@NAI@@QAE@ABV01@@Z
??0CTaskCommandCustomIdleAnimation@NAI@@QAE@PAVCAnimation@NDb@@@Z
??0CTaskCommandCustomIdleAnimationRegister0x52122141@@QAE@XZ
??0CTaskCommandGoto@NAI@@QAE@ABV01@@Z
??0CTaskCommandGoto@NAI@@QAE@USPosition@1@@Z
??0CTaskCommandGoto@NAI@@QAE@XZ
??0CTaskCommandGotoRegister0x51812131@@QAE@XZ
??0CTaskCommandRoaming@NAI@@QAE@ABUSPathPlace@1@H@Z
??0CTaskCommandRoaming@NAI@@QAE@ABV01@@Z
??0CTaskCommandRoaming@NAI@@QAE@XZ
??0CTaskCommandRoamingRegister0x52122140@@QAE@XZ
??0CTaskCommandSync@NAI@@QAE@ABV01@@Z
??0CTaskCommandSync@NAI@@QAE@PAVCTaskSyncObject@1@@Z
??0CTaskCommandSync@NAI@@QAE@XZ
??0CTaskCommandSyncRegister0x52302190@@QAE@XZ
??0CTaskCommandWait@NAI@@QAE@ABV01@@Z
??0CTaskCommandWait@NAI@@QAE@K@Z
??0CTaskCommandWait@NAI@@QAE@XZ
??0CTaskCommandWaitRegister0x51222143@@QAE@XZ
??0CTaskRegister0x51812130@@QAE@XZ
??0CTaskSyncObject@NAI@@QAE@ABV01@@Z
??0CTaskSyncObject@NAI@@QAE@XZ
??0CTaskSyncObjectClient@NAI@@QAE@ABV01@@Z
??0CTaskSyncObjectClient@NAI@@QAE@XZ
??0CTaskSyncObjectRegister0x52302191@@QAE@XZ
??0CTeamMarker@NUI@@QAE@ABUSWindowInfo@1@@Z
??0CTeamMarker@NUI@@QAE@ABV01@@Z
??0CTeamMarker@NUI@@QAE@XZ
??0CTeamMarkerRegister0xB2606150@@QAE@XZ
??0CTeamMngMenuInterface@NGame@@QAE@ABV01@@Z
??0CTeamMngMenuInterface@NGame@@QAE@XZ
??0CTeamMngMenuInterfaceRegister0xB0925140@@QAE@XZ
??0CTeamMngUI@NUI@@QAE@ABUSWindowInfo@1@PAVCGlobalPlayer@NRPG@@@Z
??0CTeamMngUI@NUI@@QAE@XZ
??0CTeamMngUIRegister0xB0925141@@QAE@XZ
??0CTerrain@NWorld@@QAE@PAV?$CSyncSrc@UIVisObj@NWorld@@@@PAVCTerrainInfoHolder@@PAVIAIMap@NAI@@PAV?$CFuncBase@K@@HABV?$list@USMapHole@@V?$allocator@USMapHole@@@_STL@@@_STL@@ABV?$list@USMapWall@@V?$allocator@USMapWall@@@_STL@@@8@@Z
??0CTerrain@NWorld@@QAE@XZ
??0CTerrainGeometry@NAI@@QAE@ABV01@@Z
??0CTerrainGeometry@NAI@@QAE@PAV?$CPtrFuncBase@VCTerrainPart@@@@@Z
??0CTerrainGeometryRegister0x014c1112@@QAE@XZ
??0CTerrainInfoHolder@@QAE@ABUSTerrainInfo@@@Z
??0CTerrainInfoHolder@@QAE@ABV0@@Z
??0CTerrainInfoHolder@@QAE@XZ
??0CTerrainInfoHolderRegister0xA0562160@@QAE@XZ
??0CTerrainModelPart@NGScene@@QAE@ABV01@@Z
??0CTerrainModelPart@NGScene@@QAE@XZ
??0CTerrainModelPartRegister0xF1871802@@QAE@XZ
??0CTerrainModelWallPart@NGScene@@QAE@ABV01@@Z
??0CTerrainModelWallPart@NGScene@@QAE@XZ
??0CTerrainModelWallPartRegister0xF1871803@@QAE@XZ
??0CTerrainPart@@QAE@ABV0@@Z
??0CTerrainPart@@QAE@XZ
??0CTerrainPartRegister0x10461601@@QAE@XZ
??0CTerrainRegion@NWorld@@QAE@PAV?$CSyncSrc@UIVisObj@NWorld@@@@PAVCTerrainInfoHolder@@H_N@Z
??0CTerrainRegion@NWorld@@QAE@XZ
??0CTerrainRegionRegister0xA2092180@@QAE@XZ
??0CTerrainRegister0x13051811@@QAE@XZ
??0CTerrainTexture@NGScene@@QAE@ABV01@@Z
??0CTerrainTexture@NGScene@@QAE@XZ
??0CTerrainTexture@NGScene@@QAE@_NUSRandomSeed@@ABV?$CTRect@H@@PAV?$CFuncBase@H@@PAV?$CFuncBase@USTerrainInfo@@@@PAVCVersioningBase@@PAVCGrassTracker@1@@Z
??0CTerrainTextureRegister0x18051160@@QAE@XZ
??0CTerrainTexturesCache@NGScene@@QAE@HH@Z
??0CTerrainWallBuilder@NTerrain@@QAE@ABV01@@Z
??0CTerrainWallBuilder@NTerrain@@QAE@W4EEdge@01@HHMPAV?$CFuncBase@USTerrainInfo@@@@@Z
??0CTerrainWallBuilder@NTerrain@@QAE@XZ
??0CTerrainWallBuilderRegister0xB3051815@@QAE@XZ
??0CTestTerrain@NAnimation@@QAE@XZ
??0CTestTerrainRegister0x11651141@@QAE@XZ
??0CText@NUI@@QAE@ABUSWindowInfo@1@@Z
??0CText@NUI@@QAE@ABV01@@Z
??0CText@NUI@@QAE@XZ
??0CTextDraw@NUI@@QAE@ABV01@@Z
??0CTextDraw@NUI@@QAE@ABV?$CTPoint@H@@0ABV?$basic_string@GU?$char_traits@G@std@@V?$allocator@G@_STL@@@_STL@@@Z
??0CTextDrawRegister0xB0814160@@QAE@XZ
??0CTextFormater@NGScene@@QAE@ABV01@@Z
??0CTextFormater@NGScene@@QAE@XZ
??0CTextFormaterRegister0x02931161@@QAE@XZ
??0CTextLocaleInfo@NGScene@@QAE@ABV01@@Z
??0CTextLocaleInfo@NGScene@@QAE@XZ
??0CTextLocaleInfoRegister0x02931162@@QAE@XZ
??0CTextRegister0xB0241952@@QAE@XZ
??0CTextView@NUI@@QAE@ABUSWindowInfo@1@@Z
??0CTextView@NUI@@QAE@XZ
??0CTextViewRegister0xF25c1171@@QAE@XZ
??0CTexture@NGfx@@QAE@ABV01@@Z
??0CTexture@NGfx@@QAE@PAVCTB@1@W4EWrap@1@@Z
??0CTexture@NGfx@@QAE@XZ
??0CTextureBuffersSet@NGfx@@QAE@ABV01@@Z
??0CTextureBuffersSet@NGfx@@QAE@XZ
??0CTextureCache@NGfx@@QAE@XZ
??0CTextureLocker@NGfx@@QAE@PAUIDirect3DSurface9@@ABV?$CTRect@H@@W4EAccess@1@W4_D3DFORMAT@@@Z
??0CThrowKnifeTileToHitCalcer@NRPG@@QAE@PAVIUnitMission@1@W4EPose@NAI@@HVCVec3@@_N2W4ETileHitLocation@4@2@Z
??0CThrowKnifeToHitCalcer@NRPG@@QAE@PAVIUnitMission@1@W4EPose@NAI@@HVCVec3@@_N2@Z
??0CTileToHitCalcer@NRPG@@QAE@PAVIUnitMission@1@W4EPose@NAI@@HVCVec3@@HH_N2W4ETileHitLocation@4@2H@Z
??0CTileToHitCalcer@NRPG@@QAE@XZ
??0CTileToHitCalcerRegister0x52232150@@QAE@XZ
??0CTimeCounter@@QAE@XZ
??0CTimedObject@NWorld@@QAE@H@Z
??0CTimedObject@NWorld@@QAE@XZ
??0CTnLParticlesGeometry@NGScene@@QAE@ABUSParticleOrientationInfo@1@@Z
??0CTnLParticlesGeometry@NGScene@@QAE@XZ
??0CTnLParticlesGeometryRegister0x01561152@@QAE@XZ
??0CToHitCalcer@NRPG@@QAE@ABV01@@Z
??0CToHitCalcer@NRPG@@QAE@PAVIUnitMission@1@W4EPose@NAI@@HVCVec3@@HHH_N2H3@Z
??0CToHitCalcer@NRPG@@QAE@XZ
??0CToolItem@NRPG@@QAE@ABV01@@Z
??0CToolItem@NRPG@@QAE@PAVCRPGTool@NDb@@@Z
??0CToolItem@NRPG@@QAE@XZ
??0CToolItemRegister0x024c2140@@QAE@XZ
??0CToolTip@NUI@@QAE@ABUSWindowInfo@1@@Z
??0CToolTip@NUI@@QAE@XZ
??0CToolTipRegister0xB0241964@@QAE@XZ
??0CTopBar@NUI@@QAE@ABUSWindowInfo@1@PAVIMission@NGame@@@Z
??0CTopBar@NUI@@QAE@ABV01@@Z
??0CTopBar@NUI@@QAE@XZ
??0CTopBarRegister0xB0521164@@QAE@XZ
??0CTracer@NAI@@QAE@AAV?$vector@USInterval@NAI@@V?$allocator@USInterval@NAI@@@_STL@@@_STL@@@Z
??0CTrajectoryAnimator@NAnimation@@QAE@ABV01@@Z
??0CTrajectoryAnimator@NAnimation@@QAE@KMMPAVCPathInterpolator@1@@Z
??0CTrajectoryAnimator@NAnimation@@QAE@XZ
??0CTrajectoryAnimatorRegister0x12041181@@QAE@XZ
??0CTransformStack@@QAE@XZ
??0CTransparentMaterial@NGScene@@QAE@ABV01@@Z
??0CTransparentMaterial@NGScene@@QAE@PAV?$CPtrFuncBase@VCTexture@NGfx@@@@_NMM@Z
??0CTransparentMaterial@NGScene@@QAE@XZ
??0CTransparentMaterialRegister0x02191160@@QAE@XZ
??0CTransparentMaterialShare@NGScene@@QAE@XZ
??0CTransparentRenderer@NGScene@@QAE@ABVCTransformStack@@ABV?$CTPoint@H@@_NKK@Z
??0CTransparentRenderer@NGScene@@QAE@XZ
??0CTriList@NGfx@@QAE@ABV01@@Z
??0CTriList@NGfx@@QAE@XZ
??0CTriListCore@NGfx@@QAE@H@Z
??0CTriListWrapper@NGfx@@QAE@ABV01@@Z
??0CTriListWrapper@NGfx@@QAE@PAVISomeBuffer@1@H@Z
??0CTriListWrapper@NGfx@@QAE@XZ
??0CTriListWrapperHandle@NGfx@@QAE@XZ
??0CTriVertexCacheOptimizer@NGScene@@QAE@XZ
??0CTrueColorRender@NGScene@@QAE@XZ
??0CTwoBSPTrees@NAI@@QAE@ABV01@@Z
??0CTwoBSPTrees@NAI@@QAE@XZ
??0CTwoBSPTreesRegister0x73102120@@QAE@XZ
??0CUICmd@NWorld@@QAE@H@Z
??0CUICmd@NWorld@@QAE@XZ
??0CUICmdBeginSequence@NWorld@@QAE@XZ
??0CUICmdBeginSequenceRegister0x53115171@@QAE@XZ
??0CUICmdContinueChapter@NWorld@@QAE@XZ
??0CUICmdContinueChapterRegister0x50412160@@QAE@XZ
??0CUICmdEndSequence@NWorld@@QAE@XZ
??0CUICmdEndSequenceRegister0x53115172@@QAE@XZ
??0CUICmdExec@NGame@@QAE@PAVCUICmd@NWorld@@@Z
??0CUICmdExec@NGame@@QAE@XZ
??0CUICmdExecContainer@NGame@@QAE@ABV01@@Z
??0CUICmdExecContainer@NGame@@QAE@PAVCUICmd@NWorld@@@Z
??0CUICmdExecContainer@NGame@@QAE@XZ
??0CUICmdExecContinueChapter@NGame@@QAE@ABV01@@Z
??0CUICmdExecContinueChapter@NGame@@QAE@PAVCUICmd@NWorld@@PAVIMission@1@@Z
??0CUICmdExecContinueChapter@NGame@@QAE@XZ
??0CUICmdExecContinueChapterRegister0x50412164@@QAE@XZ
??0CUICmdExecLoadTemplate@NGame@@QAE@ABV01@@Z
??0CUICmdExecLoadTemplate@NGame@@QAE@PAVCUICmd@NWorld@@PAVIMission@1@PAVCScenarioZone@NScenario@@H@Z
??0CUICmdExecLoadTemplate@NGame@@QAE@XZ
??0CUICmdExecLoadTemplateRegister0x51312182@@QAE@XZ
??0CUICmdExecPlayDialog@NGame@@QAE@ABV01@@Z
??0CUICmdExecPlayDialog@NGame@@QAE@PAVCUICmd@NWorld@@PAVIMission@1@ABV?$vector@V?$CPtr@VCUnit@NWorld@@@@V?$allocator@V?$CPtr@VCUnit@NWorld@@@@@_STL@@@_STL@@ABV?$vector@V?$CPtr@VCAckEvent@NWorld@@@@V?$allocator@V?$CPtr@VCAckEvent@NWorld@@@@@_STL@@@6@@Z
??0CUICmdExecPlayDialog@NGame@@QAE@XZ
??0CUICmdExecPlayDialogRegister0x50412163@@QAE@XZ
??0CUICmdExecShowStore@NGame@@QAE@ABV01@@Z
??0CUICmdExecShowStore@NGame@@QAE@PAVCUICmd@NWorld@@PAVIMission@1@@Z
??0CUICmdExecShowStore@NGame@@QAE@XZ
??0CUICmdExecShowStoreRegister0xB1122090@@QAE@XZ
??0CUICmdExecShowTeamMng@NGame@@QAE@ABV01@@Z
??0CUICmdExecShowTeamMng@NGame@@QAE@PAVCUICmd@NWorld@@PAVIMission@1@@Z
??0CUICmdExecShowTeamMng@NGame@@QAE@XZ
??0CUICmdExecShowTeamMngRegister0xB1122091@@QAE@XZ
??0CUICmdFollowCameraExec@NGame@@QAE@ABV01@@Z
??0CUICmdFollowCameraExec@NGame@@QAE@PAVCUICmd@NWorld@@PAVIMission@1@PAVCUnit@3@@Z
??0CUICmdLoadTemplate@NWorld@@QAE@ABV01@@Z
??0CUICmdLoadTemplate@NWorld@@QAE@PAVCScenarioZone@NScenario@@H@Z
??0CUICmdLoadTemplate@NWorld@@QAE@XZ
??0CUICmdLoadTemplateRegister0x51312180@@QAE@XZ
??0CUICmdMoveCamera@NWorld@@QAE@ABUSCameraPos@ICamera@@K@Z
??0CUICmdMoveCamera@NWorld@@QAE@XZ
??0CUICmdMoveCameraExec@NGame@@QAE@ABV01@@Z
??0CUICmdMoveCameraExec@NGame@@QAE@PAVCUICmd@NWorld@@PAVIMission@1@ABUSCameraPos@ICamera@@K@Z
??0CUICmdMoveCameraExec@NGame@@QAE@XZ
??0CUICmdMoveCameraExecRegister0x50412162@@QAE@XZ
??0CUICmdMoveCameraRegister0x51402130@@QAE@XZ
??0CUICmdPartFinished@NWorld@@QAE@XZ
??0CUICmdPartFinishedRegister0x53115170@@QAE@XZ
??0CUICmdPlayAck@NWorld@@QAE@ABV01@@Z
??0CUICmdPlayAck@NWorld@@QAE@ABV?$vector@V?$CPtr@VCAckEvent@NWorld@@@@V?$allocator@V?$CPtr@VCAckEvent@NWorld@@@@@_STL@@@_STL@@@Z
??0CUICmdPlayAck@NWorld@@QAE@XZ
??0CUICmdPlayAckRegister0x52022180@@QAE@XZ
??0CUICmdPlayDialog@NWorld@@QAE@ABV01@@Z
??0CUICmdPlayDialog@NWorld@@QAE@ABV?$basic_string@DU?$char_traits@D@std@@V?$allocator@D@_STL@@@_STL@@ABV?$vector@V?$CObj@VCUnit@NWorld@@@@V?$allocator@V?$CObj@VCUnit@NWorld@@@@@_STL@@@3@ABV?$vector@V?$CPtr@VCAckEvent@NWorld@@@@V?$allocator@V?$CPtr@VCAckEvent@NWorld@@@@@_STL@@@3@@Z
??0CUICmdPlayDialog@NWorld@@QAE@XZ
??0CUICmdPlayDialogRegister0x53102130@@QAE@XZ
??0CUICmdRegister0xB1011160@@QAE@XZ
??0CUICmdRestoreCameraExec@NGame@@QAE@PAVCUICmd@NWorld@@PAVIMission@1@@Z
??0CUICmdSetFloor@NWorld@@QAE@H@Z
??0CUICmdSetFloor@NWorld@@QAE@XZ
??0CUICmdSetFloorRegister0x52022200@@QAE@XZ
??0CUICmdShowClue@NWorld@@QAE@ABV01@@Z
??0CUICmdShowClue@NWorld@@QAE@PAVCScenarioClue@NScenario@@@Z
??0CUICmdShowClueRegister0x52622200@@QAE@XZ
??0CUICmdShowStore@NWorld@@QAE@XZ
??0CUICmdShowStoreRegister0xB1122080@@QAE@XZ
??0CUICmdShowTeamMng@NWorld@@QAE@XZ
??0CUICmdShowTeamMngRegister0xB1122081@@QAE@XZ
??0CUICmdTurn@NWorld@@QAE@XZ
??0CUICmdTurnRegister0xB1011161@@QAE@XZ
??0CUICmdUnit@NWorld@@QAE@ABV01@@Z
??0CUICmdUnit@NWorld@@QAE@PAVCUnit@1@@Z
??0CUICmdUnit@NWorld@@QAE@XZ
??0CUICmdUnitRegister0xB1011162@@QAE@XZ
??0CUIControl@NDb@@QAE@ABV01@@Z
??0CUIControl@NDb@@QAE@XZ
??0CUnit@NRPG@@QAE@ABV01@@Z
??0CUnit@NRPG@@QAE@PAVCRPGPers@NDb@@PAVCComplexHead@3@_N@Z
??0CUnit@NRPG@@QAE@XZ
??0CUnit@NWorld@@QAE@XZ
??0CUnitAIInfo@NAI@@QAE@XZ
??0CUnitAIInfoLoader@NAI@@QAE@XZ
??0CUnitAIInfoLoaderRegister0xA2722172@@QAE@XZ
??0CUnitAIInfoRegister0xA2722171@@QAE@XZ
??0CUnitAnimator@NWorld@@QAE@PAV?$CFuncBase@K@@ABUSUnitPosition@NAI@@PAVCSkeleton@NDb@@PAVIAIMap@4@PAVCRPGPers@6@PAVCWorld@1@@Z
??0CUnitAnimator@NWorld@@QAE@XZ
??0CUnitCharacterPanel@NUI@@QAE@ABUSWindowInfo@1@PAVCUnit@NRPG@@@Z
??0CUnitCharacterPanel@NUI@@QAE@XZ
??0CUnitCharacterPanelRegister0xB0925142@@QAE@XZ
??0CUnitFace@NUI@@QAE@ABUSWindowInfo@1@PAVIMission@NGame@@@Z
??0CUnitFace@NUI@@QAE@ABV01@@Z
??0CUnitFace@NUI@@QAE@XZ
??0CUnitFaceRegister0xB0521153@@QAE@XZ
??0CUnitGroup@NWorld@@QAE@ABV01@@Z
??0CUnitGroup@NWorld@@QAE@H@Z
??0CUnitGroupAIInfoLoader@NAI@@QAE@XZ
??0CUnitGroupAIInfoLoaderRegister0xA11A2141@@QAE@XZ
??0CUnitGroupRegister0x51402110@@QAE@XZ
??0CUnitHead@NUI@@QAE@ABUSWindowInfo@1@PAVIRenderGame@NRender@@M@Z
??0CUnitHead@NUI@@QAE@ABV01@@Z
??0CUnitHead@NUI@@QAE@XZ
??0CUnitHeadRegister0xB2243952@@QAE@XZ
??0CUnitIconsBar@NUI@@QAE@ABUSWindowInfo@1@PAVIMission@NGame@@@Z
??0CUnitIconsBar@NUI@@QAE@ABV01@@Z
??0CUnitIconsBar@NUI@@QAE@XZ
??0CUnitIconsBarRegister0xB0241945@@QAE@XZ
??0CUnitInventoryPanel@NUI@@QAE@ABUSWindowInfo@1@PAVCUnit@NRPG@@@Z
??0CUnitInventoryPanel@NUI@@QAE@XZ
??0CUnitInventoryPanelItem@NUI@@QAE@ABUSWindowInfo@1@PAVIInventoryItem@NRPG@@H@Z
??0CUnitInventoryPanelItem@NUI@@QAE@XZ
??0CUnitInventoryPanelItemRegister0xB0925146@@QAE@XZ
??0CUnitInventoryPanelRegister0xB0925145@@QAE@XZ
??0CUnitMission@NRPG@@QAE@ABV01@@Z
??0CUnitMission@NRPG@@QAE@XZ
??0CUnitMissionRegister0x02511016@@QAE@XZ
??0CUnitModelShow@NUI@@QAE@ABUSWindowInfo@1@PAVIMission@NGame@@@Z
??0CUnitModelShow@NUI@@QAE@ABV01@@Z
??0CUnitModelShow@NUI@@QAE@XZ
??0CUnitModelShowRegister0xB0521141@@QAE@XZ
??0CUnitPanel@NUI@@QAE@ABUSWindowInfo@1@PAVIMission@NGame@@@Z
??0CUnitPanel@NUI@@QAE@ABV01@@Z
??0CUnitPanel@NUI@@QAE@XZ
??0CUnitPanelRegister0xB0521158@@QAE@XZ
??0CUnitPortraitState@NUI@@QAE@ABUSWindowInfo@1@PAVCGlobalPlayer@NRPG@@PAVCUnit@4@@Z
??0CUnitPortraitState@NUI@@QAE@XZ
??0CUnitPortraitStateRegister0xB0925144@@QAE@XZ
??0CUnitPortraitView@NUI@@QAE@ABUSWindowInfo@1@PAVCUnit@NRPG@@@Z
??0CUnitPortraitView@NUI@@QAE@XZ
??0CUnitPortraitViewRegister0xB0925143@@QAE@XZ
??0CUnitRegister0x24051150@@QAE@XZ
??0CUnitServer@NWorld@@QAE@PAVCWorld@1@PAVIUnitMission@NRPG@@PAVCModel@NDb@@PAVCPlayer@1@ABUSUnitPosition@NAI@@@Z
??0CUnitServer@NWorld@@QAE@XZ
??0CUnitServerRegister0x0251101c@@QAE@XZ
??0CUnitState@NWorld@@QAE@PAVCUnitServer@1@@Z
??0CUnitStateCorpseCarrier@NWorld@@QAE@ABV01@@Z
??0CUnitStateCorpseCarrier@NWorld@@QAE@PAVCUnitServer@1@0@Z
??0CUnitStateCorpseCarrier@NWorld@@QAE@XZ
??0CUnitStateCorpseCarrierRegister0x01822163@@QAE@XZ
??0CUnitStateDeath@NWorld@@QAE@PAVCUnitServer@1@@Z
??0CUnitStateDeathRegister0x01822166@@QAE@XZ
??0CUnitStateEngineering@NWorld@@QAE@PAVCUnitServer@1@@Z
??0CUnitStateEngineeringRegister0x01822165@@QAE@XZ
??0CUnitStateHealer@NWorld@@QAE@ABV01@@Z
??0CUnitStateHealer@NWorld@@QAE@PAVCUnitServer@1@0@Z
??0CUnitStateHealer@NWorld@@QAE@XZ
??0CUnitStateHealerRegister0x01822164@@QAE@XZ
??0CUnitStateInPocket@NWorld@@QAE@PAVCUnitServer@1@@Z
??0CUnitStateInPocketRegister0x52822170@@QAE@XZ
??0CUnitStateNormal@NWorld@@QAE@PAVCUnitServer@1@@Z
??0CUnitStateNormalRegister0x01822160@@QAE@XZ
??0CUnitStateSniping@NWorld@@QAE@ABV01@@Z
??0CUnitStateSniping@NWorld@@QAE@PAVCUnitServer@1@0H@Z
??0CUnitStateSniping@NWorld@@QAE@XZ
??0CUnitStateSnipingRegister0x01822161@@QAE@XZ
??0CUnitStateStun@NWorld@@QAE@PAVCUnitServer@1@@Z
??0CUnitStateStunRegister0x01822167@@QAE@XZ
??0CUnitStateUnconscious@NWorld@@QAE@PAVCUnitServer@1@@Z
??0CUnitStateUnconsciousRegister0x52322110@@QAE@XZ
??0CUnitStateUsingCannon@NWorld@@QAE@ABV01@@Z
??0CUnitStateUsingCannon@NWorld@@QAE@PAVCUnitServer@1@PAVCCannon@1@@Z
??0CUnitStateUsingCannon@NWorld@@QAE@XZ
??0CUnitStateUsingCannonRegister0x01822162@@QAE@XZ
??0CUnitTab@NUI@@QAE@ABUSWindowInfo@1@PAVIMission@NGame@@@Z
??0CUnitTab@NUI@@QAE@ABV01@@Z
??0CUnitTab@NUI@@QAE@XZ
??0CUnitTabRegister0xB0521151@@QAE@XZ
??0CUnitTerrain@NWorld@@QAE@ABVCVec3@@PAVIAIMap@NAI@@@Z
??0CUnitTerrain@NWorld@@QAE@XZ
??0CUnitTerrainRegister0x11461140@@QAE@XZ
??0CUnitToHitCalcer@NRPG@@QAE@ABV01@@Z
??0CUnitToHitCalcer@NRPG@@QAE@PAVIUnitMission@1@W4EPose@NAI@@HVCVec3@@USPosition@4@HHH_N2W4EHitLocation@4@PAVIUnitMissionInfo@1@H4@Z
??0CUnitToHitCalcer@NRPG@@QAE@XZ
??0CUnitToHitCalcerRegister0x52132140@@QAE@XZ
??0CUnitTracker@NGame@@QAE@ABV01@@Z
??0CUnitTracker@NGame@@QAE@PAVIMission@1@PAVCUnit@NWorld@@@Z
??0CUnitTracker@NGame@@QAE@XZ
??0CUnitTrackerRegister0x12221220@@QAE@XZ
??0CUnitView@NUI@@QAE@ABUSWindowInfo@1@PAVIRenderGame@NRender@@M@Z
??0CUnitView@NUI@@QAE@ABV01@@Z
??0CUnitView@NUI@@QAE@XZ
??0CUnitViewRegister0xB2243956@@QAE@XZ
??0CUnitsTabBar@NUI@@QAE@ABUSWindowInfo@1@PAVIMission@NGame@@@Z
??0CUnitsTabBar@NUI@@QAE@ABV01@@Z
??0CUnitsTabBar@NUI@@QAE@XZ
??0CUnitsTabBarRegister0xB0521152@@QAE@XZ
??0CUpdateBuildingStability@NGame@@QAE@PAV?$CSyncSrc@UIVisObj@NWorld@@@@@Z
??0CUserGeometry@NGfx@@QAE@PAV?$CLinearBuffer@VCVB@NGfx@@VCUserGeometry@2@@1@@Z
??0CVALUEHandler@NUI@@QAE@PAVCMLText@1@@Z
??0CVALUEHandler@NUI@@QAE@XZ
??0CVALUEHandlerRegister0xB0241956@@QAE@XZ
??0CVB@NGfx@@QAE@HW4ETrueBufferUsage@1@@Z
??0CVBCombiner@NGScene@@QAE@ABV01@@Z
??0CVBCombiner@NGScene@@QAE@PAV?$CFuncBase@V?$vector@V?$CPtr@VIPart@NGScene@@@@V?$allocator@V?$CPtr@VIPart@NGScene@@@@@_STL@@@_STL@@@@W4ELightmapType@1@W4ECombinerType@1@PAVCVersioningBase@@@Z
??0CVBCombiner@NGScene@@QAE@XZ
??0CVBCombinerRegister0x02741134@@QAE@XZ
??0CVPCritical@NRPG@@QAE@ABUSCritical@1@@Z
??0CVPCritical@NRPG@@QAE@XZ
??0CVPCriticalRegister0xA28C1160@@QAE@XZ
??0CVec2@@QAE@MM@Z
??0CVec2@@QAE@XZ
??0CVec3@@QAE@ABVCVec2@@M@Z
??0CVec3@@QAE@MMM@Z
??0CVec3@@QAE@XZ
??0CVec3Convert@NGScene@@QAE@ABV01@@Z
??0CVec3Convert@NGScene@@QAE@XZ
??0CVec3ConvertRegister0x02511012@@QAE@XZ
??0CVec4@@QAE@ABVCVec3@@M@Z
??0CVec4@@QAE@MMMM@Z
??0CVec4@@QAE@XZ
??0CVersioningBase@@QAE@XZ
??0CVersioningBaseRegister0x02321000@@QAE@XZ
??0CVertexCacheOptimizer@NGScene@@QAE@XZ
??0CVideoOptionsUI@NUI@@QAE@ABUSWindowInfo@1@@Z
??0CVideoOptionsUI@NUI@@QAE@XZ
??0CVideoOptionsUIRegister0xB0815151@@QAE@XZ
??0CViewBuildingScheme@NGame@@QAE@PAV?$CSyncSrc@UIVisObj@NWorld@@@@PAVIGameView@NGScene@@PAV?$vector@V?$CObj@VCObjectBase@@@@V?$allocator@V?$CObj@VCObjectBase@@@@@_STL@@@_STL@@@Z
??0CVisibleTracker@NGame@@QAE@ABV01@@Z
??0CVisibleTracker@NGame@@QAE@W4EType@01@@Z
??0CVisibleTracker@NGame@@QAE@W4EType@01@HABVCVec3@@M@Z
??0CVisibleTracker@NGame@@QAE@XZ
??0CVisibleTrackerRegister0x02511218@@QAE@XZ
??0CVisionCube@NRPG@@QAE@ABV01@@Z
??0CVisionCube@NRPG@@QAE@PAVIAIMap@NAI@@PAVCVisionTracker@1@ABVCVec3@@@Z
??0CVisionCube@NRPG@@QAE@XZ
??0CVisionCubeRegister0x026b1180@@QAE@XZ
??0CVisionTracker@NRPG@@QAE@PAVIAIMap@NAI@@@Z
??0CVisionTracker@NRPG@@QAE@XZ
??0CVisionTrackerRegister0x00413190@@QAE@XZ
??0CVisionVoxelRenderer@NAI@@QAE@XZ
??0CVolumeContainer@NCollider@@QAE@XZ
??0CVolumeNode@NAI@@QAE@ABV01@@Z
??0CVolumeNode@NAI@@QAE@XZ
??0CVolumeNode@NGScene@@QAE@XZ
??0CVolumeNodeRegister0x00661130@@QAE@XZ
??0CVolumeNodeRegister0x01071140@@QAE@XZ
??0CVoxelExpl@NWorld@@QAE@ABV01@@Z
??0CVoxelExpl@NWorld@@QAE@VCVec3@@HPAVCRPGGrenade@NDb@@PAVCUnitServer@1@PAVIAIMap@NAI@@PAVCVoxelExplTracker@1@@Z
??0CVoxelExpl@NWorld@@QAE@XZ
??0CVoxelExplRegister0x51682140@@QAE@XZ
??0CVoxelExplTracker@NWorld@@QAE@ABV01@@Z
??0CVoxelExplTracker@NWorld@@QAE@VCVec3@@PAVCRPGGrenade@NDb@@PAVCUnitServer@1@PAVCWorld@1@@Z
??0CVoxelExplTracker@NWorld@@QAE@XZ
??0CVoxelExplTrackerRegister0x52782130@@QAE@XZ
??0CWRAPLEFTHandler@NUI@@QAE@XZ
??0CWRAPLEFTHandlerRegister0xB1003234@@QAE@XZ
??0CWRAPRIGHTHandler@NUI@@QAE@XZ
??0CWRAPRIGHTHandlerRegister0xB1003235@@QAE@XZ
??0CWallObjectInfoClipper@NGScene@@QAE@ABV01@@Z
??0CWallObjectInfoClipper@NGScene@@QAE@XZ
??0CWallObjectInfoClipperRegister0x02741131@@QAE@XZ
??0CWaypoint@NAI@@QAE@ABV01@@Z
??0CWaypoint@NAI@@QAE@XZ
??0CWaypointLoader@NAI@@QAE@XZ
??0CWaypointLoaderRegister0xA2722173@@QAE@XZ
??0CWaypointRegister0xA2722170@@QAE@XZ
??0CWeaponItem@NRPG@@QAE@ABV01@@Z
??0CWeaponItem@NRPG@@QAE@PAVCRPGWeapon@NDb@@@Z
??0CWeaponItem@NRPG@@QAE@XZ
??0CWeaponItemRegister0xE10A1140@@QAE@XZ
??0CWeaponModeIconBarSet@NUI@@QAE@PAVIMission@NGame@@ABV?$vector@V?$CPtr@VCComplexButton@NUI@@@@V?$allocator@V?$CPtr@VCComplexButton@NUI@@@@@_STL@@@_STL@@@Z
??0CWeaponModeIconBarSet@NUI@@QAE@XZ
??0CWeaponModeIconBarSetRegister0xB0830173@@QAE@XZ
??0CWeaponSkillCritical@NRPG@@QAE@ABUSCritical@1@@Z
??0CWeaponSkillCritical@NRPG@@QAE@XZ
??0CWeaponSkillCriticalRegister0xA0912140@@QAE@XZ
??0CWindow@NUI@@QAE@ABUSWindowInfo@1@@Z
??0CWindow@NUI@@QAE@ABV01@@Z
??0CWindow@NUI@@QAE@XZ
??0CWindowDoor@NWorld@@QAE@PAVCWorld@1@ABUSObjectPlace@1@_NPAVCObject@NDb@@PAVIObject@NRPG@@PAV?$CFuncBase@K@@ABV?$vector@HV?$allocator@H@_STL@@@_STL@@2@Z
??0CWindowDoor@NWorld@@QAE@XZ
??0CWindowDoorRegister0x12512140@@QAE@XZ
??0CWindowRegister0xB0241990@@QAE@XZ
??0CWorld@NWorld@@QAE@ABV01@@Z
??0CWorld@NWorld@@QAE@PAVCGlobalGame@NRPG@@@Z
??0CWorld@NWorld@@QAE@XZ
??0CWorldRegister0x0251101b@@QAE@XZ
??0CWorldSyncSrc@NWorld@@QAE@XZ
??0CWorldSyncSrcRegister0x00812150@@QAE@XZ
??0CZoneGlobalSector@NUI@@QAE@ABUSWindowInfo@1@PAVIGlobalMap@NGame@@ABUSGlobalSector@@_N@Z
??0CZoneGlobalSector@NUI@@QAE@ABV01@@Z
??0CZoneGlobalSector@NUI@@QAE@XZ
??0CZoneGlobalSectorRegister0xB0912172@@QAE@XZ
??0CZoneSector@NUI@@QAE@ABUSWindowInfo@1@PAVIChapterMap@NGame@@ABUSChapterSector@@@Z
??0CZoneSector@NUI@@QAE@ABV01@@Z
??0CZoneSector@NUI@@QAE@XZ
??0CZoneSectorRegister0xB2606153@@QAE@XZ
??0ConsoleInit@NUI@@QAE@XZ
??0GAnimParticlesInit@@QAE@XZ
??0GInitInit@NGScene@@QAE@XZ
??0GRenderLightInit@NGScene@@QAE@XZ
??0GSceneInternalInit@NGScene@@QAE@XZ
??0GTextureInit@NGScene@@QAE@XZ
??0GViewInit@NGScene@@QAE@XZ
??0GfxBuffersInit@NGfx@@QAE@XZ
??0GfxInit@@QAE@XZ
??0GfxInit@NGfx@@QAE@XZ
??0I2DBuffer@NGfx@@QAE@ABV01@@Z
??0I2DBuffer@NGfx@@QAE@XZ
??0I2DBufferLock@NGfx@@QAE@XZ
??0I2DEffect@NGfx@@QAE@XZ
??0I2DGameView@NGScene@@QAE@XZ
??0I2DScene@NGScene@@QAE@XZ
??0IAIControl@NAI@@QAE@XZ
??0IAIInventoryItem@NAI@@QAE@XZ
??0IAIIterator@NAI@@QAE@XZ
??0IAIJob@NAI@@QAE@XZ
??0IAIJobManager@NAI@@QAE@XZ
??0IAILogContainer@NAI@@QAE@XZ
??0IAILogRecord@NAI@@QAE@XZ
??0IAIMap@NAI@@QAE@XZ
??0IAIMapTracker@NAI@@QAE@XZ
??0IAIPlayer@NAI@@QAE@XZ
??0IAISignal@NAI@@QAE@XZ
??0IAISignalManager@NAI@@QAE@XZ
??0IAIState@NAI@@QAE@XZ
??0IAIUnit@NAI@@QAE@XZ
??0IAIVisitor@NWorld@@QAE@XZ
??0IAck@NWorld@@QAE@ABV01@@Z
??0IAck@NWorld@@QAE@XZ
??0IAmmoItem@NRPG@@QAE@ABV01@@Z
??0IAmmoItem@NRPG@@QAE@XZ
??0IAttackable@NRPG@@QAE@XZ
??0IBuilding@NWorld@@QAE@XZ
??0ICacheLightRender@NGScene@@QAE@ABV01@@Z
??0ICacheLightRender@NGScene@@QAE@XZ
??0ICamera@@QAE@XZ
??0ICannon@NWorld@@QAE@XZ
??0IChapterMap@NGame@@QAE@XZ
??0IClipItem@NRPG@@QAE@ABV01@@Z
??0IClipItem@NRPG@@QAE@XZ
??0ICriticalInfo@NRPG@@QAE@XZ
??0ICubeBuffer@NGfx@@QAE@XZ
??0ICursor@NUI@@QAE@XZ
??0IDecalQuery@NGScene@@QAE@ABV01@@Z
??0IDecalQuery@NGScene@@QAE@XZ
??0IDynamicObject@NWorld@@QAE@ABV01@@Z
??0IDynamicObject@NWorld@@QAE@XZ
??0IEventRegister@NGlobal@@QAE@XZ
??0IExecMove@NWorld@@QAE@XZ
??0IFirstAidItem@NRPG@@QAE@ABV01@@Z
??0IFirstAidItem@NRPG@@QAE@XZ
??0IGScene@NGScene@@QAE@ABV01@@Z
??0IGScene@NGScene@@QAE@XZ
??0IGame@NRPG@@QAE@XZ
??0IGameView@NGScene@@QAE@XZ
??0IGetApproaches@NWorld@@QAE@XZ
??0IGlobalMap@NGame@@QAE@XZ
??0IGrenadeItem@NRPG@@QAE@ABV01@@Z
??0IGrenadeItem@NRPG@@QAE@XZ
??0IGrenadeItemInfo@NRPG@@QAE@ABV01@@Z
??0IGrenadeItemInfo@NRPG@@QAE@XZ
??0IHZBuffer@NGScene@@QAE@XZ
??0IInterfaceBase@NMainLoop@@QAE@XZ
??0IInterfaceObject@NMainLoop@@QAE@ABV01@@Z
??0IInterfaceObject@NMainLoop@@QAE@XZ
??0IInventory@NRPG@@QAE@XZ
??0IInventoryInfo@NRPG@@QAE@XZ
??0IInventoryItem@NRPG@@QAE@ABV01@@Z
??0IInventoryItem@NRPG@@QAE@XZ
??0IItem@NRPG@@QAE@ABV01@@Z
??0IItem@NRPG@@QAE@XZ
??0IItem@NWorld@@QAE@XZ
??0IItemContainer@NRPG@@QAE@ABV01@@Z
??0IItemContainer@NRPG@@QAE@XZ
??0IItemContainerInfo@NRPG@@QAE@ABV01@@Z
??0IItemContainerInfo@NRPG@@QAE@XZ
??0IJoinSplit@NRPG@@QAE@ABV01@@Z
??0IJoinSplit@NRPG@@QAE@XZ
??0IKeyItem@NRPG@@QAE@ABV01@@Z
??0IKeyItem@NRPG@@QAE@XZ
??0ILight@NGScene@@QAE@XZ
??0ILinearBuffer@NGfx@@QAE@XZ
??0IML@NUI@@QAE@XZ
??0IMLHandler@NUI@@QAE@XZ
??0IMLLayout@NUI@@QAE@XZ
??0IMLObject@NUI@@QAE@XZ
??0IMaterial@NGScene@@QAE@XZ
??0IMeleeWeaponItem@NRPG@@QAE@ABV01@@Z
??0IMeleeWeaponItem@NRPG@@QAE@XZ
??0IMine@NWorld@@QAE@XZ
??0IMineDetectorItem@NRPG@@QAE@ABV01@@Z
??0IMineDetectorItem@NRPG@@QAE@XZ
??0IMineItem@NRPG@@QAE@ABV01@@Z
??0IMineItem@NRPG@@QAE@XZ
??0IMission@NGame@@QAE@XZ
??0INew2DTexAllocCallback@NGfx@@QAE@XZ
??0IObject@NRPG@@QAE@ABV01@@Z
??0IObject@NRPG@@QAE@XZ
??0IObject@NWorld@@QAE@XZ
??0IPart@NGScene@@QAE@ABV01@@Z
??0IPart@NGScene@@QAE@PAV?$CPtrFuncBase@VCObjectInfo@NGScene@@@@PAVCPerMaterialCombiner@1@_N@Z
??0IPart@NGScene@@QAE@XZ
??0IParticleOutput@NGScene@@QAE@XZ
??0IParticles@NGScene@@QAE@XZ
??0IPassageObject@NWorld@@QAE@XZ
??0IPathNetwork@NAI@@QAE@XZ
??0IPathViewer@NWorld@@QAE@XZ
??0IPlayer@NWorld@@QAE@XZ
??0IPlayerTracker@NGame@@QAE@XZ
??0IPostProcess@NGScene@@QAE@XZ
??0IPrecache@NGScene@@QAE@XZ
??0IPrepareCollider@NAI@@QAE@XZ
??0IRecognitionAttribute@NAI@@QAE@XZ
??0IRecognitionClass@NAI@@QAE@XZ
??0IRecognizer@NAI@@QAE@XZ
??0IRender@NGScene@@QAE@XZ
??0IRenderGame@NRender@@QAE@XZ
??0IRenderSound@NRender@@QAE@XZ
??0IRenderVisitor@NWorld@@QAE@XZ
??0IReportParticlesGeometry@NGScene@@QAE@XZ
??0IResource@NGScene@@QAE@XZ
??0ISW2DScene@NGScene@@QAE@XZ
??0ISWRects@NGScene@@QAE@XZ
??0IShowUnit@NRender@@QAE@XZ
??0IShowUnitHead@NRender@@QAE@XZ
??0ISomeBuffer@NGfx@@QAE@ABV01@@Z
??0ISomeBuffer@NGfx@@QAE@XZ
??0ISound2D@NSound@@QAE@XZ
??0ISoundScene@NSound@@QAE@XZ
??0ISoundVisitor@NWorld@@QAE@XZ
??0IState@NGame@@QAE@XZ
??0ITerrainFunction@NAnimation@@QAE@XZ
??0IToHitCalcer@NRPG@@QAE@XZ
??0IToolItem@NRPG@@QAE@ABV01@@Z
??0IToolItem@NRPG@@QAE@XZ
??0IUnitMission@NRPG@@QAE@ABV01@@Z
??0IUnitMission@NRPG@@QAE@XZ
??0IUnitMissionInfo@NRPG@@QAE@ABV01@@Z
??0IUnitMissionInfo@NRPG@@QAE@XZ
??0IUnitTracker@NGame@@QAE@XZ
??0IVBCombiner@NGScene@@QAE@XZ
??0IVisObj@NWorld@@QAE@XZ
??0IVisible@NWorld@@QAE@XZ
??0IVisionTracker@NRPG@@QAE@XZ
??0IWeaponItem@NRPG@@QAE@ABV01@@Z
??0IWeaponItem@NRPG@@QAE@XZ
??0IWeaponItemInfo@NRPG@@QAE@ABV01@@Z
??0IWeaponItemInfo@NRPG@@QAE@XZ
??0IWindowDoor@NWorld@@QAE@XZ
??0IWorld@NWorld@@QAE@XZ
??0JuncsSort@NBuilding@@QAE@PAVCBuildingSchema@1@@Z
??0Object@Script@@QAE@PAV1@H@Z
??0S2DRectInfoLock@NGfx@@QAE@XZ
??0S3DTriangle@NGfx@@QAE@GGG@Z
??0S3DTriangle@NGfx@@QAE@XZ
??0SAILaunchRocketActionInfo@CAILaunchRocketAction@NAI@@QAE@XZ
??0SAIShootActionInfo@CAIShootAction@NAI@@QAE@XZ
??0SAISoundConstants@NDb@@QAE@XZ
??0SAIThrowGrenadeActionInfo@CAIThrowGrenadeAction@NAI@@QAE@XZ
??0SAIUnitGroup@NAI@@QAE@ABU01@@Z
??0SAIUnitGroup@NAI@@QAE@XZ
??0SASegment@NAnimation@@QAE@ABU01@@Z
??0SASegment@NAnimation@@QAE@KPAVCAnimator@1@@Z
??0SAckEvent@NUI@@QAE@ABU01@@Z
??0SAckEvent@NUI@@QAE@XZ
??0SActionInfo@NGame@@QAE@XZ
??0SAddBoneAnimKey@NAnimation@@QAE@XZ
??0SAddHeightBlend@@QAE@ABV?$CArray2D@G@@0@Z
??0SAddedEdge@NAI@@QAE@ABVCVec3@@0@Z
??0SAddedEdge@NAI@@QAE@ABVCVec3@@0_N@Z
??0SAlternativeGridInfo@NAI@@QAE@ABU01@@Z
??0SAlternativeGridInfo@NAI@@QAE@XZ
??0SAmbientLight@SMapBuilding@@QAE@XZ
??0SAnglePoint@NAI@@QAE@XZ
??0SAnimationHeader@NAnimation@@QAE@ABU01@@Z
??0SAnimationHeader@NAnimation@@QAE@XZ
??0SAttachedGrenade@CWindowDoor@NWorld@@QAE@XZ
??0SBSPEntity@?$CBSPCollider@USColliderUserInfo@NAI@@@NCollider@@QAE@ABU012@@Z
??0SBSPEntity@?$CBSPCollider@USColliderUserInfo@NAI@@@NCollider@@QAE@ABV?$CPtr@VCBSPTree@NAI@@@@ABUSHMatrix@@1@Z
??0SBSPGeometry@NAI@@QAE@XZ
??0SBSPPoly@NAI@@QAE@ABU01@@Z
??0SBSPPoly@NAI@@QAE@XZ
??0SBackPackItem@NRPG@@QAE@ABU01@@Z
??0SBackPackItem@NRPG@@QAE@ABV?$CTPoint@H@@PAVIInventoryItem@1@@Z
??0SBestSearch@CTriVertexCacheOptimizer@NGScene@@QAE@PAV12@ABV?$vector@USTriangle@@V?$allocator@USTriangle@@@_STL@@@_STL@@@Z
??0SBlock@?$CPool@USDynamicAmbientInfo@NGScene@@$0IA@@@QAE@XZ
??0SBlock@?$CPool@USRenderFragmentInfo@NGScene@@$0IA@@@QAE@XZ
??0SBlock@?$CPool@USRenderGeometryInfo@NGScene@@$0IA@@@QAE@XZ
??0SBlock@?$CPool@USRenderStaticInfo@NGScene@@$0IA@@@QAE@XZ
??0SBodypart@CFileSkinPoints@NAI@@QAE@ABU012@@Z
??0SBodypart@CFileSkinPoints@NAI@@QAE@XZ
??0SBombSelection@CRenderGame@NRender@@QAE@ABU012@@Z
??0SBombSelection@CRenderGame@NRender@@QAE@PAVCObjectBase@@0@Z
??0SBone@NAnimation@@QAE@ABU01@@Z
??0SBone@NAnimation@@QAE@XZ
??0SBoneAnimKey@NAnimation@@QAE@XZ
??0SBonePose@NAnimation@@QAE@XZ
??0SBoolCollider@NAI@@QAE@XZ
??0SBound@@QAE@XZ
??0SBoundCalcer@@QAE@XZ
??0SBoundIntersectFilter@NGScene@@QAE@ABUSBound@@@Z
??0SBoundMesh@IRenderVisitor@NWorld@@QAE@ABU012@@Z
??0SBoundMesh@IRenderVisitor@NWorld@@QAE@PAVCModel@NDb@@PBD@Z
??0SBuffersPerFrame@?$CLinearBuffer@VCVB@NGfx@@VCUserGeometry@2@@NGfx@@QAE@XZ
??0SBuildFragment@NBuilding@@QAE@ABU01@@Z
??0SBuildFragment@NBuilding@@QAE@XZ
??0SBuildingInfo@NBuilding@@QAE@XZ
??0SCacheInit@NCache@@QAE@XZ
??0SCachePlace@?$CGatheringCache@VCShortPtrAllocator@NCache@@VCFibElement@2@VCUserGeometry@NGfx@@@NCache@@QAE@XZ
??0SCachePlace@?$CGatheringCache@VCShortPtrAllocator@NCache@@VCQuadTreeElement@2@VCTexture@NGfx@@@NCache@@QAE@XZ
??0SCameraLimits@ICamera@@QAE@MMMMABV?$CTRect@M@@@Z
??0SCameraLimits@ICamera@@QAE@XZ
??0SCameraParams@NDb@@QAE@XZ
??0SCameraPos@ICamera@@QAE@VCVec3@@MMMMM@Z
??0SCameraPos@ICamera@@QAE@XZ
??0SChapterSector@@QAE@ABU0@@Z
??0SChapterSector@@QAE@XZ
??0SCharRect@SText@NGScene@@QAE@HV?$CTRect@H@@@Z
??0SChunk@NGScene@@QAE@ABU01@@Z
??0SChunk@NGScene@@QAE@W4ECharType@1@HABUSState@1@H@Z
??0SChunk@NGScene@@QAE@W4ECharType@1@HABUSState@1@V?$basic_string@GU?$char_traits@G@std@@V?$allocator@G@_STL@@@_STL@@@Z
??0SClipHelper@NGScene@@QAE@PAUSFacesVector@1@ABU21@@Z
??0SClipInfo@NBuilding@@QAE@ABU01@@Z
??0SClipInfo@NBuilding@@QAE@XZ
??0SClipShare@NGScene@@QAE@ABUSClipInfo@NBuilding@@@Z
??0SClipShare@NGScene@@QAE@XZ
??0SClueSlot@@QAE@ABU0@@Z
??0SClueSlot@@QAE@XZ
??0SCmdPair@CMLLayout@NUI@@QAE@ABU012@@Z
??0SCmdPair@CMLLayout@NUI@@QAE@W4ECommand@2@PAVIMLObject@2@@Z
??0SCmpFragments@NGScene@@QAE@ABV?$vector@USTransparentInfo@NGScene@@V?$allocator@USTransparentInfo@NGScene@@@_STL@@@_STL@@@Z
??0SColliderUserInfo@NAI@@QAE@PBUSSourceInfo@1@H@Z
??0SCollision@NAnimation@@QAE@XZ
??0SCollisionPoint@NAI@@QAE@MABVCVec3@@PBUSSourceInfo@1@HABUSPlane@@@Z
??0SCollisionPoint@NAI@@QAE@XZ
??0SColorBlend@@QAE@ABV?$CArray2D@K@@@Z
??0SColorInfo@SMaterialInfo@NGScene@@QAE@XZ
??0SCombinedKey@NGScene@@QAE@PAVIMaterial@1@ABUSFullGroupInfo@1@@Z
??0SCombinedKey@NGScene@@QAE@XZ
??0SCommand@NAI@@QAE@XZ
??0SCompoundPosKey@NGScene@@QAE@ABVCVec3@@ABUSRealVertexWeight@1@@Z
??0SConvexHull@NAI@@QAE@ABU01@@Z
??0SConvexHull@NAI@@QAE@ABV?$vector@VCVec3@@V?$allocator@VCVec3@@@_STL@@@_STL@@ABVCEdgesInfo@1@ABUSFBTransform@@AAUSSourceInfo@1@HV?$vector@V?$CPtr@VCBSPTree@NAI@@@@V?$allocator@V?$CPtr@VCBSPTree@NAI@@@@@_STL@@@3@@Z
??0SCreateSyncSrc@NRender@@QAE@XZ
??0SCritical@NRPG@@QAE@W4ECriticalLocation@NDb@@W4ECritical@3@HMH@Z
??0SCritical@NRPG@@QAE@XZ
??0SCriticalType@NRPG@@QAE@ABU01@@Z
??0SCriticalType@NRPG@@QAE@HPAVCRPGCritical@NDb@@@Z
??0SCriticalsHolder@NRPG@@QAE@XZ
??0SCrossPoint@SInterval@NAI@@QAE@MABVCVec3@@@Z
??0SCrossPoint@SInterval@NAI@@QAE@XZ
??0SCrossSort@@QAE@ABVCVec2@@@Z
??0SCursorInfo@NUI@@QAE@ABU01@@Z
??0SCursorInfo@NUI@@QAE@PAVCUITexture@NDb@@ABV?$basic_string@GU?$char_traits@G@std@@V?$allocator@G@_STL@@@_STL@@ABVCVec2@@@Z
??0SData@CObjectInfo@NGScene@@QAE@ABU012@@Z
??0SData@CObjectInfo@NGScene@@QAE@XZ
??0SDecalMappingInfo@NGScene@@QAE@XZ
??0SDecalTargetPart@NGScene@@QAE@ABU01@@Z
??0SDecalTargetPart@NGScene@@QAE@PAVCObjectBase@@H@Z
??0SDeployData@NRPG@@QAE@XZ
??0SDeploySpot@@QAE@ABUSMapPosition@@@Z
??0SDiplomacy@NRPG@@QAE@K@Z
??0SDirectional@SGlobalIlluminationInfo@NGScene@@QAE@ABVCVec3@@0_N@Z
??0SDirectionalDepthInfo@NGScene@@QAE@XZ
??0SDiscretePos@@QAE@ABU0@@Z
??0SDiscretePos@@QAE@PAVCFBTransform@@ABVCVec3@@H@Z
??0SDiscretePos@@QAE@XZ
??0SDistanceInfo@NAI@@QAE@XZ
??0SDoorColliderAnalyzer@NAI@@QAE@XZ
??0SDoorTrap@NWorld@@QAE@ABU01@@Z
??0SDoorTrap@NWorld@@QAE@PAVCWindowDoor@1@PAVCRPGGrenade@NDb@@H@Z
??0SDrawInfo@IGameView@NGScene@@QAE@XZ
??0SDynLockInfo@CPathNetwork@NAI@@QAE@ABU012@@Z
??0SDynLockInfo@CPathNetwork@NAI@@QAE@XZ
??0SDynamicAmbientInfo@NGScene@@QAE@XZ
??0SDynamicLightGroup@CGScene@NGScene@@QAE@XZ
??0SEdge@?A0xaa01e5fa@@QAE@ABVCVec2@@0@Z
??0SEdge@@QAE@ABV?$CTPoint@H@@0@Z
??0SEdge@CPolyClipper@@QAE@ABU01@@Z
??0SEdge@CPolyClipper@@QAE@XZ
??0SEdge@NAI@@QAE@GG@Z
??0SEdge@NGScene@@QAE@HH@Z
??0SEdge@NGeometry@@QAE@VCVec4@@ABV2@@Z
??0SEdge@SHashedHedron@NGeometry@@QAE@HH@Z
??0SEdgeTracker@NGScene@@QAE@XZ
??0SEffConstLight@NGfx@@QAE@XZ
??0SEffFoggedParticle@NGfx@@QAE@XZ
??0SEffFoggedTextureAndMirror@NGfx@@QAE@XZ
??0SEffFoggedTransparentParticles@NGfx@@QAE@XZ
??0SEffGlow@NGfx@@QAE@XZ
??0SEffPureGeometry@NGfx@@QAE@XZ
??0SEffRegister@NGfx@@QAE@XZ
??0SEffRenderCubemap@NGfx@@QAE@XZ
??0SEffTexture@NGfx@@QAE@XZ
??0SEffTextureAndMirror@NGfx@@QAE@XZ
??0SEffTnLParticles@NGfx@@QAE@XZ
??0SEffTnLTexture@NGfx@@QAE@XZ
??0SEffTransparentParticles@NGfx@@QAE@XZ
??0SEffect@NGfx@@QAE@XZ
??0SElement@?$CGatheringCache@VCShortPtrAllocator@NCache@@VCFibElement@2@VCUserGeometry@NGfx@@@NCache@@QAE@ABU012@@Z
??0SElement@?$CGatheringCache@VCShortPtrAllocator@NCache@@VCFibElement@2@VCUserGeometry@NGfx@@@NCache@@QAE@XZ
??0SElement@?$CGatheringCache@VCShortPtrAllocator@NCache@@VCQuadTreeElement@2@VCTexture@NGfx@@@NCache@@QAE@ABU012@@Z
??0SElement@?$CGatheringCache@VCShortPtrAllocator@NCache@@VCQuadTreeElement@2@VCTexture@NGfx@@@NCache@@QAE@XZ
??0SElement@SRenderFragmentInfo@NGScene@@QAE@FFH@Z
??0SElementInfo@CVolumeNode@NAI@@QAE@ABU012@@Z
??0SElementInfo@CVolumeNode@NAI@@QAE@XZ
??0SEvent@NInput@@QAE@XZ
??0SEvent@NUI@@QAE@H@Z
??0SEvent@NUI@@QAE@HABV?$basic_string@DU?$char_traits@D@std@@V?$allocator@D@_STL@@@_STL@@@Z
??0SEvent@NUI@@QAE@HH@Z
??0SEvent@NUI@@QAE@HHH@Z
??0SEvent@NUI@@QAE@HHHM@Z
??0SEvent@NUI@@QAE@HPAVCLoader@1@PAVCUIContainer@NDb@@@Z
??0SEvent@NUI@@QAE@HPAVCLoader@1@PAVCUIControl@NDb@@@Z
??0SEvent@NUI@@QAE@HPAVCWindow@1@@Z
??0SExplObject@CExplVoxelRenderer@NAI@@QAE@ABU012@@Z
??0SExplObject@CExplVoxelRenderer@NAI@@QAE@PAVCObjectBase@@HPAVCRPGArmor@NDb@@_N@Z
??0SExplObject@CExplVoxelRenderer@NAI@@QAE@XZ
??0SExplVoxel@NAI@@QAE@GG@Z
??0SExplVoxel@NAI@@QAE@XZ
??0SExplVoxelCoords@CExplCube@NWorld@@QAE@EEE@Z
??0SExplVoxelCoords@CExplCube@NWorld@@QAE@XZ
??0SExplosion@?A0xaa01e5fa@@QAE@XZ
??0SFBTransform@@QAE@XZ
??0SFacesVector@NGScene@@QAE@ABU01@@Z
??0SFacesVector@NGScene@@QAE@XZ
??0SFakeCPPInitOrder@NGfx@@QAE@XZ
??0SFindClipResult@NRPG@@QAE@XZ
??0SFlipper@CPathNetwork@NAI@@QAE@ABU012@@Z
??0SFlipper@CPathNetwork@NAI@@QAE@XZ
??0SFloor@NBuilding@@QAE@H@Z
??0SFloorGroup@NBuilding@@QAE@ABU01@@Z
??0SFloorGroup@NBuilding@@QAE@XZ
??0SFloorsSelector@NAI@@QAE@XZ
??0SFogParams@NGScene@@QAE@XZ
??0SFont@NGScene@@QAE@ABU01@@Z
??0SFont@NGScene@@QAE@HABV?$basic_string@DU?$char_traits@D@std@@V?$allocator@D@_STL@@@_STL@@@Z
??0SFont@NGScene@@QAE@XZ
??0SFontInfo@CMLTextObject@NUI@@QAE@XZ
??0SFontInfo@NGScene@@QAE@ABU01@@Z
??0SFontInfo@NGScene@@QAE@XZ
??0SFontLayout@SText@NGScene@@QAE@ABU012@@Z
??0SFontLayout@SText@NGScene@@QAE@XZ
??0SFragment@SStoreyInfo@NBuilding@@QAE@ABU012@@Z
??0SFragment@SStoreyInfo@NBuilding@@QAE@ABUSClipInfo@2@HPAVCRPGArmor@NDb@@@Z
??0SFragmentPos@NBuilding@@QAE@ABU01@@Z
??0SFragmentPos@NBuilding@@QAE@XZ
??0SFrictionCollider@NAI@@QAE@XZ
??0SFullGroupInfo@NGScene@@QAE@ABU01@@Z
??0SFullGroupInfo@NGScene@@QAE@ABUSGroupInfo@1@PAVCObjectBase@@H@Z
??0SFullGroupInfo@NGScene@@QAE@XZ
??0SFullRoomInfo@NGScene@@QAE@ABUSRoomInfo@1@PAVCObjectBase@@H@Z
??0SFullRoomInfo@NGScene@@QAE@H@Z
??0SFullRoomInfo@NGScene@@QAE@PAVCLightGroup@1@H@Z
??0SFullRoomInfo@NGScene@@QAE@XZ
??0SGeomVecFull@NGfx@@QAE@XZ
??0SGeomVecT1C1@NGfx@@QAE@XZ
??0SGeometryType@NGfx@@QAE@W4EBufferUsage@1@H@Z
??0SGfxCacheTransformer@NGScene@@QAE@PAV?$CObj@VCGeometry@NGfx@@@@HW4EBufferUsage@NGfx@@@Z
??0SGfxOutputTransformer@NGScene@@QAE@PAV?$CObj@VCGeometry@NGfx@@@@HW4EBufferUsage@NGfx@@@Z
??0SGlobalIlluminationInfo@NGScene@@QAE@XZ
??0SGlobalSector@@QAE@ABU0@@Z
??0SGlobalSector@@QAE@XZ
??0SGlobalTriangle@CSuperCollider@NCollider@@QAE@XZ
??0SGrassBlend@@QAE@ABV?$CArray2D@E@@@Z
??0SGrassLayer@@QAE@ABU0@@Z
??0SGrassLayer@@QAE@XZ
??0SGrassLayerInfo@CGrassTracker@NGScene@@QAE@ABU012@@Z
??0SGrassLayerInfo@CGrassTracker@NGScene@@QAE@XZ
??0SGrassSpotInfo@NGScene@@QAE@PAVCMaterial@NDb@@MM@Z
??0SGrenadeParams@NWorld@@QAE@XZ
??0SGridElement@NBuilding@@QAE@XZ
??0SGridNode@NBuilding@@QAE@ABU01@@Z
??0SGridNode@NBuilding@@QAE@XZ
??0SGroup@NTerrain@@QAE@XZ
??0SGroupInfo@NGScene@@QAE@HH@Z
??0SGroupInfo@NGScene@@QAE@XZ
??0SGroupInfo@NTerrain@@QAE@ABU01@@Z
??0SGroupInfo@NTerrain@@QAE@XZ
??0SGroupSelect@NGScene@@QAE@GG@Z
??0SGroupUpdate@CTerrainRegion@NWorld@@QAE@ABU012@@Z
??0SGroupUpdate@CTerrainRegion@NWorld@@QAE@ABUSPartsGroup@NTerrain@@PAVCVersioningBase@@@Z
??0SHMatrix@@QAE@XZ
??0SHashedHedron@NGeometry@@QAE@XZ
??0SHeadFrame@NLSHead@@QAE@XZ
??0SHeightBlend@@QAE@ABV?$CArray2D@G@@0@Z
??0SHilight@CSlot@NUI@@QAE@XZ
??0SHolder@CTerrainTexturesCache@NGScene@@QAE@ABU012@@Z
??0SHolder@CTerrainTexturesCache@NGScene@@QAE@XZ
??0SHullSet@NAI@@QAE@XZ
??0SIconButton@CIconBarSet@NUI@@QAE@ABU012@@Z
??0SIconButton@CIconBarSet@NUI@@QAE@XZ
??0SIgnoreRect@CLayersGroup@NAI@@QAE@ABVCVec2@@00@Z
??0SInfo@CComboBox@NUI@@QAE@ABU012@@Z
??0SInfo@CComboBox@NUI@@QAE@ABV?$basic_string@GU?$char_traits@G@std@@V?$allocator@G@_STL@@@_STL@@PAVCUITexture@NDb@@ABUSPixel8888@NGfx@@@Z
??0SInfo@CComboBox@NUI@@QAE@XZ
??0SInfoCollider@NAI@@QAE@XZ
??0SInitDiscretePos@@QAE@XZ
??0SInterrupt@?$CTBSWorld@VCUnitServer@NWorld@@VCPlayer@2@VCCommander@2@@NWorld@@QAE@ABU012@@Z
??0SInterrupt@?$CTBSWorld@VCUnitServer@NWorld@@VCPlayer@2@VCCommander@2@@NWorld@@QAE@ABV?$list@PAVCUnitServer@NWorld@@V?$allocator@PAVCUnitServer@NWorld@@@_STL@@@_STL@@@Z
??0SInterrupt@?$CTBSWorld@VCUnitServer@NWorld@@VCPlayer@2@VCCommander@2@@NWorld@@QAE@PAVCPlayer@2@@Z
??0SInterruptInfo@NWorld@@QAE@XZ
??0SInterruptsConstants@NDb@@QAE@XZ
??0SInterval@NAI@@QAE@ABUSSourceInfo@1@HABUSCrossPoint@01@1@Z
??0SInventoryItem@NUI@@QAE@XZ
??0SItem@CListView@NUI@@QAE@ABU012@@Z
??0SItem@CListView@NUI@@QAE@HPAVCWindow@2@@Z
??0SItem@CListView@NUI@@QAE@XZ
??0SItem@CSlot@NUI@@QAE@ABU012@@Z
??0SItem@CSlot@NUI@@QAE@XZ
??0SItem@NWorld@@QAE@ABU01@@Z
??0SItem@NWorld@@QAE@PAVCUnit@1@W4EPlacement@01@ABV?$CTPoint@H@@PAVIInventoryItem@NRPG@@@Z
??0SItem@NWorld@@QAE@PAVCUnit@1@W4EPlacement@01@HPAVIInventoryItem@NRPG@@@Z
??0SItem@NWorld@@QAE@PAVCUnit@1@W4EPlacement@01@PAVIInventoryItem@NRPG@@PAVIPlayer@1@@Z
??0SItem@NWorld@@QAE@XZ
??0SItemInfo@IPlayer@NWorld@@QAE@XZ
??0SItemRenderInfo@NWorld@@QAE@ABU01@@Z
??0SItemRenderInfo@NWorld@@QAE@PAVCModel@NDb@@@Z
??0SItemRenderInfo@NWorld@@QAE@XZ
??0SIterator@?$CPool@USResult@CFastRenderer@NAI@@$0BAAA@@@QAE@PAV1@@Z
??0SIterator@?$CPool@USResult@CFastRenderer@NAI@@$0BAAA@@@QAE@XZ
??0SJunction@NAI@@QAE@XZ
??0SJunction@NBuilding@@QAE@ABVCVec3@@_N@Z
??0SLMLOD@CObjectInfo@NGScene@@QAE@ABU012@@Z
??0SLMLOD@CObjectInfo@NGScene@@QAE@XZ
??0SLRNeighbs@NBuilding@@QAE@ABU01@@Z
??0SLRNeighbs@NBuilding@@QAE@XZ
??0SLadder@CNodesLayer@NAI@@QAE@ABU012@@Z
??0SLadder@CNodesLayer@NAI@@QAE@XZ
??0SLadder@NBuilding@@QAE@ABU01@@Z
??0SLadderInfo@CPassCalcer@NAI@@QAE@HHHHMH@Z
??0SLayerGroup@NBuilding@@QAE@ABU01@@Z
??0SLayerPlace@CMapBuilder@?A0xaa01e5fa@@QAE@XZ
??0SLayerRotationInfo@CMapBuilder@?A0xaa01e5fa@@QAE@MABVCVec2@@@Z
??0SLevelContainers@CVolumeContainer@NCollider@@QAE@ABU012@@Z
??0SLevelContainers@CVolumeContainer@NCollider@@QAE@XZ
??0SLightInfo@NGScene@@QAE@XZ
??0SLightStateCalcSeed@NGScene@@QAE@XZ
??0SLightmapTargetGeom@CLightmapTracker@NGScene@@QAE@PAVCSceneFragments@2@PAVCRenderContext@NGfx@@PAVCTransformStack@@H@Z
??0SLink@CNodesLayer@NAI@@QAE@ABUSPathPlace@2@H@Z
??0SLink@CPolyClipper@@QAE@ABU01@@Z
??0SLink@CPolyClipper@@QAE@MW4EPolygon@1@U?$SRingIterator@USEdge@CPolyClipper@@U?$SRingNode@USEdge@CPolyClipper@@@@@@@Z
??0SLink@CPolyClipper@@QAE@XZ
??0SLinkSet@CPolyClipper@@QAE@ABU01@@Z
??0SLinkSet@CPolyClipper@@QAE@XZ
??0SListener@NFMSound@@QAE@XZ
??0SLitParticlesAdder@NGScene@@QAE@PAVCSceneFragments@1@PAVCTransformStack@@@Z
??0SLoadVertex@NGScene@@QAE@XZ
??0SLocalColorInfo@NAI@@QAE@XZ
??0SLockInfo@CPathNetwork@NAI@@QAE@ABU012@@Z
??0SLockInfo@CPathNetwork@NAI@@QAE@ABV?$vector@USPathPlace@NAI@@V?$allocator@USPathPlace@NAI@@@_STL@@@_STL@@@Z
??0SLockInfo@CPathNetwork@NAI@@QAE@XZ
??0SMMPFileHeader@@QAE@XZ
??0SMOTessPoint@@QAE@MABVCVec2@@H@Z
??0SMSRAnimKey@NAnimation@@QAE@XZ
??0SMap@CConvexHull@NAI@@QAE@HH@Z
??0SMapBuilding@@QAE@ABU0@@Z
??0SMapBuilding@@QAE@XZ
??0SMapElement@@QAE@ABU0@@Z
??0SMapElement@@QAE@PAVCObject@NDb@@USMapPosition@@_N@Z
??0SMapElement@@QAE@XZ
??0SMapHole@@QAE@ABU0@@Z
??0SMapHole@@QAE@XZ
??0SMapInfo@@QAE@XZ
??0SMapPosition@@QAE@XZ
??0SMapRPGElement@@QAE@ABU0@@Z
??0SMapRPGElement@@QAE@XZ
??0SMapUnit@@QAE@ABU0@@Z
??0SMapUnit@@QAE@XZ
??0SMapWall@@QAE@XZ
??0SMassSphere@@QAE@XZ
??0SMaterialApply@NBuilding@@QAE@ABU01@@Z
??0SMaterialApply@NBuilding@@QAE@XZ
??0SMaterialInfo@NGScene@@QAE@XZ
??0SMemBuilderVertex@@QAE@XZ
??0SMergePoints@NAI@@QAE@XZ
??0SModif@CSkillModifier@NRPG@@QAE@PAVCDynamicSkill@2@M@Z
??0SModif@CSkillModifier@NRPG@@QAE@XZ
??0SMove@NAI@@QAE@XZ
??0SNeighb@NBuilding@@QAE@HW4ERodSide@1@@Z
??0SNeighb@NBuilding@@QAE@XZ
??0SNeighbour@NAI@@QAE@GHH@Z
??0SNeighbour@NAI@@QAE@XZ
??0SNet@NAI@@QAE@ABU01@@Z
??0SNet@NAI@@QAE@XZ
??0SNetNode@NAI@@QAE@ABU01@@Z
??0SNetNode@NAI@@QAE@XZ
??0SNormalizeInit@NGScene@@QAE@XZ
??0SNotice@SInterruptInfo@NWorld@@QAE@PAVCUnitServer@2@0_N@Z
??0SObject@?$CSyncSrc@UIVisObj@NWorld@@@@QAE@ABU01@@Z
??0SObject@?$CSyncSrc@UIVisObj@NWorld@@@@QAE@PAUIVisObj@NWorld@@@Z
??0SObject@?$CSyncSrc@UIVisObj@NWorld@@@@QAE@XZ
??0SObject@IPostProcess@NGScene@@QAE@PAUSRenderGeometryInfo@2@H@Z
??0SObjectDamageInfo@CVoxelExpl@NWorld@@QAE@XZ
??0SObjectInfo@NAI@@QAE@ABU01@@Z
??0SObjectInfo@NAI@@QAE@XZ
??0SObjectPlace@NWorld@@QAE@XZ
??0SOpGenContext@NGScene@@QAE@PAV?$vector@USOperation@CRenderCmdList@NGScene@@V?$allocator@USOperation@CRenderCmdList@NGScene@@@_STL@@@_STL@@PBUSRenderFragmentInfo@1@@Z
??0SOperation@CRenderCmdList@NGScene@@QAE@PBUSRenderFragmentInfo@2@W4ERenderOperation@2@EEETUParameter@12@22@Z
??0SOperation@CRenderCmdList@NGScene@@QAE@XZ
??0SPShader@@QAE@HPAK0PAUSRenderState@@PAUSTextureStageState@@12@Z
??0SPad@SDynamicAmbientInfo@NGScene@@QAE@XZ
??0SParallelLight@CLightState@NGScene@@QAE@ABVCVec3@@0@Z
??0SPart@NBuilding@@QAE@HHH@Z
??0SPart@NBuilding@@QAE@XZ
??0SPart@NTerrain@@QAE@ABU01@@Z
??0SPart@NTerrain@@QAE@XZ
??0SPartInfo@CCombinedPart@NGScene@@QAE@XZ
??0SPartKey@NGScene@@QAE@HH@Z
??0SPartKey@NGScene@@QAE@XZ
??0SParticleLMRenderTargetInfo@NGScene@@QAE@ABU01@@Z
??0SParticleLMRenderTargetInfo@NGScene@@QAE@XZ
??0SParticleLightInfo@NGScene@@QAE@XZ
??0SParticleOrientationInfo@NGScene@@QAE@XZ
??0SPartsGroup@NTerrain@@QAE@ABU01@@Z
??0SPartsGroup@NTerrain@@QAE@XZ
??0SPath@NBuilding@@QAE@PAVCJunction@1@MW4EDirection@1@@Z
??0SPathAction@CPath@NAI@@QAE@ABU012@@Z
??0SPathAction@CPath@NAI@@QAE@XZ
??0SPathPlace@NAI@@QAE@III@Z
??0SPathPlace@NAI@@QAE@IIIIII@Z
??0SPathPlace@NAI@@QAE@XZ
??0SPathPoint@CPathInterpolator@NAnimation@@QAE@XZ
??0SPathPoint@IExecMove@NWorld@@QAE@HHVCVec3@@@Z
??0SPathPoint@NWorld@@QAE@HHVCVec3@@@Z
??0SPathPoint@NWorld@@QAE@XZ
??0SPerMaterialHolder@CVolumeNode@NGScene@@QAE@XZ
??0SPerspDirectionalDepthInfo@NGScene@@QAE@XZ
??0SPiece@CGeometryInfo@NAI@@QAE@ABU012@@Z
??0SPiece@CGeometryInfo@NAI@@QAE@XZ
??0SPixel8888@NGfx@@QAE@EEEE@Z
??0SPixel8888@NGfx@@QAE@XZ
??0SPlaceWithAP@NAI@@QAE@ABU01@@Z
??0SPlaceWithAP@NAI@@QAE@ABUSUnitPosition@1@H@Z
??0SPlaceWithAP@NAI@@QAE@XZ
??0SPlaceWithCost@CAIPositionIterator@NAI@@QAE@ABUSPathPlace@2@H@Z
??0SPlane2@@QAE@XZ
??0SPlane@@QAE@ABVCVec3@@M@Z
??0SPlane@@QAE@XZ
??0SPlayParams@NFMSound@@QAE@XZ
??0SPoint3@NBuilding@@QAE@ABVCVec3@@@Z
??0SPoint3@NBuilding@@QAE@HHH@Z
??0SPoint3@NBuilding@@QAE@XZ
??0SPoint@CPolyClipper@@QAE@VCVec2@@@Z
??0SPoint@SBSPPoly@NAI@@QAE@ABVCVec3@@@Z
??0SPoint@SBSPPoly@NAI@@QAE@ABVCVec3@@_N@Z
??0SPoint@SGlobalIlluminationInfo@NGScene@@QAE@ABVCVec3@@0M_N@Z
??0SPointLight@CLightState@NGScene@@QAE@VCVec3@@ABV3@M@Z
??0SPointLightPos@CLightmapTracker@NGScene@@QAE@ABVCVec3@@M@Z
??0SPoly@CShadowVolumeBuilder@NGScene@@QAE@XZ
??0SPolygon@CObjectInfoProcessor@NGScene@@QAE@XZ
??0SPolygon@CPolyClipper@@QAE@XZ
??0SPolygon@NGeometry@@QAE@ABU01@@Z
??0SPolygon@NGeometry@@QAE@XZ
??0SPolygon@SHashedHedron@NGeometry@@QAE@ABU012@@Z
??0SPolygon@SHashedHedron@NGeometry@@QAE@XZ
??0SPolygonIndices@NGScene@@QAE@ABU01@@Z
??0SPolygonIndices@NGScene@@QAE@XZ
??0SPolyhedron@NGeometry@@QAE@ABU01@@Z
??0SPolyhedron@NGeometry@@QAE@XZ
??0SPosition@NAI@@QAE@ABU01@@Z
??0SPosition@NAI@@QAE@ABUSPathPlace@1@PAVIPathNetwork@1@@Z
??0SPosition@NAI@@QAE@XZ
??0SPossibleTransition@CMovesCalcer@NAI@@QAE@XZ
??0SProjectedPoint@@QAE@XZ
??0SPtrTest@@QAE@PAVCObjectBase@@@Z
??0SQuadProjection@NGScene@@QAE@XZ
??0SRadianceInfo@CDirectionalLight@NGScene@@QAE@XZ
??0SRadianceInfo@CPointLight@NGScene@@QAE@XZ
??0SRand@@QAE@ABUSRandomSeed@@@Z
??0SRange@CMLLayout@NUI@@QAE@HH@Z
??0SRange@CMLLayout@NUI@@QAE@XZ
??0SRawMaterialApply@NBuilding@@QAE@XZ
??0SRawMixedMaterial@NBuilding@@QAE@ABU01@@Z
??0SRawMixedMaterial@NBuilding@@QAE@XZ
??0SRay@CCoverInfo@NRPG@@QAE@XZ
??0SRayInfo@NGScene@@QAE@ABVCRay@@@Z
??0SRect@CRectLayout@@QAE@MMABUSTextureCoord@1@ABUSPixel8888@NGfx@@@Z
??0SRect@CRectLayout@@QAE@XZ
??0SRect@CSWRectLayout@NGScene@@QAE@FFABUSTextureCoord@12@0ABUSPixel8888@NGfx@@@Z
??0SRectOrder@NRectPacker@@QAE@ABV?$vector@USRect@NRectPacker@@V?$allocator@USRect@NRectPacker@@@_STL@@@_STL@@@Z
??0SRefTracker@NGScene@@QAE@XZ
??0SRefTriangle@CTracer@NAI@@QAE@ABVCVec3@@00@Z
??0SReflowInfo@CMLLayout@NUI@@QAE@XZ
??0SRemoveInternal@NGScene@@QAE@ABV?$vector@USLoadVertex@NGScene@@V?$allocator@USLoadVertex@NGScene@@@_STL@@@_STL@@PAUSPolygonIndices@1@ABUSPlane@@@Z
??0SRenderFragmentInfo@NGScene@@QAE@XZ
??0SRenderGeometryInfo@NGScene@@QAE@ABU01@@Z
??0SRenderGeometryInfo@NGScene@@QAE@XZ
??0SRenderPartSet@NGScene@@QAE@ABU01@@Z
??0SRenderPartSet@NGScene@@QAE@PAVCObjectBase@@PBV?$vector@V?$CPtr@VIPart@NGScene@@@@V?$allocator@V?$CPtr@VIPart@NGScene@@@@@_STL@@@_STL@@PAUSRenderGeometryInfo@1@@Z
??0SRenderStateKey@NGfx@@QAE@HW4_D3DSAMPLERSTATETYPE@@@Z
??0SRenderStateKey@NGfx@@QAE@HW4_D3DTEXTURESTAGESTATETYPE@@@Z
??0SRenderStateKey@NGfx@@QAE@W4_D3DRENDERSTATETYPE@@@Z
??0SRenderStaticInfo@NGScene@@QAE@XZ
??0SRenderStats@NGfx@@QAE@XZ
??0SRenderTargetsInfo@NGfx@@QAE@XZ
??0SResItem@CDumbUnitServer@NWorld@@QAE@XZ
??0SRestoreBone@CAParticle@NAnimation@@QAE@HHH@Z
??0SRodEdge@NBuilding@@QAE@ABVCVec3@@_NM@Z
??0SRoomAmbient@NGScene@@QAE@ABU01@@Z
??0SRoomAmbient@NGScene@@QAE@HPAV?$CFuncBase@VCVec3@@@@@Z
??0SRoomInfo@NGScene@@QAE@ABU01@@Z
??0SRoomInfo@NGScene@@QAE@H@Z
??0SRoomInfo@NGScene@@QAE@PAVCLightGroup@1@H@Z
??0SRoomInfo@NGScene@@QAE@XZ
??0SRoomMatch@NBuilding@@QAE@HHH@Z
??0SRootAnimKey@NAnimation@@QAE@XZ
??0SRotateInfo@@QAE@ABVCVec2@@M@Z
??0SSPoint@NGScene@@QAE@XZ
??0SSaveFileHeader@NMainLoop@@QAE@XZ
??0SScenarioFlowChartPassage@NScenario@@QAE@ABU01@@Z
??0SScenarioFlowChartPassage@NScenario@@QAE@PAVCScenarioZone@1@0@Z
??0SSceneFragmentGroupInfo@CGScene@NGScene@@QAE@ABUSGroupSelect@2@ABVCVec3@@PAVCSceneFragments@2@PAVCTransparentRenderer@2@@Z
??0SSceneFragmentGroupInfo@CGScene@NGScene@@QAE@ABUSGroupSelect@2@ABVCVec3@@PAVCSceneFragments@2@PAVCTransparentRenderer@2@PAVCLightmapTracker@2@H2HPAVIHZBuffer@2@PAVCTexture@NGfx@@@Z
??0SSegment@NCollider@@QAE@ABVCVec3@@0@Z
??0SSegment@NCollider@@QAE@XZ
??0SSemiPointLight@CLightState@NGScene@@QAE@ABVCVec3@@00M@Z
??0SShadowPoly@NGScene@@QAE@XZ
??0SShowLink@NAI@@QAE@ABVCVec3@@0W4EType@01@@Z
??0SShowPoint@NAI@@QAE@ABVCVec3@@H@Z
??0SSimpleInterval@NAI@@QAE@ABUSSourceInfo@1@HMM@Z
??0SSinCosTableInit@NGScene@@QAE@XZ
??0SSkeletonState@NAnimation@@QAE@ABU01@@Z
??0SSkeletonState@NAnimation@@QAE@XZ
??0SSkyDepth3Info@NGScene@@QAE@XZ
??0SSnipeAP@NRPG@@QAE@ABU01@@Z
??0SSnipeAP@NRPG@@QAE@HPAVIUnitMissionInfo@1@@Z
??0SSolidElement@NBuilding@@QAE@ABU01@@Z
??0SSolidElement@NBuilding@@QAE@XZ
??0SSource@CFastRenderer@NAI@@QAE@PBUSSourceInfo@2@H@Z
??0SSourceInfo@NAI@@QAE@PAVCObjectBase@@PAVCRPGArmor@NDb@@HH@Z
??0SSourceInfo@NAI@@QAE@XZ
??0SSphere@@QAE@ABVCVec3@@M@Z
??0SSphere@@QAE@XZ
??0SSphereFilter@NGScene@@QAE@ABUSSphere@@@Z
??0SSphereSphere@NAI@@QAE@ABVCVec3@@M@Z
??0SSplitter@?$CGatheringCache@VCShortPtrAllocator@NCache@@VCFibElement@2@VCUserGeometry@NGfx@@@NCache@@QAE@PAV12@K@Z
??0SSplitter@?$CGatheringCache@VCShortPtrAllocator@NCache@@VCQuadTreeElement@2@VCTexture@NGfx@@@NCache@@QAE@PAV12@K@Z
??0SSpot@SStoreyInfo@NBuilding@@QAE@ABU012@@Z
??0SSpot@SStoreyInfo@NBuilding@@QAE@ABVCVec3@@0ABVCVec2@@HPAVCMaterial@NDb@@H@Z
??0SSrcPosInfo@NGScene@@QAE@ABU01@@Z
??0SSrcPosInfo@NGScene@@QAE@PAVCObjectBase@@H0@Z
??0SStartInfo@NFMSound@@QAE@XZ
??0SState@NGScene@@QAE@ABU01@@Z
??0SState@NGScene@@QAE@ABUSFont@1@ABUSPixel8888@NGfx@@@Z
??0SState@NGScene@@QAE@XZ
??0SState@NUI@@QAE@ABU01@@Z
??0SState@NUI@@QAE@XZ
??0SStatePlace@?$CGatheringCache@VCShortPtrAllocator@NCache@@VCFibElement@2@VCUserGeometry@NGfx@@@NCache@@QAE@ABVCFibElement@2@PAVCUserGeometry@NGfx@@I@Z
??0SStatePlace@?$CGatheringCache@VCShortPtrAllocator@NCache@@VCQuadTreeElement@2@VCTexture@NGfx@@@NCache@@QAE@ABVCQuadTreeElement@2@PAVCTexture@NGfx@@I@Z
??0SStaticTrackers@NGScene@@QAE@XZ
??0SStats@NCache@@QAE@XZ
??0SStencilMode@NGfx@@QAE@W4EStencilMode@1@HH@Z
??0SStepSound@@QAE@ABU0@@Z
??0SStepSound@@QAE@PAVCRPGArmor@NDb@@@Z
??0SStepSound@@QAE@XZ
??0SStoreItem@NRPG@@QAE@ABU01@@Z
??0SStoreItem@NRPG@@QAE@XZ
??0SStoredPiece@NAI@@QAE@ABU01@@Z
??0SStoredPiece@NAI@@QAE@XZ
??0SStoredSkin@NAI@@QAE@ABU01@@Z
??0SStoredSkin@NAI@@QAE@XZ
??0SStorey@SMapBuilding@@QAE@HH@Z
??0SStorey@SMapBuilding@@QAE@XZ
??0SStoreyInfo@NBuilding@@QAE@ABU01@@Z
??0SStoreyInfo@NBuilding@@QAE@XZ
??0SStripe@NRectPacker@@QAE@ABU01@@Z
??0SStripe@NRectPacker@@QAE@XZ
??0SStripeBuilder@NRectPacker@@QAE@AAV?$vector@USRect@NRectPacker@@V?$allocator@USRect@NRectPacker@@@_STL@@@_STL@@@Z
??0SSubtractHeightBlend@@QAE@ABV?$CArray2D@G@@0@Z
??0STemplate@CScenarioZone@NScenario@@QAE@XZ
??0STerrainBlend@@QAE@ABV?$CArray2D@E@@@Z
??0STerrainGeometry@NTerrain@@QAE@ABU01@@Z
??0STerrainGeometry@NTerrain@@QAE@XZ
??0STerrainHole@@QAE@ABU0@@Z
??0STerrainHole@@QAE@XZ
??0STerrainInfo@@QAE@ABU0@@Z
??0STerrainInfo@@QAE@XZ
??0STerrainSpot@@QAE@ABU0@@Z
??0STerrainSpot@@QAE@PAVCMaterial@NDb@@ABVCVec2@@1MUSStepSound@@@Z
??0STerrainSpot@@QAE@XZ
??0STessPoint@NTerrain@@QAE@MABVCVec3@@H@Z
??0STex@?$CLRUBuffersSet@VCCubeTB@NGfx@@VCCubeTexture@2@@NGfx@@QAE@ABU012@@Z
??0STex@?$CLRUBuffersSet@VCCubeTB@NGfx@@VCCubeTexture@2@@NGfx@@QAE@PAVCCubeTB@2@@Z
??0STex@?$CLRUBuffersSet@VCTB@NGfx@@VCTexture@2@@NGfx@@QAE@ABU012@@Z
??0STex@?$CLRUBuffersSet@VCTB@NGfx@@VCTexture@2@@NGfx@@QAE@PAVCTB@2@@Z
??0SText@NGScene@@QAE@XZ
??0STextLine@NUI@@QAE@XZ
??0STextureCoord@CRectLayout@@QAE@ABV?$CTRect@M@@@Z
??0STextureCoord@CRectLayout@@QAE@XZ
??0STextureCoord@CSWRectLayout@NGScene@@QAE@ABV?$CTRect@F@@W4ERectOrient@12@@Z
??0STextureKey@NGScene@@QAE@HH@Z
??0STextureKey@NGScene@@QAE@XZ
??0STextureMapping@@QAE@XZ
??0STexturePlaceInfo@NGfx@@QAE@XZ
??0STexturedPart@NWorld@@QAE@ABU01@@Z
??0STexturedPart@NWorld@@QAE@ABUSPart@NTerrain@@PAVCTexture@NDb@@@Z
??0STnLSelectionTransformer@NGScene@@QAE@XZ
??0SToHitConstants@NDb@@QAE@XZ
??0STrackItem@CDebrisController@NWorld@@QAE@ABU012@@Z
??0STrackItem@CDebrisController@NWorld@@QAE@XZ
??0STrackerDescr@CVolumeNode@NAI@@QAE@ABU012@@Z
??0STrackerDescr@CVolumeNode@NAI@@QAE@PAVIAIMapTracker@2@ABUSBound@@H_N@Z
??0STrailPoint@CATrailPath@NAnimation@@QAE@XZ
??0STrailPoint@NRPG@@QAE@ABU01@@Z
??0STrailPoint@NRPG@@QAE@HABVCVec3@@0ABVCAttackPortion@1@PAVCObjectBase@@2PAVCRPGArmor@NDb@@0H@Z
??0STrailPoint@NRPG@@QAE@XZ
??0STransitionSet@CNodesLayer@NAI@@QAE@ABU012@@Z
??0STransitionSet@CNodesLayer@NAI@@QAE@XZ
??0STransparentInfo@NGScene@@QAE@ABU01@@Z
??0STransparentInfo@NGScene@@QAE@XZ
??0STransparentMaterialInfo@NGScene@@QAE@XZ
??0STriInfo@CSquarePacker@NGScene@@QAE@HHH_NDGG@Z
??0STriangle@@QAE@GGG@Z
??0STriangle@@QAE@XZ
??0STriangleList@NGfx@@QAE@ABV?$vector@USTriangle@@V?$allocator@USTriangle@@@_STL@@@_STL@@@Z
??0STriangleList@NGfx@@QAE@PBUSTriangle@@HH@Z
??0STriangleList@NGfx@@QAE@XZ
??0STriangleSegments@CSuperCollider@NCollider@@QAE@XZ
??0SUnitDeployData@NRPG@@QAE@ABU01@@Z
??0SUnitDeployData@NRPG@@QAE@XZ
??0SUnitGroup@@QAE@ABU0@@Z
??0SUnitGroup@@QAE@XZ
??0SUnitHeadAnimator@NLSHead@@QAE@ABU01@@Z
??0SUnitHeadAnimator@NLSHead@@QAE@XZ
??0SUnitPosition@NAI@@QAE@ABU01@@Z
??0SUnitPosition@NAI@@QAE@XZ
??0SUnitPtrHolder@CWorld@NWorld@@QAE@ABU012@@Z
??0SUnitPtrHolder@CWorld@NWorld@@QAE@PAVCUnitServer@2@@Z
??0SVShader@@QAE@HPAK@Z
??0SVelocity@CSuperCollider@NCollider@@QAE@ABVCVec3@@@Z
??0SVertex@NGScene@@QAE@XZ
??0SVideoMode@NGfx@@QAE@HHHW4EFS@1@H@Z
??0SVideoMode@NGfx@@QAE@XZ
??0SVideoModeInfo@NGfx@@QAE@AAU_D3DDISPLAYMODE@@AAUSVideoMode@1@@Z
??0SVisibilitySpot@NRPG@@QAE@VCVec3@@H@Z
??0SVisibleHolder@NRender@@QAE@XZ
??0SVisionQuery@NRPG@@QAE@XZ
??0SVoxelObjectKey@NAI@@QAE@PAVCObjectBase@@H@Z
??0SWString@NGScene@@QAE@ABU01@@Z
??0SWString@NGScene@@QAE@W4ECharType@1@ABV?$basic_string@GU?$char_traits@G@std@@V?$allocator@G@_STL@@@_STL@@@Z
??0SWindow@CLoader@NUI@@QAE@ABU012@@Z
??0SWindow@CLoader@NUI@@QAE@XZ
??0SWindowInfo@NUI@@QAE@ABU01@@Z
??0SWindowInfo@NUI@@QAE@PAVCWindow@1@ABV?$CTPoint@H@@1ABV?$basic_string@DU?$char_traits@D@std@@V?$allocator@D@_STL@@@_STL@@H@Z
??0SWindowInfo@NUI@@QAE@XZ
??0SWorldDeploySpot@CWorld@NWorld@@QAE@ABUSPathPlace@NAI@@HH@Z
??0SZone@NAI@@QAE@GH@Z
??0SZone@NAI@@QAE@PBVCPathNetwork@1@ABUSPathPlace@1@@Z
??0SZone@NAI@@QAE@XZ
??0Script@@QAE@PAUlua_State@@@Z
??0SoundInit@NSound@@QAE@XZ
??0UParameter@CRenderCmdList@NGScene@@QAE@M@Z
??0UParameter@CRenderCmdList@NGScene@@QAE@PAVCCubeTexture@NGfx@@@Z
??0UParameter@CRenderCmdList@NGScene@@QAE@PAVCTexture@NGfx@@@Z
??0UParameter@CRenderCmdList@NGScene@@QAE@PBUSDirectionalDepthInfo@2@@Z
??0UParameter@CRenderCmdList@NGScene@@QAE@PBUSDynamicAmbientInfo@2@@Z
??0UParameter@CRenderCmdList@NGScene@@QAE@PBUSFogParams@2@@Z
??0UParameter@CRenderCmdList@NGScene@@QAE@PBUSPerspDirectionalDepthInfo@2@@Z
??0UParameter@CRenderCmdList@NGScene@@QAE@PBUSSkyDepth3Info@2@@Z
??0UParameter@CRenderCmdList@NGScene@@QAE@PBVCVec3@@@Z
??0UParameter@CRenderCmdList@NGScene@@QAE@PBVCVec4@@@Z
??0UParameter@CRenderCmdList@NGScene@@QAE@XZ
??0_Sentry_base@?$basic_ostream@DU?$char_traits@D@std@@@std@@QAE@AAV12@@Z
??0aiCommanderInit@NAI@@QAE@XZ
??0iChapterMapInit@@QAE@XZ
??0iGlobalMapInit@@QAE@XZ
??0iMainInit@NMainLoop@@QAE@XZ
??0iMainMenuInit@@QAE@XZ
??0iMissionExecInit@NGame@@QAE@XZ
??0iMissionInit@NGame@@QAE@XZ
??0sentry@?$basic_ostream@DU?$char_traits@D@std@@@std@@QAE@AAV12@@Z
??0wDumbUnitInit@@QAE@XZ
??1?$CActionDecorator@VCImage@NUI@@@NUI@@UAE@XZ
??1?$CActionDecorator@VCInteractiveUnitView@NUI@@@NUI@@UAE@XZ
??1?$CActionDecorator@VCShowItemModel@NUI@@@NUI@@UAE@XZ
??1?$CActionDecorator@VCUnitView@NUI@@@NUI@@UAE@XZ
??1?$CActionDecorator@VCWindow@NUI@@@NUI@@UAE@XZ
??1?$CArray2D@D@@QAE@XZ
??1?$CArray2D@E@@QAE@XZ
??1?$CArray2D@G@@QAE@XZ
??1?$CArray2D@H@@QAE@XZ
??1?$CArray2D@K@@QAE@XZ
??1?$CArray2D@M@@QAE@XZ
??1?$CArray2D@PAUSResult@CFastRenderer@NAI@@@@QAE@XZ
??1?$CArray2D@U?$SMoveInfo@V?$CTPoint@E@@G@NAI@@@@QAE@XZ
??1?$CArray2D@USBumpPixel@NGScene@@@@QAE@XZ
??1?$CArray2D@USDoorColliderAnalyzer@NAI@@@@QAE@XZ
??1?$CArray2D@USHeightNode@NAI@@@@QAE@XZ
??1?$CArray2D@USHilight@CSlot@NUI@@@@QAE@XZ
??1?$CArray2D@USPixel8888@NGfx@@@@QAE@XZ
??1?$CArray2D@USPoint@NGScene@@@@QAE@XZ
??1?$CArray2D@USStepSound@@@@QAE@XZ
??1?$CArray2D@USTile@NAI@@@@QAE@XZ
??1?$CArray2D@V?$CObj@V?$CPtrFuncBase@VCGrassPosition@NGScene@@@@@@@@QAE@XZ
??1?$CArray2D@V?$CObj@VCLayersSetTracker@NAI@@@@@@QAE@XZ
??1?$CArray2D@V?$CObj@VCVersioningBase@@@@@@QAE@XZ
??1?$CArray2D@_N@@QAE@XZ
??1?$CArray3D@D@@QAE@XZ
??1?$CArray3D@E@@QAE@XZ
??1?$CArray3D@USExplVoxel@NAI@@@@QAE@XZ
??1?$CArray3D@V?$CObj@VCVisionCube@NRPG@@@@@@QAE@XZ
??1?$CArrayRasterizer@VCBumpRender@NGScene@@USBumpPixel@2@@@QAE@XZ
??1?$CArrayRasterizer@VCFogRender@NGScene@@H@@QAE@XZ
??1?$CArrayRasterizer@VCTrueColorRender@NGScene@@USPixel8888@NGfx@@@@QAE@XZ
??1?$CAudibleSet@VCUnitServer@NWorld@@@NWorld@@QAE@XZ
??1?$CBSPCollider@USColliderUserInfo@NAI@@@NCollider@@QAE@XZ
??1?$CBasicShare@HVCAIGeometryConverter@NGScene@@U?$hash@H@_STL@@@@QAE@XZ
??1?$CBasicShare@HVCAISkinObjectConverter@NGScene@@U?$hash@H@_STL@@@@QAE@XZ
??1?$CBasicShare@HVCBuildInfoLoader@NBuilding@@U?$hash@H@_STL@@@@QAE@XZ
??1?$CBasicShare@HVCChapterInfoLoader@@U?$hash@H@_STL@@@@QAE@XZ
??1?$CBasicShare@HVCFileAIBind@NGScene@@U?$hash@H@_STL@@@@QAE@XZ
??1?$CBasicShare@HVCFileAnimation@NAnimation@@U?$hash@H@_STL@@@@QAE@XZ
??1?$CBasicShare@HVCFileBind@NGScene@@U?$hash@H@_STL@@@@QAE@XZ
??1?$CBasicShare@HVCFileCubeTexture@NGScene@@U?$hash@H@_STL@@@@QAE@XZ
??1?$CBasicShare@HVCFileFont@NGScene@@U?$hash@H@_STL@@@@QAE@XZ
??1?$CBasicShare@HVCFileLocators@NAnimation@@U?$hash@H@_STL@@@@QAE@XZ
??1?$CBasicShare@HVCFileSample2D@NSound@@U?$hash@H@_STL@@@@QAE@XZ
??1?$CBasicShare@HVCFileSample3D@NSound@@U?$hash@H@_STL@@@@QAE@XZ
??1?$CBasicShare@HVCFileSkeleton@NAnimation@@U?$hash@H@_STL@@@@QAE@XZ
??1?$CBasicShare@HVCFileSkinPointsLoad@NAI@@U?$hash@H@_STL@@@@QAE@XZ
??1?$CBasicShare@HVCGlobalInfoLoader@@U?$hash@H@_STL@@@@QAE@XZ
??1?$CBasicShare@HVCHeadMeshLoader@NLSHead@@U?$hash@H@_STL@@@@QAE@XZ
??1?$CBasicShare@HVCHeadSequenceLoader@NLSHead@@U?$hash@H@_STL@@@@QAE@XZ
??1?$CBasicShare@HVCLightLoader@NGScene@@U?$hash@H@_STL@@@@QAE@XZ
??1?$CBasicShare@HVCLoadGeometryInfo@NAI@@U?$hash@H@_STL@@@@QAE@XZ
??1?$CBasicShare@HVCLoadTwoBSPTrees@NAI@@U?$hash@H@_STL@@@@QAE@XZ
??1?$CBasicShare@HVCMETerrainLoader@@U?$hash@H@_STL@@@@QAE@XZ
??1?$CBasicShare@HVCParticlesLoader@NGScene@@U?$hash@H@_STL@@@@QAE@XZ
??1?$CBasicShare@HVCSWTexture@NGScene@@U?$hash@H@_STL@@@@QAE@XZ
??1?$CBasicShare@HVCUnitAIInfoLoader@NAI@@U?$hash@H@_STL@@@@QAE@XZ
??1?$CBasicShare@HVCUnitGroupAIInfoLoader@NAI@@U?$hash@H@_STL@@@@QAE@XZ
??1?$CBasicShare@HVCWaypointLoader@NAI@@U?$hash@H@_STL@@@@QAE@XZ
??1?$CBasicShare@USClipShare@NGScene@@VCSolidObjectInfoClipper@2@USClipInfoHash@2@@@QAE@XZ
??1?$CBasicShare@USClipShare@NGScene@@VCWallObjectInfoClipper@2@USClipInfoHash@2@@@QAE@XZ
??1?$CBasicShare@USPartKey@NGScene@@VCObjectInfoLoader@2@USPartHash@2@@@QAE@XZ
??1?$CBasicShare@USPartKey@NGScene@@VCObjectInfoPiecesLoader@2@USPartHash@2@@@QAE@XZ
??1?$CBasicShare@USTextureKey@NGScene@@VCFileTexture@2@USTextureKeyHash@2@@@QAE@XZ
??1?$CBoolSyncDstUtil@UIVisObj@NWorld@@V?$CBoolSyncSrc@UIVisObj@NWorld@@VCIntersectionFunc@@@@@@QAE@XZ
??1?$CBoolSyncDstUtil@UIVisObj@NWorld@@V?$CBoolSyncSrc@UIVisObj@NWorld@@VCUnionFunc@@@@@@QAE@XZ
??1?$CBoolSyncSrc@UIVisObj@NWorld@@VCIntersectionFunc@@@@MAE@XZ
??1?$CBoolSyncSrc@UIVisObj@NWorld@@VCUnionFunc@@@@MAE@XZ
??1?$CBufferLock@US3DTriangle@NGfx@@@NGfx@@QAE@XZ
??1?$CBufferLock@USGeomVecFull@NGfx@@@NGfx@@QAE@XZ
??1?$CBufferLock@USGeomVecNT1@NGfx@@@NGfx@@QAE@XZ
??1?$CBufferLock@USGeomVecT1C1@NGfx@@@NGfx@@QAE@XZ
??1?$CDBPtr@VCAnimation@NDb@@@@QAE@XZ
??1?$CDBPtr@VCChapterMap@NDb@@@@QAE@XZ
??1?$CDBPtr@VCComplexHead@NDb@@@@QAE@XZ
??1?$CDBPtr@VCDBAck@NDb@@@@QAE@XZ
??1?$CDBPtr@VCDBAckInfo@NDb@@@@QAE@XZ
??1?$CDBPtr@VCDBAutoLoadScript@NDb@@@@QAE@XZ
??1?$CDBPtr@VCDBCamera@NDb@@@@QAE@XZ
??1?$CDBPtr@VCDBDialog@NDb@@@@QAE@XZ
??1?$CDBPtr@VCDBDialogSeq@NDb@@@@QAE@XZ
??1?$CDBPtr@VCDBDifficulty@NDb@@@@QAE@XZ
??1?$CDBPtr@VCDBMinesConstants@NDb@@@@QAE@XZ
??1?$CDBPtr@VCDBPerk@NDb@@@@QAE@XZ
??1?$CDBPtr@VCDBPerkTreeNode@NDb@@@@QAE@XZ
??1?$CDBPtr@VCDBScenario@NDb@@@@QAE@XZ
??1?$CDBPtr@VCDBScenarioClue@NDb@@@@QAE@XZ
??1?$CDBPtr@VCDBScenarioObjective2Clue@NDb@@@@QAE@XZ
??1?$CDBPtr@VCDBScenarioObjective@NDb@@@@QAE@XZ
??1?$CDBPtr@VCDBScenarioZone@NDb@@@@QAE@XZ
??1?$CDBPtr@VCEffect@NDb@@@@QAE@XZ
??1?$CDBPtr@VCGeometry@NDb@@@@QAE@XZ
??1?$CDBPtr@VCGlobalMap@NDb@@@@QAE@XZ
??1?$CDBPtr@VCGrass@NDb@@@@QAE@XZ
??1?$CDBPtr@VCHead@NDb@@@@QAE@XZ
??1?$CDBPtr@VCLightInstance@NDb@@@@QAE@XZ
??1?$CDBPtr@VCMaterial@NDb@@@@QAE@XZ
??1?$CDBPtr@VCMusic@NDb@@@@QAE@XZ
??1?$CDBPtr@VCNationality@NDb@@@@QAE@XZ
??1?$CDBPtr@VCObject@NDb@@@@QAE@XZ
??1?$CDBPtr@VCPanzerklein@NDb@@@@QAE@XZ
??1?$CDBPtr@VCParticleInstance@NDb@@@@QAE@XZ
??1?$CDBPtr@VCRPGAmmo@NDb@@@@QAE@XZ
??1?$CDBPtr@VCRPGArmor@NDb@@@@QAE@XZ
??1?$CDBPtr@VCRPGClass@NDb@@@@QAE@XZ
??1?$CDBPtr@VCRPGClip@NDb@@@@QAE@XZ
??1?$CDBPtr@VCRPGCritical@NDb@@@@QAE@XZ
??1?$CDBPtr@VCRPGFirstAid@NDb@@@@QAE@XZ
??1?$CDBPtr@VCRPGGrenade@NDb@@@@QAE@XZ
??1?$CDBPtr@VCRPGItem@NDb@@@@QAE@XZ
??1?$CDBPtr@VCRPGKey@NDb@@@@QAE@XZ
??1?$CDBPtr@VCRPGMeleeWeapon@NDb@@@@QAE@XZ
??1?$CDBPtr@VCRPGMine@NDb@@@@QAE@XZ
??1?$CDBPtr@VCRPGMineDetector@NDb@@@@QAE@XZ
??1?$CDBPtr@VCRPGPers@NDb@@@@QAE@XZ
??1?$CDBPtr@VCRPGStoreItem@NDb@@@@QAE@XZ
??1?$CDBPtr@VCRPGTool@NDb@@@@QAE@XZ
??1?$CDBPtr@VCRPGWeapon@NDb@@@@QAE@XZ
??1?$CDBPtr@VCRndObject@NDb@@@@QAE@XZ
??1?$CDBPtr@VCScript@NDb@@@@QAE@XZ
??1?$CDBPtr@VCSequence@NDb@@@@QAE@XZ
??1?$CDBPtr@VCSide@NDb@@@@QAE@XZ
??1?$CDBPtr@VCSkeleton@NDb@@@@QAE@XZ
??1?$CDBPtr@VCSound@NDb@@@@QAE@XZ
??1?$CDBPtr@VCSoundInstance@NDb@@@@QAE@XZ
??1?$CDBPtr@VCTEffect@NDb@@@@QAE@XZ
??1?$CDBPtr@VCTemplVariant@NDb@@@@QAE@XZ
??1?$CDBPtr@VCTemplate@NDb@@@@QAE@XZ
??1?$CDBPtr@VCTexture@NDb@@@@QAE@XZ
??1?$CDBPtr@VCUIContainer@NDb@@@@QAE@XZ
??1?$CDBPtr@VCUITexture@NDb@@@@QAE@XZ
??1?$CDBPtr@VCWaypointName@NDb@@@@QAE@XZ
??1?$CDBPtrWrapper@VCDBCamera@NDb@@@NScript@@MAE@XZ
??1?$CDGPtr@V?$CFuncBase@H@@V?$CObj@V?$CFuncBase@H@@@@@@QAE@XZ
??1?$CDGPtr@V?$CFuncBase@K@@V?$CObj@V?$CFuncBase@K@@@@@@QAE@XZ
??1?$CDGPtr@V?$CFuncBase@M@@V?$CObj@V?$CFuncBase@M@@@@@@QAE@XZ
??1?$CDGPtr@V?$CFuncBase@USBound@@@@V?$CObj@V?$CFuncBase@USBound@@@@@@@@QAE@XZ
??1?$CDGPtr@V?$CFuncBase@USFBTransform@@@@V?$CObj@V?$CFuncBase@USFBTransform@@@@@@@@QAE@XZ
??1?$CDGPtr@V?$CFuncBase@USHeadFrame@NLSHead@@@@V?$CObj@V?$CFuncBase@USHeadFrame@NLSHead@@@@@@@@QAE@XZ
??1?$CDGPtr@V?$CFuncBase@USSkeletonState@NAnimation@@@@V?$CObj@V?$CFuncBase@USSkeletonState@NAnimation@@@@@@@@QAE@XZ
??1?$CDGPtr@V?$CFuncBase@USTerrainInfo@@@@V?$CObj@V?$CFuncBase@USTerrainInfo@@@@@@@@QAE@XZ
??1?$CDGPtr@V?$CFuncBase@USText@NGScene@@@@V?$CObj@V?$CFuncBase@USText@NGScene@@@@@@@@QAE@XZ
??1?$CDGPtr@V?$CFuncBase@V?$CTPoint@H@@@@V?$CObj@V?$CFuncBase@V?$CTPoint@H@@@@@@@@QAE@XZ
??1?$CDGPtr@V?$CFuncBase@V?$CTRect@H@@@@V?$CObj@V?$CFuncBase@V?$CTRect@H@@@@@@@@QAE@XZ
??1?$CDGPtr@V?$CFuncBase@V?$basic_string@GU?$char_traits@G@std@@V?$allocator@G@_STL@@@_STL@@@@V?$CObj@V?$CFuncBase@V?$basic_string@GU?$char_traits@G@std@@V?$allocator@G@_STL@@@_STL@@@@@@@@QAE@XZ
??1?$CDGPtr@V?$CFuncBase@V?$vector@USBonePose@NAnimation@@V?$allocator@USBonePose@NAnimation@@@_STL@@@_STL@@@@V?$CObj@V?$CFuncBase@V?$vector@USBonePose@NAnimation@@V?$allocator@USBonePose@NAnimation@@@_STL@@@_STL@@@@@@@@QAE@XZ
??1?$CDGPtr@V?$CFuncBase@V?$vector@USCompactTransformer@NGfx@@V?$allocator@USCompactTransformer@NGfx@@@_STL@@@_STL@@@@V?$CObj@V?$CFuncBase@V?$vector@USCompactTransformer@NGfx@@V?$allocator@USCompactTransformer@NGfx@@@_STL@@@_STL@@@@@@@@QAE@XZ
??1?$CDGPtr@V?$CFuncBase@V?$vector@USHMatrix@@V?$allocator@USHMatrix@@@_STL@@@_STL@@@@V?$CObj@V?$CFuncBase@V?$vector@USHMatrix@@V?$allocator@USHMatrix@@@_STL@@@_STL@@@@@@@@QAE@XZ
??1?$CDGPtr@V?$CFuncBase@V?$vector@USTriangleList@NGfx@@V?$allocator@USTriangleList@NGfx@@@_STL@@@_STL@@@@V?$CObj@V?$CFuncBase@V?$vector@USTriangleList@NGfx@@V?$allocator@USTriangleList@NGfx@@@_STL@@@_STL@@@@@@@@QAE@XZ
??1?$CDGPtr@V?$CFuncBase@V?$vector@V?$CPtr@VIPart@NGScene@@@@V?$allocator@V?$CPtr@VIPart@NGScene@@@@@_STL@@@_STL@@@@V?$CObj@V?$CFuncBase@V?$vector@V?$CPtr@VIPart@NGScene@@@@V?$allocator@V?$CPtr@VIPart@NGScene@@@@@_STL@@@_STL@@@@@@@@QAE@XZ
??1?$CDGPtr@V?$CFuncBase@VCExplosionInfo@NGScene@@@@V?$CObj@V?$CFuncBase@VCExplosionInfo@NGScene@@@@@@@@QAE@XZ
??1?$CDGPtr@V?$CFuncBase@VCRectLayout@@@@V?$CObj@V?$CFuncBase@VCRectLayout@@@@@@@@QAE@XZ
??1?$CDGPtr@V?$CFuncBase@VCSWRectLayout@NGScene@@@@V?$CObj@V?$CFuncBase@VCSWRectLayout@NGScene@@@@@@@@QAE@XZ
??1?$CDGPtr@V?$CFuncBase@VCVec2@@@@V?$CObj@V?$CFuncBase@VCVec2@@@@@@@@QAE@XZ
??1?$CDGPtr@V?$CFuncBase@VCVec3@@@@V?$CObj@V?$CFuncBase@VCVec3@@@@@@@@QAE@XZ
??1?$CDGPtr@V?$CFuncBase@VCVec4@@@@V?$CObj@V?$CFuncBase@VCVec4@@@@@@@@QAE@XZ
??1?$CDGPtr@V?$CFuncBase@_N@@V?$CObj@V?$CFuncBase@_N@@@@@@QAE@XZ
??1?$CDGPtr@V?$CPtrFuncBase@VCAnimLight@NGScene@@@@V?$CObj@V?$CPtrFuncBase@VCAnimLight@NGScene@@@@@@@@QAE@XZ
??1?$CDGPtr@V?$CPtrFuncBase@VCAnimLightInfo@NGScene@@@@V?$CObj@V?$CPtrFuncBase@VCAnimLightInfo@NGScene@@@@@@@@QAE@XZ
??1?$CDGPtr@V?$CPtrFuncBase@VCBuildInfo@NBuilding@@@@V?$CObj@V?$CPtrFuncBase@VCBuildInfo@NBuilding@@@@@@@@QAE@XZ
??1?$CDGPtr@V?$CPtrFuncBase@VCChapterInfo@@@@V?$CObj@V?$CPtrFuncBase@VCChapterInfo@@@@@@@@QAE@XZ
??1?$CDGPtr@V?$CPtrFuncBase@VCCubeTexture@NGfx@@@@V?$CObj@V?$CPtrFuncBase@VCCubeTexture@NGfx@@@@@@@@QAE@XZ
??1?$CDGPtr@V?$CPtrFuncBase@VCFileAnimationInfo@NAnimation@@@@V?$CObj@V?$CPtrFuncBase@VCFileAnimationInfo@NAnimation@@@@@@@@QAE@XZ
??1?$CDGPtr@V?$CPtrFuncBase@VCFileBindInfo@NGScene@@@@V?$CObj@V?$CPtrFuncBase@VCFileBindInfo@NGScene@@@@@@@@QAE@XZ
??1?$CDGPtr@V?$CPtrFuncBase@VCFileSkeletonInfo@NAnimation@@@@V?$CObj@V?$CPtrFuncBase@VCFileSkeletonInfo@NAnimation@@@@@@@@QAE@XZ
??1?$CDGPtr@V?$CPtrFuncBase@VCFileSkinPoints@NAI@@@@V?$CObj@V?$CPtrFuncBase@VCFileSkinPoints@NAI@@@@@@@@QAE@XZ
??1?$CDGPtr@V?$CPtrFuncBase@VCFontFormatInfo@@@@V?$CObj@V?$CPtrFuncBase@VCFontFormatInfo@@@@@@@@QAE@XZ
??1?$CDGPtr@V?$CPtrFuncBase@VCGeometry@NGfx@@@@V?$CObj@V?$CPtrFuncBase@VCGeometry@NGfx@@@@@@@@QAE@XZ
??1?$CDGPtr@V?$CPtrFuncBase@VCGeometryInfo@NAI@@@@V?$CObj@V?$CPtrFuncBase@VCGeometryInfo@NAI@@@@@@@@QAE@XZ
??1?$CDGPtr@V?$CPtrFuncBase@VCGlobalInfo@@@@V?$CObj@V?$CPtrFuncBase@VCGlobalInfo@@@@@@@@QAE@XZ
??1?$CDGPtr@V?$CPtrFuncBase@VCGrassPosition@NGScene@@@@V?$CObj@V?$CPtrFuncBase@VCGrassPosition@NGScene@@@@@@@@QAE@XZ
??1?$CDGPtr@V?$CPtrFuncBase@VCHeadMeshInfo@NLSHead@@@@V?$CObj@V?$CPtrFuncBase@VCHeadMeshInfo@NLSHead@@@@@@@@QAE@XZ
??1?$CDGPtr@V?$CPtrFuncBase@VCHeadSequenceInfo@NLSHead@@@@V?$CObj@V?$CPtrFuncBase@VCHeadSequenceInfo@NLSHead@@@@@@@@QAE@XZ
??1?$CDGPtr@V?$CPtrFuncBase@VCMETerrainInfo@@@@V?$CObj@V?$CPtrFuncBase@VCMETerrainInfo@@@@@@@@QAE@XZ
??1?$CDGPtr@V?$CPtrFuncBase@VCObjectInfo@NGScene@@@@V?$CObj@V?$CPtrFuncBase@VCObjectInfo@NGScene@@@@@@@@QAE@XZ
??1?$CDGPtr@V?$CPtrFuncBase@VCObjectInfoPieces@NGScene@@@@V?$CObj@V?$CPtrFuncBase@VCObjectInfoPieces@NGScene@@@@@@@@QAE@XZ
??1?$CDGPtr@V?$CPtrFuncBase@VCParticleEffect@NGScene@@@@V?$CObj@V?$CPtrFuncBase@VCParticleEffect@NGScene@@@@@@@@QAE@XZ
??1?$CDGPtr@V?$CPtrFuncBase@VCParticlesInfo@NGScene@@@@V?$CObj@V?$CPtrFuncBase@VCParticlesInfo@NGScene@@@@@@@@QAE@XZ
??1?$CDGPtr@V?$CPtrFuncBase@VCParticlesInfo@NGScene@@@@V?$CPtr@V?$CPtrFuncBase@VCParticlesInfo@NGScene@@@@@@@@QAE@XZ
??1?$CDGPtr@V?$CPtrFuncBase@VCSWTextureData@NGScene@@@@V?$CObj@V?$CPtrFuncBase@VCSWTextureData@NGScene@@@@@@@@QAE@XZ
??1?$CDGPtr@V?$CPtrFuncBase@VCSample2D@NFMSound@@@@V?$CObj@V?$CPtrFuncBase@VCSample2D@NFMSound@@@@@@@@QAE@XZ
??1?$CDGPtr@V?$CPtrFuncBase@VCSample3D@NFMSound@@@@V?$CObj@V?$CPtrFuncBase@VCSample3D@NFMSound@@@@@@@@QAE@XZ
??1?$CDGPtr@V?$CPtrFuncBase@VCTerrainPart@@@@V?$CObj@V?$CPtrFuncBase@VCTerrainPart@@@@@@@@QAE@XZ
??1?$CDGPtr@V?$CPtrFuncBase@VCTexture@NGfx@@@@V?$CObj@V?$CPtrFuncBase@VCTexture@NGfx@@@@@@@@QAE@XZ
??1?$CDGPtr@V?$CPtrFuncBase@VCTwoBSPTrees@NAI@@@@V?$CObj@V?$CPtrFuncBase@VCTwoBSPTrees@NAI@@@@@@@@QAE@XZ
??1?$CDGPtr@V?$CPtrFuncBase@VCUnitAIInfo@NAI@@@@V?$CObj@V?$CPtrFuncBase@VCUnitAIInfo@NAI@@@@@@@@QAE@XZ
??1?$CDGPtr@V?$CPtrFuncBase@VCWaypoint@NAI@@@@V?$CObj@V?$CPtrFuncBase@VCWaypoint@NAI@@@@@@@@QAE@XZ
??1?$CDGPtr@VCBilinearTexture@NGScene@@V?$CObj@VCBilinearTexture@NGScene@@@@@@QAE@XZ
??1?$CDGPtr@VCBuildInfoLoader@NBuilding@@V?$CObj@VCBuildInfoLoader@NBuilding@@@@@@QAE@XZ
??1?$CDGPtr@VCBuilder@NTerrain@@V?$CObj@VCBuilder@NTerrain@@@@@@QAE@XZ
??1?$CDGPtr@VCBuildingGrid@NBuilding@@V?$CObj@VCBuildingGrid@NBuilding@@@@@@QAE@XZ
??1?$CDGPtr@VCCTPoint@NGScene@@V?$CObj@VCCTPoint@NGScene@@@@@@QAE@XZ
??1?$CDGPtr@VCCTime@@V?$CObj@VCCTime@@@@@@QAE@XZ
??1?$CDGPtr@VCCVec2@NGScene@@V?$CObj@VCCVec2@NGScene@@@@@@QAE@XZ
??1?$CDGPtr@VCFakeParticleLMTexture@NGScene@@V?$CObj@VCFakeParticleLMTexture@NGScene@@@@@@QAE@XZ
??1?$CDGPtr@VCFileAIBind@NGScene@@V?$CObj@VCFileAIBind@NGScene@@@@@@QAE@XZ
??1?$CDGPtr@VCFileAnimation@NAnimation@@V?$CObj@VCFileAnimation@NAnimation@@@@@@QAE@XZ
??1?$CDGPtr@VCFileBind@NGScene@@V?$CObj@VCFileBind@NGScene@@@@@@QAE@XZ
??1?$CDGPtr@VCFileSkeleton@NAnimation@@V?$CObj@VCFileSkeleton@NAnimation@@@@@@QAE@XZ
??1?$CDGPtr@VCFileSkinPointsLoad@NAI@@V?$CObj@VCFileSkinPointsLoad@NAI@@@@@@QAE@XZ
??1?$CDGPtr@VCHeightMapBlock@NWorld@@V?$CObj@VCHeightMapBlock@NWorld@@@@@@QAE@XZ
??1?$CDGPtr@VCLoadGeometryInfo@NAI@@V?$CObj@VCLoadGeometryInfo@NAI@@@@@@QAE@XZ
??1?$CDGPtr@VCObjectInfoLoader@NGScene@@V?$CObj@VCObjectInfoLoader@NGScene@@@@@@QAE@XZ
??1?$CDGPtr@VCPerMaterialCombiner@NGScene@@V?$CObj@VCPerMaterialCombiner@NGScene@@@@@@QAE@XZ
??1?$CDGPtr@VCScreenshotTexture@NGScene@@V?$CObj@VCScreenshotTexture@NGScene@@@@@@QAE@XZ
??1?$CDGPtr@VCSkeletonAnimator@NAnimation@@V?$CObj@VCSkeletonAnimator@NAnimation@@@@@@QAE@XZ
??1?$CDGPtr@VCSolidAndWallMap@NBuilding@@V?$CObj@VCSolidAndWallMap@NBuilding@@@@@@QAE@XZ
??1?$CDGPtr@VCVBCombiner@NGScene@@V?$CObj@VCVBCombiner@NGScene@@@@@@QAE@XZ
??1?$CDGPtr@VCVersioningBase@@V?$CObj@VCVersioningBase@@@@@@QAE@XZ
??1?$CDGPtr@VIVBCombiner@NGScene@@V?$CObj@VIVBCombiner@NGScene@@@@@@QAE@XZ
??1?$CDynamicTrisBase@VCDynamicTrisIndices16@NGfx@@V?$CIBFast@$0GF@@2@@NGfx@@QAE@XZ
??1?$CDynamicTrisBase@VCDynamicTrisIndices32@NGfx@@V?$CIBFast@$0GG@@2@@NGfx@@QAE@XZ
??1?$CEventRegister@VCAckLongBurst@NWorld@@VCEventOnUnitLongBurst@2@@NGlobal@@QAE@XZ
??1?$CEventRegister@VCAckUnhide@NWorld@@VCEventOnUnitUnhide@2@@NGlobal@@QAE@XZ
??1?$CEventRegister@VCDecal@NWorld@@VCShowBloodUpdated@2@@NGlobal@@QAE@XZ
??1?$CEventRegister@VCUnitServer@NWorld@@VCEventOnNewPlayerTurnOrTime@2@@NGlobal@@QAE@XZ
??1?$CEventRegister@VCWorld@NWorld@@VCEventOnNewPlayerFastTurnOrTime@2@@NGlobal@@QAE@XZ
??1?$CFuncBase@H@@UAE@XZ
??1?$CFuncBase@K@@UAE@XZ
??1?$CFuncBase@M@@UAE@XZ
??1?$CFuncBase@USBound@@@@UAE@XZ
??1?$CFuncBase@USFBTransform@@@@UAE@XZ
??1?$CFuncBase@USHMatrix@@@@UAE@XZ
??1?$CFuncBase@USHeadFrame@NLSHead@@@@UAE@XZ
??1?$CFuncBase@USSkeletonState@NAnimation@@@@UAE@XZ
??1?$CFuncBase@USTerrainGeometry@NTerrain@@@@UAE@XZ
??1?$CFuncBase@USTerrainInfo@@@@UAE@XZ
??1?$CFuncBase@USText@NGScene@@@@UAE@XZ
??1?$CFuncBase@V?$CTPoint@H@@@@UAE@XZ
??1?$CFuncBase@V?$CTRect@H@@@@UAE@XZ
??1?$CFuncBase@V?$basic_string@GU?$char_traits@G@std@@V?$allocator@G@_STL@@@_STL@@@@UAE@XZ
??1?$CFuncBase@V?$vector@USBonePose@NAnimation@@V?$allocator@USBonePose@NAnimation@@@_STL@@@_STL@@@@UAE@XZ
??1?$CFuncBase@V?$vector@USCompactTransformer@NGfx@@V?$allocator@USCompactTransformer@NGfx@@@_STL@@@_STL@@@@UAE@XZ
??1?$CFuncBase@V?$vector@USHMatrix@@V?$allocator@USHMatrix@@@_STL@@@_STL@@@@UAE@XZ
??1?$CFuncBase@V?$vector@USTriangleList@NGfx@@V?$allocator@USTriangleList@NGfx@@@_STL@@@_STL@@@@UAE@XZ
??1?$CFuncBase@V?$vector@V?$CPtr@VIPart@NGScene@@@@V?$allocator@V?$CPtr@VIPart@NGScene@@@@@_STL@@@_STL@@@@UAE@XZ
??1?$CFuncBase@VCRectLayout@@@@UAE@XZ
??1?$CFuncBase@VCSWRectLayout@NGScene@@@@UAE@XZ
??1?$CFuncBase@VCVec2@@@@UAE@XZ
??1?$CFuncBase@VCVec3@@@@UAE@XZ
??1?$CFuncBase@VCVec4@@@@UAE@XZ
??1?$CFuncBase@_N@@UAE@XZ
??1?$CGatherElementBase@VCShortPtrAllocator@NCache@@VCFibElement@2@VCUserGeometry@NGfx@@@NCache@@MAE@XZ
??1?$CGatherElementBase@VCShortPtrAllocator@NCache@@VCQuadTreeElement@2@VCTexture@NGfx@@@NCache@@MAE@XZ
??1?$CGatheringCache@VCShortPtrAllocator@NCache@@VCFibElement@2@VCUserGeometry@NGfx@@@NCache@@UAE@XZ
??1?$CGatheringCache@VCShortPtrAllocator@NCache@@VCQuadTreeElement@2@VCTexture@NGfx@@@NCache@@UAE@XZ
??1?$CHoldedPtrFuncBase@VCAnimLightInfo@NGScene@@@@UAE@XZ
??1?$CHoldedPtrFuncBase@VCBuildInfo@NBuilding@@@@UAE@XZ
??1?$CHoldedPtrFuncBase@VCChapterInfo@@@@UAE@XZ
??1?$CHoldedPtrFuncBase@VCCubeTexture@NGfx@@@@UAE@XZ
??1?$CHoldedPtrFuncBase@VCFileAnimationInfo@NAnimation@@@@UAE@XZ
??1?$CHoldedPtrFuncBase@VCFileBindInfo@NGScene@@@@UAE@XZ
??1?$CHoldedPtrFuncBase@VCFileSkeletonInfo@NAnimation@@@@UAE@XZ
??1?$CHoldedPtrFuncBase@VCFileSkinPoints@NAI@@@@UAE@XZ
??1?$CHoldedPtrFuncBase@VCFontFormatInfo@@@@UAE@XZ
??1?$CHoldedPtrFuncBase@VCGeometryInfo@NAI@@@@UAE@XZ
??1?$CHoldedPtrFuncBase@VCGlobalInfo@@@@UAE@XZ
??1?$CHoldedPtrFuncBase@VCHeadMeshInfo@NLSHead@@@@UAE@XZ
??1?$CHoldedPtrFuncBase@VCHeadSequenceInfo@NLSHead@@@@UAE@XZ
??1?$CHoldedPtrFuncBase@VCMETerrainInfo@@@@UAE@XZ
??1?$CHoldedPtrFuncBase@VCObjectInfo@NGScene@@@@UAE@XZ
??1?$CHoldedPtrFuncBase@VCObjectInfoPieces@NGScene@@@@UAE@XZ
??1?$CHoldedPtrFuncBase@VCParticlesInfo@NGScene@@@@UAE@XZ
??1?$CHoldedPtrFuncBase@VCSWTextureData@NGScene@@@@UAE@XZ
??1?$CHoldedPtrFuncBase@VCSample2D@NFMSound@@@@UAE@XZ
??1?$CHoldedPtrFuncBase@VCSample3D@NFMSound@@@@UAE@XZ
??1?$CHoldedPtrFuncBase@VCTexture@NGfx@@@@UAE@XZ
??1?$CHoldedPtrFuncBase@VCTwoBSPTrees@NAI@@@@UAE@XZ
??1?$CHoldedPtrFuncBase@VCUnitAIInfo@NAI@@@@UAE@XZ
??1?$CHoldedPtrFuncBase@VCWaypoint@NAI@@@@UAE@XZ
??1?$CIBFast@$0GF@@NGfx@@UAE@XZ
??1?$CIBFast@$0GG@@NGfx@@UAE@XZ
??1?$CItemContainer@VCAmmoItem@NRPG@@@NRPG@@UAE@XZ
??1?$CItemContainer@VCPotionItem@NRPG@@@NRPG@@UAE@XZ
??1?$CLRUBuffersSet@VCCubeTB@NGfx@@VCCubeTexture@2@@NGfx@@QAE@XZ
??1?$CLRUBuffersSet@VCTB@NGfx@@VCTexture@2@@NGfx@@QAE@XZ
??1?$CLSPtr@UIAnimator@LifeStudioHeadAPI@@@NLSHead@@QAE@XZ
??1?$CLSPtr@UIMMTree@LifeStudioHeadAPI@@@NLSHead@@QAE@XZ
??1?$CLSPtr@UISequencer@LifeStudioHeadAPI@@@NLSHead@@QAE@XZ
??1?$CLazyResourceLoader@HVCAnimLightInfo@NGScene@@@NGScene@@UAE@XZ
??1?$CLazyResourceLoader@HVCParticlesInfo@NGScene@@@NGScene@@UAE@XZ
??1?$CLazyResourceLoader@HVCSample3D@NFMSound@@@NGScene@@UAE@XZ
??1?$CLazyResourceLoader@USPartKey@NGScene@@VCObjectInfo@2@@NGScene@@UAE@XZ
??1?$CLazyResourceLoader@USPartKey@NGScene@@VCObjectInfoPieces@2@@NGScene@@UAE@XZ
??1?$CLinearBuffer@VCVB@NGfx@@VCUserGeometry@2@@NGfx@@UAE@XZ
??1?$CLinearBufferElement@V?$CLinearBuffer@VCVB@NGfx@@VCUserGeometry@2@@NGfx@@VCVB@2@VCUserGeometry@2@@NGfx@@UAE@XZ
??1?$CMObj@VCCubeTexture@NGfx@@@@QAE@XZ
??1?$CMObj@VCDecal@NWorld@@@@QAE@XZ
??1?$CMObj@VCMine@NWorld@@@@QAE@XZ
??1?$CMObj@VCMouseCaptureHandler@NUI@@@@QAE@XZ
??1?$CMObj@VCObjectBase@@@@QAE@XZ
??1?$CMObj@VCTexture@NGfx@@@@QAE@XZ
??1?$CMObj@VCTriListWrapper@NGfx@@@@QAE@XZ
??1?$CMObj@VCUnitServer@NWorld@@@@QAE@XZ
??1?$CMObj@VCUserGeometry@NGfx@@@@QAE@XZ
??1?$CMObj@VCWindow@NUI@@@@QAE@XZ
??1?$CNodeMap@USGridNode@NBuilding@@@NBuilding@@QAE@XZ
??1?$CNodeMap@USSolidElement@NBuilding@@@NBuilding@@QAE@XZ
??1?$COcTreeNode@VCVolumeNode@NAI@@$03@@UAE@XZ
??1?$COcTreeNode@VCVolumeNode@NGScene@@$07@@UAE@XZ
??1?$COrdinarySyncDst@UIVisObj@NWorld@@VCAIMap@NAI@@@@QAE@XZ
??1?$COrdinarySyncDst@UIVisObj@NWorld@@VCRenderSound@NRender@@@@QAE@XZ
??1?$COrdinarySyncDst@UIVisObj@NWorld@@VCSetRender@NRender@@@@QAE@XZ
??1?$CParticlesGeometry@USGeomVecFull@NGfx@@@NGScene@@UAE@XZ
??1?$CParticlesGeometry@USGeomVecT1C1@NGfx@@@NGScene@@UAE@XZ
??1?$CPlayerBase@VCUnitServer@NWorld@@VCCommander@2@@NWorld@@QAE@XZ
??1?$CPlayerBaseVision@VCUnitServer@NWorld@@@NWorld@@QAE@XZ
??1?$CPool@USDynamicAmbientInfo@NGScene@@$0IA@@@QAE@XZ
??1?$CPool@USRenderFragmentInfo@NGScene@@$0IA@@@QAE@XZ
??1?$CPool@USRenderGeometryInfo@NGScene@@$0IA@@@QAE@XZ
??1?$CPool@USRenderStaticInfo@NGScene@@$0IA@@@QAE@XZ
??1?$CPool@USResult@CFastRenderer@NAI@@$0BAAA@@@QAE@XZ
??1?$CRBase@UIDirect3DVertexBuffer9@@@NGfx@@UAE@XZ
??1?$CResourceLoader@HVCAnimLightInfo@NGScene@@@NGScene@@UAE@XZ
??1?$CResourceLoader@HVCBuildInfo@NBuilding@@@NGScene@@UAE@XZ
??1?$CResourceLoader@HVCChapterInfo@@@NGScene@@UAE@XZ
??1?$CResourceLoader@HVCCubeTexture@NGfx@@@NGScene@@UAE@XZ
??1?$CResourceLoader@HVCFileAnimationInfo@NAnimation@@@NGScene@@UAE@XZ
??1?$CResourceLoader@HVCFileBindInfo@NGScene@@@NGScene@@UAE@XZ
??1?$CResourceLoader@HVCFileSkeletonInfo@NAnimation@@@NGScene@@UAE@XZ
??1?$CResourceLoader@HVCFileSkinPoints@NAI@@@NGScene@@UAE@XZ
??1?$CResourceLoader@HVCFontFormatInfo@@@NGScene@@UAE@XZ
??1?$CResourceLoader@HVCGeometryInfo@NAI@@@NGScene@@UAE@XZ
??1?$CResourceLoader@HVCGlobalInfo@@@NGScene@@UAE@XZ
??1?$CResourceLoader@HVCHeadMeshInfo@NLSHead@@@NGScene@@UAE@XZ
??1?$CResourceLoader@HVCHeadSequenceInfo@NLSHead@@@NGScene@@UAE@XZ
??1?$CResourceLoader@HVCMETerrainInfo@@@NGScene@@UAE@XZ
??1?$CResourceLoader@HVCParticlesInfo@NGScene@@@NGScene@@UAE@XZ
??1?$CResourceLoader@HVCSWTextureData@NGScene@@@NGScene@@UAE@XZ
??1?$CResourceLoader@HVCSample2D@NFMSound@@@NGScene@@UAE@XZ
??1?$CResourceLoader@HVCSample3D@NFMSound@@@NGScene@@UAE@XZ
??1?$CResourceLoader@HVCTwoBSPTrees@NAI@@@NGScene@@UAE@XZ
??1?$CResourceLoader@HVCUnitAIInfo@NAI@@@NGScene@@UAE@XZ
??1?$CResourceLoader@HVCWaypoint@NAI@@@NGScene@@UAE@XZ
??1?$CResourceLoader@USPartKey@NGScene@@VCObjectInfo@2@@NGScene@@UAE@XZ
??1?$CResourceLoader@USPartKey@NGScene@@VCObjectInfoPieces@2@@NGScene@@UAE@XZ
??1?$CResourceLoader@USTextureKey@NGScene@@VCTexture@NGfx@@@NGScene@@UAE@XZ
??1?$CResourcePrecache@VCBuildInfoLoader@NBuilding@@@NGScene@@UAE@XZ
??1?$CResourcePrecache@VCFileAIBind@NGScene@@@NGScene@@UAE@XZ
??1?$CResourcePrecache@VCFileAnimation@NAnimation@@@NGScene@@UAE@XZ
??1?$CResourcePrecache@VCFileBind@NGScene@@@NGScene@@UAE@XZ
??1?$CResourcePrecache@VCFileSkeleton@NAnimation@@@NGScene@@UAE@XZ
??1?$CResourcePrecache@VCFileSkinPointsLoad@NAI@@@NGScene@@UAE@XZ
??1?$CResourcePrecache@VCLoadGeometryInfo@NAI@@@NGScene@@UAE@XZ
??1?$CResourcePrecache@VCObjectInfoLoader@NGScene@@@NGScene@@UAE@XZ
??1?$CRing@USEdge@CPolyClipper@@@@QAE@XZ
??1?$CRing@USLink@CPolyClipper@@@@QAE@XZ
??1?$CScenarioFlowChartItemsList@VCScenarioClue@NScenario@@@NScenario@@MAE@XZ
??1?$CScenarioFlowChartItemsList@VCScenarioZone@NScenario@@@NScenario@@MAE@XZ
??1?$CScrollWindow@VCListView@NUI@@@NUI@@MAE@XZ
??1?$CScrollWindow@VCMLText@NUI@@@NUI@@MAE@XZ
??1?$CSet@VCPerk@NRPG@@@NWorld@@QAE@XZ
??1?$CSet@VCUnitServer@NWorld@@@NWorld@@QAE@XZ
??1?$CSetSyncSrc@UIVisObj@NWorld@@@@MAE@XZ
??1?$CShortPtrAllocator@USElement@?$CGatheringCache@VCShortPtrAllocator@NCache@@VCFibElement@2@VCUserGeometry@NGfx@@@NCache@@@NCache@@QAE@XZ
??1?$CShortPtrAllocator@USElement@?$CGatheringCache@VCShortPtrAllocator@NCache@@VCQuadTreeElement@2@VCTexture@NGfx@@@NCache@@@NCache@@QAE@XZ
??1?$CSomeItem@VCRPGKey@NDb@@VIKeyItem@NRPG@@@NRPG@@MAE@XZ
??1?$CSomeItem@VCRPGMine@NDb@@VIMineItem@NRPG@@@NRPG@@MAE@XZ
??1?$CSomeItem@VCRPGMineDetector@NDb@@VIMineDetectorItem@NRPG@@@NRPG@@MAE@XZ
??1?$CSomeRender@VCBumpRender@NGScene@@USBumpPixel@2@@NGScene@@QAE@XZ
??1?$CSomeRender@VCFogRender@NGScene@@H@NGScene@@QAE@XZ
??1?$CSomeRender@VCTrueColorRender@NGScene@@USPixel8888@NGfx@@@NGScene@@QAE@XZ
??1?$CSoundsTracker@VCUnitServer@NWorld@@@NWorld@@QAE@XZ
??1?$CSyncDst@UIVisObj@NWorld@@@@QAE@XZ
??1?$CSyncSrc@UIVisObj@NWorld@@@@UAE@XZ
??1?$CSyncSrcBind@UIVisObj@NWorld@@@@QAE@XZ
??1?$CTBSUnit@VCUnitServer@NWorld@@VCPlayer@2@@NWorld@@QAE@XZ
??1?$CTBSUnitVision@VCUnitServer@NWorld@@VCPlayer@2@@NWorld@@QAE@XZ
??1?$CTBSWorld@VCUnitServer@NWorld@@VCPlayer@2@VCCommander@2@@NWorld@@QAE@XZ
??1?$CTVoxelRenderer@VCExplVoxelRenderer@NAI@@USExplVoxel@2@@NAI@@QAE@XZ
??1?$CTVoxelRenderer@VCVisionVoxelRenderer@NAI@@D@NAI@@QAE@XZ
??1?$CTextureLock@USPixel1555@NGfx@@@NGfx@@QAE@XZ
??1?$CTextureLock@USPixel4444@NGfx@@@NGfx@@QAE@XZ
??1?$CTextureLock@USPixel565@NGfx@@@NGfx@@QAE@XZ
??1?$CTextureLock@USPixel8888@NGfx@@@NGfx@@QAE@XZ
??1?$CTextureLock@USPixelDXT1@NGfx@@@NGfx@@QAE@XZ
??1?$CTextureLock@USPixelDXT2@NGfx@@@NGfx@@QAE@XZ
??1?$CTextureLock@USPixelDXT3@NGfx@@@NGfx@@QAE@XZ
??1?$CTextureLock@USPixelDXT4@NGfx@@@NGfx@@QAE@XZ
??1?$CTextureLock@USPixelDXT5@NGfx@@@NGfx@@QAE@XZ
??1?$CUserCollider@USColliderUserInfo@NAI@@@NCollider@@QAE@XZ
??1?$CWaveCountCostsMajor@VCMovesEnumerator@NAI@@USPathPlace@2@GUSAlways@2@VCMultiMovesTable@2@$0BA@@NAI@@QAE@XZ
??1?$CWaveCountCostsMajor@VCMovesEnumerator@NAI@@USPathPlace@2@GVCLayerColorConstraints@2@VCPathPlaceTable@2@$0BA@@NAI@@QAE@XZ
??1?$SAISound@VCUnitServer@NWorld@@@NWorld@@QAE@XZ
??1?$SGfxTnLTransformer@USTnLSelectionTransformer@NGScene@@@NGScene@@QAE@XZ
??1?$SGfxTnLTransformer@USTnLTransformer@NGScene@@@NGScene@@QAE@XZ
??1?$SRealRectInfoLock@USGeomVecFull@NGfx@@@NGfx@@UAE@XZ
??1?$SRealRectInfoLock@USGeomVecT1C1@NGfx@@@NGfx@@UAE@XZ
??1?$SReplaceBlend@USStepSound@@@@QAE@XZ
??1?$STempArray@D@NAI@@MAE@XZ
??1?$STempArray@G@NAI@@MAE@XZ
??1?$STempArray@USTile@NAI@@@NAI@@MAE@XZ
??1?$STempArrayGroup@D@NAI@@QAE@XZ
??1?$STempArrayGroup@G@NAI@@QAE@XZ
??1?$STempArrayGroup@USTile@NAI@@@NAI@@QAE@XZ
??1?$TKeyVector@M@NGScene@@QAE@XZ
??1?$TKeyVector@VCVec3@@@NGScene@@QAE@XZ
??1?$_String_base@DV?$allocator@D@_STL@@@_STL@@QAE@XZ
??1?$_String_base@GV?$allocator@G@_STL@@@_STL@@QAE@XZ
??1?$com_ptr@UIDirect3D9@@@NWin32Helper@@QAE@XZ
??1?$com_ptr@UIDirect3DCubeTexture9@@@NWin32Helper@@QAE@XZ
??1?$com_ptr@UIDirect3DDevice9@@@NWin32Helper@@QAE@XZ
??1?$com_ptr@UIDirect3DIndexBuffer9@@@NWin32Helper@@QAE@XZ
??1?$com_ptr@UIDirect3DPixelShader9@@@NWin32Helper@@QAE@XZ
??1?$com_ptr@UIDirect3DSurface9@@@NWin32Helper@@QAE@XZ
??1?$com_ptr@UIDirect3DTexture9@@@NWin32Helper@@QAE@XZ
??1?$com_ptr@UIDirect3DVertexBuffer9@@@NWin32Helper@@QAE@XZ
??1?$com_ptr@UIDirect3DVertexDeclaration9@@@NWin32Helper@@QAE@XZ
??1?$com_ptr@UIDirect3DVertexShader9@@@NWin32Helper@@QAE@XZ
??1?$pair@$$CBHUSBodypart@CFileSkinPoints@NAI@@@_STL@@QAE@XZ
??1?$pair@$$CBHUSFacesVector@NGScene@@@_STL@@QAE@XZ
??1?$pair@$$CBHUSFloorGroup@NBuilding@@@_STL@@QAE@XZ
??1?$pair@$$CBHUSPiece@CGeometryInfo@NAI@@@_STL@@QAE@XZ
??1?$pair@$$CBHUSStoredPiece@NAI@@@_STL@@QAE@XZ
??1?$pair@$$CBHUSStoredSkin@NAI@@@_STL@@QAE@XZ
??1?$pair@$$CBHUSUnitGroup@@@_STL@@QAE@XZ
??1?$pair@$$CBHV?$CNodeMap@USSolidElement@NBuilding@@@NBuilding@@@_STL@@QAE@XZ
??1?$pair@$$CBHV?$CObj@VCBuildingPart@NWorld@@@@@_STL@@QAE@XZ
??1?$pair@$$CBHV?$CObj@VCMapWaypoint@@@@@_STL@@QAE@XZ
??1?$pair@$$CBHV?$CObj@VCPerk@NRPG@@@@@_STL@@QAE@XZ
??1?$pair@$$CBHV?$CObj@VCWindow@NUI@@@@@_STL@@QAE@XZ
??1?$pair@$$CBHV?$CObj@VIMaterial@NGScene@@@@@_STL@@QAE@XZ
??1?$pair@$$CBHV?$CPtr@VCAIGeometryConverter@NGScene@@@@@_STL@@QAE@XZ
??1?$pair@$$CBHV?$CPtr@VCAISkinObjectConverter@NGScene@@@@@_STL@@QAE@XZ
??1?$pair@$$CBHV?$CPtr@VCBSPTree@NAI@@@@@_STL@@QAE@XZ
??1?$pair@$$CBHV?$CPtr@VCBuildInfoLoader@NBuilding@@@@@_STL@@QAE@XZ
??1?$pair@$$CBHV?$CPtr@VCChapterInfoLoader@@@@@_STL@@QAE@XZ
??1?$pair@$$CBHV?$CPtr@VCFileAIBind@NGScene@@@@@_STL@@QAE@XZ
??1?$pair@$$CBHV?$CPtr@VCFileAnimation@NAnimation@@@@@_STL@@QAE@XZ
??1?$pair@$$CBHV?$CPtr@VCFileBind@NGScene@@@@@_STL@@QAE@XZ
??1?$pair@$$CBHV?$CPtr@VCFileCubeTexture@NGScene@@@@@_STL@@QAE@XZ
??1?$pair@$$CBHV?$CPtr@VCFileFont@NGScene@@@@@_STL@@QAE@XZ
??1?$pair@$$CBHV?$CPtr@VCFileLocators@NAnimation@@@@@_STL@@QAE@XZ
??1?$pair@$$CBHV?$CPtr@VCFileSample2D@NSound@@@@@_STL@@QAE@XZ
??1?$pair@$$CBHV?$CPtr@VCFileSample3D@NSound@@@@@_STL@@QAE@XZ
??1?$pair@$$CBHV?$CPtr@VCFileSkeleton@NAnimation@@@@@_STL@@QAE@XZ
??1?$pair@$$CBHV?$CPtr@VCFileSkinPointsLoad@NAI@@@@@_STL@@QAE@XZ
??1?$pair@$$CBHV?$CPtr@VCGlobalInfoLoader@@@@@_STL@@QAE@XZ
??1?$pair@$$CBHV?$CPtr@VCHeadMeshLoader@NLSHead@@@@@_STL@@QAE@XZ
??1?$pair@$$CBHV?$CPtr@VCHeadSequenceLoader@NLSHead@@@@@_STL@@QAE@XZ
??1?$pair@$$CBHV?$CPtr@VCLightLoader@NGScene@@@@@_STL@@QAE@XZ
??1?$pair@$$CBHV?$CPtr@VCLoadGeometryInfo@NAI@@@@@_STL@@QAE@XZ
??1?$pair@$$CBHV?$CPtr@VCLoadTwoBSPTrees@NAI@@@@@_STL@@QAE@XZ
??1?$pair@$$CBHV?$CPtr@VCLocalAmbientCalcer@NGScene@@@@@_STL@@QAE@XZ
??1?$pair@$$CBHV?$CPtr@VCMETerrainLoader@@@@@_STL@@QAE@XZ
??1?$pair@$$CBHV?$CPtr@VCMapWaypoint@@@@@_STL@@QAE@XZ
??1?$pair@$$CBHV?$CPtr@VCParticlesLoader@NGScene@@@@@_STL@@QAE@XZ
??1?$pair@$$CBHV?$CPtr@VCSWTexture@NGScene@@@@@_STL@@QAE@XZ
??1?$pair@$$CBHV?$CPtr@VCUnitAIInfoLoader@NAI@@@@@_STL@@QAE@XZ
??1?$pair@$$CBHV?$CPtr@VCUnitGroupAIInfoLoader@NAI@@@@@_STL@@QAE@XZ
??1?$pair@$$CBHV?$CPtr@VCUnitServer@NWorld@@@@@_STL@@QAE@XZ
??1?$pair@$$CBHV?$CPtr@VCWaypointLoader@NAI@@@@@_STL@@QAE@XZ
??1?$pair@$$CBHV?$com_ptr@UIDirect3DSurface9@@@NWin32Helper@@@_STL@@QAE@XZ
??1?$pair@$$CBHV?$hash_map@HV?$list@W4ECritical@NDb@@V?$allocator@W4ECritical@NDb@@@_STL@@@_STL@@U?$hash@H@2@U?$equal_to@H@2@V?$allocator@U?$pair@$$CBHV?$list@W4ECritical@NDb@@V?$allocator@W4ECritical@NDb@@@_STL@@@_STL@@@_STL@@@2@@_STL@@@_STL@@QAE@XZ
??1?$pair@$$CBHV?$list@V?$CObj@VCScenarioFlowChartState@NScenario@@@@V?$allocator@V?$CObj@VCScenarioFlowChartState@NScenario@@@@@_STL@@@_STL@@@_STL@@QAE@XZ
??1?$pair@$$CBHV?$list@W4ECritical@NDb@@V?$allocator@W4ECritical@NDb@@@_STL@@@_STL@@@_STL@@QAE@XZ
??1?$pair@$$CBHVCCubemapBufferSet@NGfx@@@_STL@@QAE@XZ
??1?$pair@$$CBHVCTextureBuffersSet@NGfx@@@_STL@@QAE@XZ
??1?$pair@$$CBUSClipShare@NGScene@@V?$CPtr@VCSolidObjectInfoClipper@NGScene@@@@@_STL@@QAE@XZ
??1?$pair@$$CBUSClipShare@NGScene@@V?$CPtr@VCWallObjectInfoClipper@NGScene@@@@@_STL@@QAE@XZ
??1?$pair@$$CBUSDecalTargetPart@NGScene@@V?$vector@V?$CPtr@VCDecal@NGScene@@@@V?$allocator@V?$CPtr@VCDecal@NGScene@@@@@_STL@@@_STL@@@_STL@@QAE@XZ
??1?$pair@$$CBUSGeometryType@NGfx@@V?$CObj@V?$CLinearBuffer@VCVB@NGfx@@VCUserGeometry@2@@NGfx@@@@@_STL@@QAE@XZ
??1?$pair@$$CBUSPart@NBuilding@@USStoreyInfo@2@@_STL@@QAE@XZ
??1?$pair@$$CBUSPartKey@NGScene@@V?$CPtr@VCObjectInfoLoader@NGScene@@@@@_STL@@QAE@XZ
??1?$pair@$$CBUSPartKey@NGScene@@V?$CPtr@VCObjectInfoPiecesLoader@NGScene@@@@@_STL@@QAE@XZ
??1?$pair@$$CBUSPathPlace@NAI@@USTransitionSet@CNodesLayer@2@@_STL@@QAE@XZ
??1?$pair@$$CBUSPlane@@USPolygonIndices@NGScene@@@_STL@@QAE@XZ
??1?$pair@$$CBUSPointLightPos@CLightmapTracker@NGScene@@V?$CObj@VCCubeTexture@NGfx@@@@@_STL@@QAE@XZ
??1?$pair@$$CBUSSrcPosInfo@NGScene@@V?$vector@VCVec3@@V?$allocator@VCVec3@@@_STL@@@_STL@@@_STL@@QAE@XZ
??1?$pair@$$CBUSTextureKey@NGScene@@V?$CPtr@VCFileTexture@NGScene@@@@@_STL@@QAE@XZ
??1?$pair@$$CBUSVoxelObjectKey@NAI@@USExplObject@CExplVoxelRenderer@2@@_STL@@QAE@XZ
??1?$pair@$$CBV?$CPtr@UIVisObj@NWorld@@@@H@_STL@@QAE@XZ
??1?$pair@$$CBV?$CPtr@UIVisObj@NWorld@@@@USObjectInfo@?$CBoolSyncSrc@UIVisObj@NWorld@@VCIntersectionFunc@@@@@_STL@@QAE@XZ
??1?$pair@$$CBV?$CPtr@UIVisObj@NWorld@@@@USObjectInfo@?$CBoolSyncSrc@UIVisObj@NWorld@@VCUnionFunc@@@@@_STL@@QAE@XZ
??1?$pair@$$CBV?$CPtr@V?$CFuncBase@USTerrainInfo@@@@@@V?$CObj@VCGrassTracker@NGScene@@@@@_STL@@QAE@XZ
??1?$pair@$$CBV?$CPtr@VCAIAction@NAI@@@@H@_STL@@QAE@XZ
??1?$pair@$$CBV?$CPtr@VCAIAction@NAI@@@@_N@_STL@@QAE@XZ
??1?$pair@$$CBV?$CPtr@VCObjectBase@@@@H@_STL@@QAE@XZ
??1?$pair@$$CBV?$CPtr@VCObjectBase@@@@USDynLockInfo@CPathNetwork@NAI@@@_STL@@QAE@XZ
??1?$pair@$$CBV?$CPtr@VCObjectBase@@@@USLockInfo@CPathNetwork@NAI@@@_STL@@QAE@XZ
??1?$pair@$$CBV?$CPtr@VCObjectBase@@@@V?$CPtr@VCSelection@NRender@@@@@_STL@@QAE@XZ
??1?$pair@$$CBV?$CPtr@VCObjectBase@@@@V?$list@HV?$allocator@H@_STL@@@_STL@@@_STL@@QAE@XZ
??1?$pair@$$CBV?$CPtr@VCObjectBase@@@@VCPartFlags@NGScene@@@_STL@@QAE@XZ
??1?$pair@$$CBV?$CPtr@VCObjectBase@@@@_N@_STL@@QAE@XZ
??1?$pair@$$CBV?$CPtr@VCScenarioClue@NScenario@@@@H@_STL@@QAE@XZ
??1?$pair@$$CBV?$CPtr@VCScenarioClue@NScenario@@@@USClueSlot@@@_STL@@QAE@XZ
??1?$pair@$$CBV?$CPtr@VCTB@NGfx@@@@V?$CObj@VCTexture@NGfx@@@@@_STL@@QAE@XZ
??1?$pair@$$CBV?$CPtr@VCUnit@NRPG@@@@USUnitDeployData@NRPG@@@_STL@@QAE@XZ
??1?$pair@$$CBV?$CPtr@VCUnit@NWorld@@@@_N@_STL@@QAE@XZ
??1?$pair@$$CBV?$CPtr@VCUnitServer@NWorld@@@@V?$CPtr@VIPassageObject@NWorld@@@@@_STL@@QAE@XZ
??1?$pair@$$CBV?$CPtr@VIAIJob@NAI@@@@V?$list@V?$CPtr@VIAIJob@NAI@@@@V?$allocator@V?$CPtr@VIAIJob@NAI@@@@@_STL@@@_STL@@@_STL@@QAE@XZ
??1?$pair@$$CBV?$CPtr@VIInventoryItem@NRPG@@@@V?$CPtr@VCItemText@NUI@@@@@_STL@@QAE@XZ
??1?$pair@$$CBV?$CPtr@VIPostProcess@NGScene@@@@V?$vector@USObject@IPostProcess@NGScene@@V?$allocator@USObject@IPostProcess@NGScene@@@_STL@@@_STL@@@_STL@@QAE@XZ
??1?$pair@$$CBV?$basic_string@DU?$char_traits@D@std@@V?$allocator@D@_STL@@@_STL@@H@_STL@@QAE@XZ
??1?$pair@$$CBV?$basic_string@DU?$char_traits@D@std@@V?$allocator@D@_STL@@@_STL@@V?$CObj@VCAIRouteWaypoint@NAI@@@@@_STL@@QAE@XZ
??1?$pair@$$CBV?$basic_string@DU?$char_traits@D@std@@V?$allocator@D@_STL@@@_STL@@V?$CPtr@VCObjectBase@@@@@_STL@@QAE@XZ
??1?$pair@$$CBV?$basic_string@DU?$char_traits@D@std@@V?$allocator@D@_STL@@@_STL@@V?$CPtr@VIFilesPackage@@@@@_STL@@QAE@XZ
??1?$pair@$$CBV?$basic_string@GU?$char_traits@G@std@@V?$allocator@G@_STL@@@_STL@@V12@@_STL@@QAE@XZ
??1?$pair@$$CBV?$basic_string@GU?$char_traits@G@std@@V?$allocator@G@_STL@@@_STL@@V?$CObj@VIMLHandler@NUI@@@@@_STL@@QAE@XZ
??1?$pair@$$CBVCVec3@@V?$CObj@VIMaterial@NGScene@@@@@_STL@@QAE@XZ
??1?$pair@$$CBVCVec3@@V?$list@PAVCPolyline@NGScene@@V?$allocator@PAVCPolyline@NGScene@@@_STL@@@_STL@@@_STL@@QAE@XZ
??1?$pair@$$CBVCVec3@@V?$vector@V?$CObj@VCMine@NWorld@@@@V?$allocator@V?$CObj@VCMine@NWorld@@@@@_STL@@@_STL@@@_STL@@QAE@XZ
??1?$pair@$$CBVCVec4@@V?$CObj@VIMaterial@NGScene@@@@@_STL@@QAE@XZ
??1?$pair@$$CBVCVec4@@V?$list@V?$CPtr@VCSelection@NGScene@@@@V?$allocator@V?$CPtr@VCSelection@NGScene@@@@@_STL@@@_STL@@@_STL@@QAE@XZ
??1?$pair@$$CBW4_D3DFORMAT@@V?$CPtr@VCSurfaceRing@NGfx@@@@@_STL@@QAE@XZ
??1?$pair@HV?$CNodeMap@USSolidElement@NBuilding@@@NBuilding@@@_STL@@QAE@XZ
??1?$pair@QAXV?$CPtr@VCObjectBase@@@@@_STL@@QAE@XZ
??1?$pair@V?$CPtr@VCWindow@NUI@@@@USWindow@CLoader@NUI@@@_STL@@QAE@XZ
??1C2DGameView@NGScene@@MAE@XZ
??1C2DQuadsRenderer@NGfx@@QAE@XZ
??1C2DScene@NGScene@@UAE@XZ
??1C3DSound@NWorld@@UAE@XZ
??1CAAdder@NAnimation@@MAE@XZ
??1CABoneFilter@NAnimation@@MAE@XZ
??1CAFunction@NAnimation@@UAE@XZ
??1CAFunctionConstant@NAnimation@@MAE@XZ
??1CAFunctionCos@NAnimation@@MAE@XZ
??1CAFunctionLinear@NAnimation@@MAE@XZ
??1CAFunctionParabola@NAnimation@@MAE@XZ
??1CAFunctionPathDirection@NAnimation@@MAE@XZ
??1CAFunctionSinus@NAnimation@@MAE@XZ
??1CAFunctionSum@NAnimation@@MAE@XZ
??1CAIAction@NAI@@UAE@XZ
??1CAIActionIterator@NAI@@MAE@XZ
??1CAIChoosePlaceForActionsJob@NAI@@MAE@XZ
??1CAICommander@NAI@@MAE@XZ
??1CAIControl@NAI@@UAE@XZ
??1CAICorpseSignal@NAI@@MAE@XZ
??1CAIFindGoodPlacesJob@NAI@@MAE@XZ
??1CAIFireArmsWeapon@NAI@@MAE@XZ
??1CAIFireArmsWeaponClip@NAI@@MAE@XZ
??1CAIGeometryConverter@NGScene@@MAE@XZ
??1CAIGrenadeSoundSignal@NAI@@MAE@XZ
??1CAIGrenadeWeapon@NAI@@MAE@XZ
??1CAIHitSignal@NAI@@MAE@XZ
??1CAIInventory@NAI@@MAE@XZ
??1CAIIterator@NAI@@UAE@XZ
??1CAIJob@NAI@@UAE@XZ
??1CAIJobManager@NAI@@MAE@XZ
??1CAIK2Chain@NAnimation@@MAE@XZ
??1CAILaunchRocketAction@NAI@@MAE@XZ
??1CAILogAddWeapon@NAI@@MAE@XZ
??1CAILogAddWeaponClip@NAI@@MAE@XZ
??1CAILogChangeMaxToHit@NAI@@MAE@XZ
??1CAILogChangeShootMode@NAI@@MAE@XZ
??1CAILogChangeWeapon@NAI@@MAE@XZ
??1CAILogContainer@NAI@@MAE@XZ
??1CAILogDropItem@NAI@@MAE@XZ
??1CAILogExpediency@NAI@@MAE@XZ
??1CAILogHide@NAI@@MAE@XZ
??1CAILogHurt@NAI@@MAE@XZ
??1CAILogPickUpItem@NAI@@MAE@XZ
??1CAILogPosition@NAI@@MAE@XZ
??1CAILogRecord@NAI@@MAE@XZ
??1CAILogReloadWeapon@NAI@@MAE@XZ
??1CAILogShot@NAI@@MAE@XZ
??1CAILogShotPoint@NAI@@MAE@XZ
??1CAILogSpendAP@NAI@@MAE@XZ
??1CAILogSpendAmmo@NAI@@MAE@XZ
??1CAILogSpendHP@NAI@@MAE@XZ
??1CAILogThrowGrenade@NAI@@MAE@XZ
??1CAILogic@NAI@@UAE@XZ
??1CAILogicAttack@NAI@@MAE@XZ
??1CAIMap@NAI@@MAE@XZ
??1CAINumberIterator@NAI@@UAE@XZ
??1CAIOneSegmentSignal@NAI@@UAE@XZ
??1CAIPathAPCalcer@NAI@@QAE@XZ
??1CAIPlayer@NAI@@MAE@XZ
??1CAIPositionIterator@NAI@@MAE@XZ
??1CAIRevealEnemySignal@NAI@@MAE@XZ
??1CAIRoute@NAI@@MAE@XZ
??1CAIRouteWaypoint@NAI@@MAE@XZ
??1CAIShootAction@NAI@@MAE@XZ
??1CAIShootSignal@NAI@@MAE@XZ
??1CAISignal@NAI@@UAE@XZ
??1CAISignalManager@NAI@@MAE@XZ
??1CAISkinObjectConverter@NGScene@@MAE@XZ
??1CAISoundSignal@NAI@@MAE@XZ
??1CAIState@NAI@@MAE@XZ
??1CAITacticalCommander@NAI@@MAE@XZ
??1CAITacticalControl@NAI@@MAE@XZ
??1CAITaskCommander@NAI@@MAE@XZ
??1CAITaskControl@NAI@@MAE@XZ
??1CAIThrowGrenadeAction@NAI@@MAE@XZ
??1CAIUnit@NAI@@MAE@XZ
??1CAIUnitIterator@NAI@@MAE@XZ
??1CAIUnitNoWeaponToHitCalcer@NRPG@@MAE@XZ
??1CAIUnitSoundSignal@NAI@@MAE@XZ
??1CAIUnitToHitCalcer@NRPG@@MAE@XZ
??1CAIViewer@@MAE@XZ
??1CAInterpolator@NAnimation@@MAE@XZ
??1CAPCritical@NRPG@@EAE@XZ
??1CAParticle@NAnimation@@UAE@XZ
??1CAPoseAimer@NAnimation@@MAE@XZ
??1CAPoseMemorizer@NAnimation@@MAE@XZ
??1CARandom@NAnimation@@MAE@XZ
??1CASequence@NAnimation@@MAE@XZ
??1CASmartAimer@NAnimation@@MAE@XZ
??1CASphereSet@NAnimation@@MAE@XZ
??1CASubtractor@NAnimation@@MAE@XZ
??1CATerrain@NAnimation@@MAE@XZ
??1CATerrainCrawl@NAnimation@@MAE@XZ
??1CATerrainSimple@NAnimation@@MAE@XZ
??1CATrailPath@NAnimation@@MAE@XZ
??1CATurnBody@NAnimation@@MAE@XZ
??1CAccidentalShotCritical@NRPG@@EAE@XZ
??1CAckAccidentallyWoundFriend@NWorld@@MAE@XZ
??1CAckBase@NWorld@@UAE@XZ
??1CAckCannotFinishHeal@NWorld@@MAE@XZ
??1CAckCertainTypeEnemyBecomesVisible@NWorld@@MAE@XZ
??1CAckEnemyBecomesVisible@NWorld@@MAE@XZ
??1CAckEnemyBecomesVisibleInRealtime@NWorld@@MAE@XZ
??1CAckEnemyBecomesVisibleInTurnbased@NWorld@@MAE@XZ
??1CAckEnemyHasBeenInfictedCritical@NWorld@@MAE@XZ
??1CAckEnemyMissedTarget@NWorld@@MAE@XZ
??1CAckEvent@NUI@@UAE@XZ
??1CAckEvent@NWorld@@MAE@XZ
??1CAckFriendDies@NWorld@@MAE@XZ
??1CAckFriendGrenadeDestroysALotOfObjects@NWorld@@MAE@XZ
??1CAckFriendGrenadeKillsMoreThanOneEnemy@NWorld@@MAE@XZ
??1CAckFriendInflictsCriticalDamageToEnemy@NWorld@@MAE@XZ
??1CAckFriendTargetMissed@NWorld@@MAE@XZ
??1CAckGrenadeDestroysALotOfObjects@NWorld@@MAE@XZ
??1CAckGrenadeKillsMoreThanOneEnemy@NWorld@@MAE@XZ
??1CAckHardTargetHit@NWorld@@MAE@XZ
??1CAckHealOfFriendFinished@NWorld@@MAE@XZ
??1CAckIcon@NUI@@UAE@XZ
??1CAckImpossibleToPerformAction@NWorld@@MAE@XZ
??1CAckInflictCriticalDamageToEnemy@NWorld@@MAE@XZ
??1CAckInterruptedEnemy@NWorld@@MAE@XZ
??1CAckKilledAnEnemy@NWorld@@MAE@XZ
??1CAckKilledCertainTypeEnemy@NWorld@@MAE@XZ
??1CAckKillingNthEnemyInARow@NWorld@@MAE@XZ
??1CAckLastPieceOfAmmo@NWorld@@MAE@XZ
??1CAckLongBurst@NWorld@@MAE@XZ
??1CAckNthUnitWasKilled@NWorld@@MAE@XZ
??1CAckOrderConfirmation@NWorld@@MAE@XZ
??1CAckPCSufferCriticalDamage@NWorld@@MAE@XZ
??1CAckSelfHealFinished@NWorld@@MAE@XZ
??1CAckSkillIncreased@NWorld@@MAE@XZ
??1CAckStrongEnemyBecomesVisible@NWorld@@MAE@XZ
??1CAckSuffersHardDamage@NWorld@@MAE@XZ
??1CAckSuffersLightDamage@NWorld@@MAE@XZ
??1CAckTargetHit@NWorld@@MAE@XZ
??1CAckTargetMissed@NWorld@@MAE@XZ
??1CAckUnhide@NWorld@@MAE@XZ
??1CAckUnitDied@NWorld@@MAE@XZ
??1CAckWeakEnemyBecomesVisible@NWorld@@MAE@XZ
??1CAckWeaponJammed@NWorld@@MAE@XZ
??1CActionCounter@NWorld@@MAE@XZ
??1CAddBoneFilter@NAnimation@@MAE@XZ
??1CAddBoneLocators@NAnimation@@MAE@XZ
??1CAlienMaterial@NGScene@@UAE@XZ
??1CAlphaSqrtEffect@NGfx@@UAE@XZ
??1CAmmoItem@NRPG@@MAE@XZ
??1CAnimLight@NGScene@@MAE@XZ
??1CAnimLightInfo@NGScene@@MAE@XZ
??1CAnimObjectServer@NWorld@@UAE@XZ
??1CAnimObjectServerBase@NWorld@@UAE@XZ
??1CAnimPassageObject@NWorld@@UAE@XZ
??1CAnimUnitView@NUI@@UAE@XZ
??1CAnimatedPart@NGScene@@UAE@XZ
??1CAnimation@NAnimation@@MAE@XZ
??1CAnimator@NAnimation@@UAE@XZ
??1CAttackPortion@NRPG@@QAE@XZ
??1CAudioOptionsUI@NUI@@UAE@XZ
??1CAutomaticCombiner@NGScene@@UAE@XZ
??1CBOTTOMHandler@NUI@@MAE@XZ
??1CBRHandler@NUI@@MAE@XZ
??1CBSPTree@NAI@@MAE@XZ
??1CBSPTreeConstructor@NAI@@MAE@XZ
??1CBackPackSlot@NUI@@MAE@XZ
??1CBaseCamera@@UAE@XZ
??1CBaseParticlesGeometry@NGScene@@UAE@XZ
??1CBaseView@NUI@@MAE@XZ
??1CBilinearTexture@NGScene@@MAE@XZ
??1CBind@NGScene@@MAE@XZ
??1CBleedingCritical@NRPG@@EAE@XZ
??1CBlindCritical@NRPG@@EAE@XZ
??1CBlurEffect@NGfx@@UAE@XZ
??1CBufferedStream@@UAE@XZ
??1CBuildInfo@NBuilding@@MAE@XZ
??1CBuildInfoLoader@NBuilding@@MAE@XZ
??1CBuilder@NTerrain@@MAE@XZ
??1CBuilding@NGScene@@MAE@XZ
??1CBuilding@NRPG@@MAE@XZ
??1CBuilding@NWorld@@UAE@XZ
??1CBuildingGrid@NBuilding@@MAE@XZ
??1CBuildingInfoHold@NBuilding@@MAE@XZ
??1CBuildingPart@NWorld@@UAE@XZ
??1CBuildingSchema@NBuilding@@MAE@XZ
??1CBulletServer@NWorld@@UAE@XZ
??1CBumpRender@NGScene@@QAE@XZ
??1CButton@NUI@@UAE@XZ
??1CButtonsPanel@NUI@@UAE@XZ
??1CCENTERHandler@NUI@@MAE@XZ
??1CCFBTransform@NGScene@@MAE@XZ
??1CCFloat@NGScene@@MAE@XZ
??1CCInt@NGScene@@MAE@XZ
??1CCLAmbientMulDiffuseEffect@NGfx@@UAE@XZ
??1CCMSR@NGScene@@MAE@XZ
??1CCOLORHandler@NUI@@MAE@XZ
??1CCRectLayout@NGScene@@MAE@XZ
??1CCSWRectLayout@NGScene@@MAE@XZ
??1CCTPoint@NGScene@@MAE@XZ
??1CCTRect@NGScene@@MAE@XZ
??1CCTerrainInfo@@MAE@XZ
??1CCTime@@MAE@XZ
??1CCVec2@NGScene@@MAE@XZ
??1CCVec3@NGScene@@MAE@XZ
??1CCVec4@NGScene@@MAE@XZ
??1CCWString@NGScene@@MAE@XZ
??1CCamera@@MAE@XZ
??1CCannon@NWorld@@UAE@XZ
??1CChapterInfo@@MAE@XZ
??1CChapterInfoLoader@@MAE@XZ
??1CChapterMap@NGame@@UAE@XZ
??1CChapterMapUI@NUI@@UAE@XZ
??1CChapterSector@NUI@@UAE@XZ
??1CCharGenMenuInterface@NGame@@MAE@XZ
??1CCharGenUI@NUI@@MAE@XZ
??1CCharacterPanel@NUI@@MAE@XZ
??1CCheckButton@NUI@@UAE@XZ
??1CClickOfDeath@NWorld@@UAE@XZ
??1CClipItem@NRPG@@MAE@XZ
??1CClipper@NGScene@@MAE@XZ
??1CClueItem@NRPG@@MAE@XZ
??1CCluesInterface@NGame@@MAE@XZ
??1CCluesItem@NUI@@UAE@XZ
??1CCluesUI@NUI@@UAE@XZ
??1CCmd@NWorld@@UAE@XZ
??1CCmdActivateItem@NWorld@@MAE@XZ
??1CCmdAddUnit@NWorld@@MAE@XZ
??1CCmdArrangeInventory@NWorld@@MAE@XZ
??1CCmdCallScriptFunction@NWorld@@MAE@XZ
??1CCmdCancel@NWorld@@MAE@XZ
??1CCmdCannon@NWorld@@MAE@XZ
??1CCmdChangePose@NWorld@@MAE@XZ
??1CCmdCheat@NWorld@@MAE@XZ
??1CCmdClimb@NWorld@@MAE@XZ
??1CCmdCollectSnipeAP@NWorld@@MAE@XZ
??1CCmdContinue@NWorld@@MAE@XZ
??1CCmdCreateInventoryItem@NWorld@@MAE@XZ
??1CCmdDeactivateItem@NWorld@@MAE@XZ
??1CCmdDropCorpse@NWorld@@MAE@XZ
??1CCmdEmpty@NWorld@@MAE@XZ
??1CCmdEndMove@NWorld@@MAE@XZ
??1CCmdEndOfTurn@NWorld@@MAE@XZ
??1CCmdEnterLadder@NWorld@@MAE@XZ
??1CCmdExitCannon@NWorld@@MAE@XZ
??1CCmdExitPK@NWorld@@MAE@XZ
??1CCmdExplode@NWorld@@MAE@XZ
??1CCmdGrenadeMode@NWorld@@MAE@XZ
??1CCmdHeal@NWorld@@MAE@XZ
??1CCmdHide@NWorld@@MAE@XZ
??1CCmdImpossibleToPerformAction@NWorld@@MAE@XZ
??1CCmdInterfaceEvent@NWorld@@MAE@XZ
??1CCmdJump@NWorld@@MAE@XZ
??1CCmdLeaveLadder@NWorld@@MAE@XZ
??1CCmdLoadWeapon@NWorld@@MAE@XZ
??1CCmdLook@NWorld@@MAE@XZ
??1CCmdMove@NWorld@@MAE@XZ
??1CCmdMoveInventoryItem@NWorld@@MAE@XZ
??1CCmdMoveLadder@NWorld@@MAE@XZ
??1CCmdNeedReload@NWorld@@MAE@XZ
??1CCmdOpenClose@NWorld@@MAE@XZ
??1CCmdOrderConfirmation@NWorld@@MAE@XZ
??1CCmdPath@NWorld@@MAE@XZ
??1CCmdPlayAnimation@NWorld@@MAE@XZ
??1CCmdQuitGame@NWorld@@MAE@XZ
??1CCmdReload@NWorld@@MAE@XZ
??1CCmdRemoveUnit@NWorld@@MAE@XZ
??1CCmdRotate@NWorld@@MAE@XZ
??1CCmdSetActiveItem@NWorld@@MAE@XZ
??1CCmdSetCommand@NWorld@@MAE@XZ
??1CCmdSetGrenadeOnObject@NWorld@@MAE@XZ
??1CCmdSetMineOnTile@NWorld@@MAE@XZ
??1CCmdShootMode@NWorld@@MAE@XZ
??1CCmdShootObject@NWorld@@MAE@XZ
??1CCmdShootTile@NWorld@@MAE@XZ
??1CCmdSnipeAttack@NWorld@@MAE@XZ
??1CCmdStartCombat@NWorld@@MAE@XZ
??1CCmdStrafe@NWorld@@MAE@XZ
??1CCmdTakeCorpse@NWorld@@MAE@XZ
??1CCmdTakeCorpseOnDeploy@NWorld@@MAE@XZ
??1CCmdTakePerk@NWorld@@MAE@XZ
??1CCmdTalk@NWorld@@MAE@XZ
??1CCmdTeleport@NWorld@@MAE@XZ
??1CCmdTravel@NWorld@@UAE@XZ
??1CCmdUnit@NWorld@@UAE@XZ
??1CCmdUnloadWeapon@NWorld@@MAE@XZ
??1CCmdUntrapObject@NWorld@@MAE@XZ
??1CCmdUsePassage@NWorld@@MAE@XZ
??1CCmdWeaponJammed@NWorld@@MAE@XZ
??1CCmdWishPose@NWorld@@MAE@XZ
??1CCollider@NAI@@UAE@XZ
??1CColorMaterialShare@NGScene@@QAE@XZ
??1CColorTexture@NGScene@@MAE@XZ
??1CColouredWaysCalcer@NAI@@MAE@XZ
??1CCombinedPart@NGScene@@MAE@XZ
??1CComboBox@NUI@@UAE@XZ
??1CComboBoxItem@NUI@@UAE@XZ
??1CComboBoxList@NUI@@UAE@XZ
??1CCommand@NWorld@@UAE@XZ
??1CCommandExecute@NWorld@@UAE@XZ
??1CCommander@NWorld@@MAE@XZ
??1CComplexButton@NUI@@MAE@XZ
??1CComplexComboBox@NUI@@UAE@XZ
??1CComplexSlider@NUI@@MAE@XZ
??1CComplexTextSlider@NUI@@MAE@XZ
??1CConsole@NUI@@MAE@XZ
??1CControlsOptionsUI@NUI@@UAE@XZ
??1CConvexHull@NAI@@UAE@XZ
??1CCoverInfo@NRPG@@MAE@XZ
??1CCritical@NRPG@@UAE@XZ
??1CCriticalSection@NWin32Helper@@QAE@XZ
??1CCriticalSectionLock@NWin32Helper@@QAE@XZ
??1CCriticalsBan@NWorld@@QAE@XZ
??1CCubeTB@NGfx@@UAE@XZ
??1CCubeTexture@NGfx@@UAE@XZ
??1CCubemapBufferSet@NGfx@@QAE@XZ
??1CCursor@NUI@@MAE@XZ
??1CDBRecord@@UAE@XZ
??1CDFrozenItem@NWorld@@UAE@XZ
??1CDGrassEvent@NWorld@@UAE@XZ
??1CDItem@NWorld@@UAE@XZ
??1CDParticles@NWorld@@UAE@XZ
??1CDamageWeaponCritical@NRPG@@EAE@XZ
??1CDataStream@@UAE@XZ
??1CDeafCritical@NRPG@@EAE@XZ
??1CDeathCritical@NRPG@@EAE@XZ
??1CDebrisController@NWorld@@QAE@XZ
??1CDebrisControllerTrash@NWorld@@MAE@XZ
??1CDecal@NGScene@@UAE@XZ
??1CDecal@NWorld@@UAE@XZ
??1CDecalGeometry@NGScene@@MAE@XZ
??1CDecalTarget@NGScene@@UAE@XZ
??1CDecalsManager@NGScene@@UAE@XZ
??1CDescriptionText@NUI@@MAE@XZ
??1CDesktopWindow@NUI@@UAE@XZ
??1CDirectionalLight@NGScene@@MAE@XZ
??1CDiscretePart@NGScene@@UAE@XZ
??1CDumbUnitServer@NWorld@@UAE@XZ
??1CDynamicConvexHull@NAI@@UAE@XZ
??1CDynamicGeometryPart@NGScene@@UAE@XZ
??1CDynamicLightCache@NGScene@@QAE@XZ
??1CDynamicPart@NGScene@@MAE@XZ
??1CDynamicPointLight@NGScene@@MAE@XZ
??1CDynamicSkill@NRPG@@MAE@XZ
??1CDynamicTrisIndices16@NGfx@@QAE@XZ
??1CDynamicTrisIndices32@NGfx@@QAE@XZ
??1CEdgesInfo@NAI@@QAE@XZ
??1CEdit@NUI@@UAE@XZ
??1CEditorCursor@NUI@@MAE@XZ
??1CEmptyOptionsUI@NUI@@UAE@XZ
??1CEnemyIcon@NUI@@MAE@XZ
??1CEnemyTurnProgressBar@NUI@@MAE@XZ
??1CEvent@NWin32Helper@@QAE@XZ
??1CEventOnNewPlayerFastTurnOrTime@NWorld@@QAE@XZ
??1CEventOnNewPlayerTurn@NWorld@@QAE@XZ
??1CEventOnNewPlayerTurnOrTime@NWorld@@QAE@XZ
??1CEventOnUnitLongBurst@NWorld@@QAE@XZ
??1CEventOnUnitUnhide@NWorld@@QAE@XZ
??1CExecAccidentalShot@NWorld@@MAE@XZ
??1CExecArrangeInventory@NWorld@@MAE@XZ
??1CExecAttack@NWorld@@UAE@XZ
??1CExecCannon@NWorld@@MAE@XZ
??1CExecCollectSnipeAP@NWorld@@MAE@XZ
??1CExecCorpse@NWorld@@MAE@XZ
??1CExecCreateInventoryItem@NWorld@@MAE@XZ
??1CExecCriticalLostWeapon@NWorld@@MAE@XZ
??1CExecDisarmMine@NWorld@@UAE@XZ
??1CExecDisarmTrap@NWorld@@UAE@XZ
??1CExecExplode@NWorld@@MAE@XZ
??1CExecGrenadeMode@NWorld@@MAE@XZ
??1CExecHeal@NWorld@@UAE@XZ
??1CExecHide@NWorld@@MAE@XZ
??1CExecImpossibleToPerformAction@NWorld@@MAE@XZ
??1CExecLaunchRocket@NWorld@@MAE@XZ
??1CExecLeaveInventory@NWorld@@MAE@XZ
??1CExecLoadWeapon@NWorld@@MAE@XZ
??1CExecMelee@NWorld@@UAE@XZ
??1CExecMeleeTile@NWorld@@MAE@XZ
??1CExecMeleeUnit@NWorld@@MAE@XZ
??1CExecMove@NWorld@@MAE@XZ
??1CExecMoveInventoryItem@NWorld@@MAE@XZ
??1CExecNeedReload@NWorld@@MAE@XZ
??1CExecOpenClose@NWorld@@MAE@XZ
??1CExecOrderConfirmation@NWorld@@MAE@XZ
??1CExecPanzerklein@NWorld@@MAE@XZ
??1CExecPlayAnimation@NWorld@@MAE@XZ
??1CExecQueue@NWorld@@MAE@XZ
??1CExecReload@NWorld@@MAE@XZ
??1CExecSetActiveItem@NWorld@@MAE@XZ
??1CExecSetMine@NWorld@@UAE@XZ
??1CExecSetStrafe@NWorld@@MAE@XZ
??1CExecSetTrap@NWorld@@UAE@XZ
??1CExecSetWishPose@NWorld@@MAE@XZ
??1CExecShoot@NWorld@@UAE@XZ
??1CExecShootMode@NWorld@@MAE@XZ
??1CExecShootTile@NWorld@@MAE@XZ
??1CExecShootUnit@NWorld@@MAE@XZ
??1CExecSnipeAim@NWorld@@MAE@XZ
??1CExecSpendAPAndRegister@NWorld@@MAE@XZ
??1CExecStartCombat@NWorld@@MAE@XZ
??1CExecTakeCorpseOnDeploy@NWorld@@MAE@XZ
??1CExecTakePerk@NWorld@@MAE@XZ
??1CExecTalk@NWorld@@MAE@XZ
??1CExecTeleport@NWorld@@MAE@XZ
??1CExecThrowGrenade@NWorld@@MAE@XZ
??1CExecThrowKnife@NWorld@@MAE@XZ
??1CExecUnloadWeapon@NWorld@@MAE@XZ
??1CExecUsePassage@NWorld@@MAE@XZ
??1CExecWeaponJammed@NWorld@@MAE@XZ
??1CExitMenuInterface@NGame@@MAE@XZ
??1CExitMenuUI@NUI@@UAE@XZ
??1CExitZoneSector@NUI@@MAE@XZ
??1CExplCube@NWorld@@MAE@XZ
??1CExplVoxelRenderer@NAI@@QAE@XZ
??1CExplosionAnimator@NGScene@@MAE@XZ
??1CExplosionDecalGeometry@NGScene@@MAE@XZ
??1CExplosionDecalMaterial@NGScene@@UAE@XZ
??1CExplosionParticleEffect@NGScene@@MAE@XZ
??1CExplosionShadowBuilder@NGScene@@QAE@XZ
??1CExtractTranslation@NGScene@@MAE@XZ
??1CFBTransform@@MAE@XZ
??1CFONTHandler@NUI@@MAE@XZ
??1CFPCamera@@MAE@XZ
??1CFWContext@@QAE@XZ
??1CFaceGenMenuInterface@NGame@@MAE@XZ
??1CFaceGenScroll@NUI@@MAE@XZ
??1CFaceGenUI@NUI@@MAE@XZ
??1CFakeParticleLMTexture@NGScene@@UAE@XZ
??1CFakeRPGUnit@NRender@@UAE@XZ
??1CFakeWorldUnit@NRender@@UAE@XZ
??1CFastRenderer@NAI@@QAE@XZ
??1CFileAIBind@NGScene@@MAE@XZ
??1CFileAnimation@NAnimation@@MAE@XZ
??1CFileAnimationInfo@NAnimation@@MAE@XZ
??1CFileBind@NGScene@@MAE@XZ
??1CFileBindInfo@NGScene@@MAE@XZ
??1CFileCubeTexture@NGScene@@MAE@XZ
??1CFileFont@NGScene@@MAE@XZ
??1CFileLocators@NAnimation@@MAE@XZ
??1CFileRequest@NGScene@@UAE@XZ
??1CFileResource@NGScene@@UAE@XZ
??1CFileSample2D@NSound@@MAE@XZ
??1CFileSample3D@NSound@@MAE@XZ
??1CFileSkeleton@NAnimation@@MAE@XZ
??1CFileSkeletonInfo@NAnimation@@MAE@XZ
??1CFileSkinPoints@NAI@@MAE@XZ
??1CFileSkinPointsLoad@NAI@@MAE@XZ
??1CFileStream@@UAE@XZ
??1CFileTexture@NGScene@@MAE@XZ
??1CFirstAidItem@NRPG@@MAE@XZ
??1CFlashButton@NUI@@MAE@XZ
??1CFlashImage@NUI@@MAE@XZ
??1CFloorsSet@NAI@@QAE@XZ
??1CFogRender@NGScene@@QAE@XZ
??1CFontFormatInfo@@MAE@XZ
??1CFontInfo@NGScene@@MAE@XZ
??1CForcedIconBarSet@NUI@@MAE@XZ
??1CGScene@NGScene@@MAE@XZ
??1CGame@NRPG@@MAE@XZ
??1CGamePlayOptionsUI@NUI@@UAE@XZ
??1CGameView@NGScene@@MAE@XZ
??1CGenericDynamicPart@NGScene@@UAE@XZ
??1CGenericMaterial@NGScene@@MAE@XZ
??1CGeometry@NGfx@@UAE@XZ
??1CGeometryInfo@NAI@@MAE@XZ
??1CGetTranspCache@NGScene@@UAE@XZ
??1CGlobalAck@NWorld@@MAE@XZ
??1CGlobalDiplomacy@NRPG@@MAE@XZ
??1CGlobalGame@NRPG@@MAE@XZ
??1CGlobalInfo@@MAE@XZ
??1CGlobalInfoLoader@@MAE@XZ
??1CGlobalMap@NGame@@UAE@XZ
??1CGlobalMapUI@NUI@@UAE@XZ
??1CGlobalPlayer@NRPG@@MAE@XZ
??1CGlobalSector@NUI@@UAE@XZ
??1CGrass@NGScene@@MAE@XZ
??1CGrassAnimator@NGScene@@MAE@XZ
??1CGrassParticleEffect@NGScene@@MAE@XZ
??1CGrassPosCalcer@NGScene@@MAE@XZ
??1CGrassPosition@NGScene@@MAE@XZ
??1CGrassTracker@NGScene@@MAE@XZ
??1CGrenadeItem@NRPG@@MAE@XZ
??1CGrenadeModeIconBarSet@NUI@@MAE@XZ
??1CGrenadeServer@NWorld@@UAE@XZ
??1CGrenadeToHitCalcer@NRPG@@MAE@XZ
??1CHZBuffer@NGScene@@MAE@XZ
??1CHead@NLSHead@@MAE@XZ
??1CHeadAnimator@NLSHead@@MAE@XZ
??1CHeadBound@NLSHead@@MAE@XZ
??1CHeadMeshInfo@NLSHead@@MAE@XZ
??1CHeadMeshLoader@NLSHead@@MAE@XZ
??1CHeadSequenceInfo@NLSHead@@MAE@XZ
??1CHeadSequenceLoader@NLSHead@@MAE@XZ
??1CHeadsController@NLSHead@@MAE@XZ
??1CHeightMapBlock@NWorld@@MAE@XZ
??1CHeightMapBlockInfo@NAI@@MAE@XZ
??1CHeroMenuInterface@NGame@@MAE@XZ
??1CHeroMenuUI@NUI@@MAE@XZ
??1CHitLocator@NWorld@@MAE@XZ
??1CHitTracker@NUI@@MAE@XZ
??1CHoleWallBuilder@NTerrain@@MAE@XZ
??1CHoverButton@NUI@@MAE@XZ
??1CIBCombiner@NGScene@@MAE@XZ
??1CICAIView@@MAE@XZ
??1CICBeginChapter@NGame@@MAE@XZ
??1CICBeginGame@NGame@@MAE@XZ
??1CICBeginMission@NGame@@MAE@XZ
??1CICCharGen@NGame@@MAE@XZ
??1CICClues@NGame@@MAE@XZ
??1CICContainer@NMainLoop@@MAE@XZ
??1CICContinueChapter@NGame@@MAE@XZ
??1CICContinueGlobal@NGame@@MAE@XZ
??1CICEndMission@NGame@@MAE@XZ
??1CICExitMenu@NGame@@MAE@XZ
??1CICExitModal@NMainLoop@@MAE@XZ
??1CICFaceGen@NGame@@MAE@XZ
??1CICHeroMenu@NGame@@MAE@XZ
??1CICInGameMenu@NGame@@MAE@XZ
??1CICInterMission@@MAE@XZ
??1CICInterMissionWait@@MAE@XZ
??1CICLoad@NMainLoop@@MAE@XZ
??1CICLoseMenu@NGame@@MAE@XZ
??1CICMainMenu@NGame@@MAE@XZ
??1CICMapEditBeginMission@NGame@@MAE@XZ
??1CICOptions@NGame@@MAE@XZ
??1CICProfile@NMainLoop@@MAE@XZ
??1CICRadTest@@MAE@XZ
??1CICSave@NMainLoop@@MAE@XZ
??1CICSaveLoadMenu@NGame@@MAE@XZ
??1CICShowClue@NGame@@MAE@XZ
??1CICShowGlobal@NGame@@MAE@XZ
??1CICSideMenu@NGame@@MAE@XZ
??1CICTeamMngMenu@NGame@@MAE@XZ
??1CIMAGEHandler@NUI@@MAE@XZ
??1CIconBarSet@NUI@@UAE@XZ
??1CIdleHandCritical@NRPG@@EAE@XZ
??1CImage@NUI@@UAE@XZ
??1CImageDraw@NUI@@MAE@XZ
??1CImageNumber@NUI@@MAE@XZ
??1CInGameMenuInterface@NGame@@MAE@XZ
??1CInGameMenuUI@NUI@@UAE@XZ
??1CInfoPanelCritical@NUI@@MAE@XZ
??1CInfoPanelMultipleUnits@NUI@@MAE@XZ
??1CInfoPanelSingleUnit@NUI@@MAE@XZ
??1CInfoPanelSlot@NUI@@UAE@XZ
??1CInfoPanelSpecialSlot@NUI@@UAE@XZ
??1CInterMissionInterface@@MAE@XZ
??1CInteractiveUnitView@NUI@@MAE@XZ
??1CInterface@NUI@@MAE@XZ
??1CInterfaceCommand@NMainLoop@@UAE@XZ
??1CInventory@NRPG@@MAE@XZ
??1CInventoryAnimator@NAnimation@@MAE@XZ
??1CInventoryItem@NRPG@@UAE@XZ
??1CInventoryPanel@NUI@@MAE@XZ
??1CItem@NRPG@@UAE@XZ
??1CItemModel@NUI@@MAE@XZ
??1CItemText@NUI@@MAE@XZ
??1CJUSTIFYHandler@NUI@@MAE@XZ
??1CJunction@NBuilding@@QAE@XZ
??1CKnifeAnimator@NWorld@@MAE@XZ
??1CKnifeServer@NWorld@@UAE@XZ
??1CLEFTHandler@NUI@@MAE@XZ
??1CLODCalcer@NGScene@@MAE@XZ
??1CLUACallParam@NScript@@MAE@XZ
??1CLUAObjectPosition@NScript@@MAE@XZ
??1CLadderCalcer@NAI@@QAE@XZ
??1CLadderTracker@NAI@@MAE@XZ
??1CLayerColorConstraints@NAI@@QAE@XZ
??1CLayersGroup@NAI@@MAE@XZ
??1CLayersSetTracker@NAI@@MAE@XZ
??1CLevelSwitchBar@NUI@@MAE@XZ
??1CLightAnimator@NGScene@@MAE@XZ
??1CLightCalcer@NGScene@@MAE@XZ
??1CLightGroup@NGScene@@UAE@XZ
??1CLightLoader@NGScene@@MAE@XZ
??1CLightState@NGScene@@QAE@XZ
??1CLightmapTracker@NGScene@@UAE@XZ
??1CLineBar@NUI@@MAE@XZ
??1CListView@NUI@@UAE@XZ
??1CLoadGeometryInfo@NAI@@MAE@XZ
??1CLoadTwoBSPTrees@NAI@@MAE@XZ
??1CLoadView@NUI@@MAE@XZ
??1CLoader@NUI@@MAE@XZ
??1CLocalAmbientCalcer@NGScene@@MAE@XZ
??1CLockable@NGfx@@UAE@XZ
??1CLogPanel@NUI@@MAE@XZ
??1CLoseMenuInterface@NGame@@MAE@XZ
??1CLoseMenuUI@NUI@@UAE@XZ
??1CLostWeaponCritical@NRPG@@EAE@XZ
??1CMETerrainInfo@@MAE@XZ
??1CMETerrainLoader@@MAE@XZ
??1CMIDDLEHandler@NUI@@MAE@XZ
??1CML@NUI@@MAE@XZ
??1CMLImageObject@NUI@@MAE@XZ
??1CMLLayout@NUI@@MAE@XZ
??1CMLText@NUI@@UAE@XZ
??1CMLTextObject@NUI@@MAE@XZ
??1CMMXAnimationMatrices@NGScene@@UAE@XZ
??1CMNode@NGScene@@MAE@XZ
??1CMSRConvert@NGScene@@MAE@XZ
??1CMSRNode@NGScene@@MAE@XZ
??1CMainIconBarSet@NUI@@MAE@XZ
??1CMainMenuInterface@NGame@@MAE@XZ
??1CMainMenuUI@NUI@@MAE@XZ
??1CMapBuilder@?A0xaa01e5fa@@QAE@XZ
??1CMapColourer@NAI@@MAE@XZ
??1CMapWaypoint@@MAE@XZ
??1CMaterialShare@NGScene@@MAE@XZ
??1CMayaCamera@@MAE@XZ
??1CMeleeToHitCalcer@NRPG@@MAE@XZ
??1CMeleeWeaponItem@NRPG@@MAE@XZ
??1CMemGeometry@NGScene@@MAE@XZ
??1CMemGeometryInfo@NAI@@MAE@XZ
??1CMemObject@@MAE@XZ
??1CMemObjectBuilder@@QAE@XZ
??1CMemObjectInfo@NGScene@@MAE@XZ
??1CMeshBound@NGScene@@MAE@XZ
??1CMine@NWorld@@UAE@XZ
??1CMineTracker@NWorld@@UAE@XZ
??1CMission@NGame@@MAE@XZ
??1CMissionDlgUI@NUI@@UAE@XZ
??1CMissionMovieUI@NUI@@UAE@XZ
??1CMissionTrailerUI@NUI@@UAE@XZ
??1CMissionUI@NUI@@UAE@XZ
??1CMixedMaterial@NBuilding@@MAE@XZ
??1CModel@NUI@@UAE@XZ
??1CModelDraw@NUI@@MAE@XZ
??1CMotionlessCritical@NRPG@@EAE@XZ
??1CMouseCaptureHandler@NUI@@UAE@XZ
??1CMoveAnimator@NAnimation@@MAE@XZ
??1CMovesCalcer@NAI@@QAE@XZ
??1CMovesEnumerator@NAI@@QAE@XZ
??1CMultiMovesTable@NAI@@QAE@XZ
??1CMusic@NSound@@MAE@XZ
??1CNodesLayer@NAI@@MAE@XZ
??1CNodesLayerProxy@NAI@@MAE@XZ
??1CNonePart@NGScene@@UAE@XZ
??1CObject@NRPG@@MAE@XZ
??1CObjectBase@@MAE@XZ
??1CObjectInfo@NGScene@@MAE@XZ
??1CObjectInfoLoader@NGScene@@MAE@XZ
??1CObjectInfoPieces@NGScene@@MAE@XZ
??1CObjectInfoPiecesLoader@NGScene@@MAE@XZ
??1CObjectInfoProcessor@NGScene@@QAE@XZ
??1CObjectServer@NWorld@@UAE@XZ
??1CObjectServerBase@NWorld@@UAE@XZ
??1CObjectSet@NGScene@@UAE@XZ
??1CObjectToHitCalcer@NRPG@@MAE@XZ
??1COccluderMaterial@NGScene@@UAE@XZ
??1COptionsInterface@NGame@@MAE@XZ
??1COptionsUI@NUI@@UAE@XZ
??1CPackageResource@NGScene@@UAE@XZ
??1CPackageStream@@UAE@XZ
??1CPanzerkleinCritical@NRPG@@EAE@XZ
??1CPartBuilder@NTerrain@@MAE@XZ
??1CParticleAnimator@NGScene@@MAE@XZ
??1CParticleEffect@NGScene@@UAE@XZ
??1CParticleSkeleton@NAnimation@@MAE@XZ
??1CParticleWaveTexture@NGScene@@QAE@XZ
??1CParticles@NGScene@@UAE@XZ
??1CParticlesInfo@NGScene@@MAE@XZ
??1CParticlesLoader@NGScene@@MAE@XZ
??1CParticlesTriList@NGScene@@MAE@XZ
??1CPartsRender@NGScene@@QAE@XZ
??1CPassCalcer@NAI@@QAE@XZ
??1CPassCalcerJob@NAI@@MAE@XZ
??1CPassageObject@NWorld@@UAE@XZ
??1CPassageObjectBase@NWorld@@UAE@XZ
??1CPath@NAI@@MAE@XZ
??1CPathAPCalcer@NWorld@@QAE@XZ
??1CPathInterpolator@NAnimation@@MAE@XZ
??1CPathNetwork@NAI@@MAE@XZ
??1CPathPlaceTable@NAI@@QAE@XZ
??1CPathViewer@NWorld@@MAE@XZ
??1CPatientCritical@NRPG@@EAE@XZ
??1CPerMaterialCombiner@NGScene@@UAE@XZ
??1CPerPolyDecal@NGScene@@UAE@XZ
??1CPerPolyDecalBuilder@NGScene@@QAE@XZ
??1CPerPolyDecalGeometry@NGScene@@MAE@XZ
??1CPerk@NRPG@@MAE@XZ
??1CPerkButton@NUI@@MAE@XZ
??1CPerksPanel@NUI@@MAE@XZ
??1CPerksPanelView@NUI@@MAE@XZ
??1CPerksTree@NRPG@@MAE@XZ
??1CPhysCollider@NAI@@QAE@XZ
??1CPlayer@NWorld@@MAE@XZ
??1CPlayerTracker@NGame@@MAE@XZ
??1CPointGlowAnimator@NGScene@@MAE@XZ
??1CPointGlowEffect@NGScene@@MAE@XZ
??1CPointLight@NGScene@@MAE@XZ
??1CPolyClipper@@QAE@XZ
??1CPolyline@NGScene@@MAE@XZ
??1CPosNode@NGScene@@MAE@XZ
??1CPoseIconBarSet@NUI@@MAE@XZ
??1CPostColorer@NGScene@@UAE@XZ
??1CPostProcessBinder@NGScene@@MAE@XZ
??1CPostWorldCreateInfo@NWorld@@UAE@XZ
??1CPotionContainer@NRPG@@MAE@XZ
??1CPotionItem@NRPG@@MAE@XZ
??1CPreciseTranspRender@NGScene@@QAE@XZ
??1CProgressBar@NUI@@UAE@XZ
??1CProjectedText@NUI@@MAE@XZ
??1CPushButton@NUI@@UAE@XZ
??1CRIGHTHandler@NUI@@MAE@XZ
??1CRLauncherToHitCalcer@NRPG@@MAE@XZ
??1CRandomSector@NUI@@MAE@XZ
??1CRecognitionAttribute@NAI@@MAE@XZ
??1CRecognitionClass@NAI@@MAE@XZ
??1CRecognizer@NAI@@MAE@XZ
??1CRecountColourerJob@NAI@@MAE@XZ
??1CRectLayout@@QAE@XZ
??1CRects@NGScene@@MAE@XZ
??1CRenderBaseInterface@NGame@@MAE@XZ
??1CRenderCmdList@NGScene@@QAE@XZ
??1CRenderContext@NGfx@@QAE@XZ
??1CRenderGame@NRender@@MAE@XZ
??1CRenderNode@NGScene@@MAE@XZ
??1CRenderSound@NRender@@MAE@XZ
??1CResourceFileOpener@NGScene@@QAE@XZ
??1CResourceOpener@NGScene@@QAE@XZ
??1CResourceTracker@NGScene@@QAE@XZ
??1CRocketAnimator@NWorld@@MAE@XZ
??1CRocketFlameAnimator@NWorld@@UAE@XZ
??1CRocketServer@NWorld@@UAE@XZ
??1CRoulette@@QAE@XZ
??1CSW2DScene@NGScene@@MAE@XZ
??1CSWRectLayout@NGScene@@QAE@XZ
??1CSWRects@NGScene@@MAE@XZ
??1CSWSpot@NGScene@@MAE@XZ
??1CSWTexture@NGScene@@MAE@XZ
??1CSWTextureData@NGScene@@MAE@XZ
??1CSaveLoadItem@NUI@@UAE@XZ
??1CSaveLoadMenuInterface@NGame@@MAE@XZ
??1CSaveLoadUI@NUI@@MAE@XZ
??1CSaveManager@NMainLoop@@QAE@XZ
??1CSaveView@NUI@@MAE@XZ
??1CScaleConverter@NAI@@MAE@XZ
??1CScaleConverterPoint@NAI@@MAE@XZ
??1CScaleNode@NGScene@@MAE@XZ
??1CScenarioClue@NScenario@@MAE@XZ
??1CScenarioFlowChart@NScenario@@MAE@XZ
??1CScenarioFlowChartBase@NScenario@@MAE@XZ
??1CScenarioFlowChartPathFinder@NScenario@@MAE@XZ
??1CScenarioFlowChartState@NScenario@@MAE@XZ
??1CScenarioObjective@NScenario@@MAE@XZ
??1CScenarioTracker@NScenario@@MAE@XZ
??1CScenarioZone@NScenario@@MAE@XZ
??1CSceneFragments@NGScene@@QAE@XZ
??1CSchemaObject@@MAE@XZ
??1CScreenShot@NUI@@UAE@XZ
??1CScreenshotTexture@NGScene@@MAE@XZ
??1CScript@NScript@@UAE@XZ
??1CScriptButton@NUI@@MAE@XZ
??1CScriptHoverButton@NUI@@MAE@XZ
??1CScroll@NUI@@UAE@XZ
??1CScrollWindowBase@NUI@@MAE@XZ
??1CSelectFragments@NGScene@@QAE@XZ
??1CSelectGeometries@NGScene@@QAE@XZ
??1CSelection@NGScene@@MAE@XZ
??1CSelection@NRender@@MAE@XZ
??1CSelectionNode@NGScene@@MAE@XZ
??1CSelectionWindow@NUI@@MAE@XZ
??1CSetRender@NRender@@QAE@XZ
??1CShaderParticlesGeometry@NGScene@@UAE@XZ
??1CShadowBuilder@NGScene@@QAE@XZ
??1CShadowCastMaterial@NGScene@@UAE@XZ
??1CShadowMapsShare@NGScene@@QAE@XZ
??1CShadowVolumeBuilder@NGScene@@QAE@XZ
??1CSharedHolder@@QAE@XZ
??1CShowAlphaEffect@NGfx@@UAE@XZ
??1CShowClueInterface@NGame@@MAE@XZ
??1CShowClueUI@NUI@@UAE@XZ
??1CShowClueView@NUI@@UAE@XZ
??1CShowItemModel@NUI@@MAE@XZ
??1CShowRPGUnit@NRender@@UAE@XZ
??1CShowUnitHead@NRender@@UAE@XZ
??1CShowWorldUnit@NRender@@UAE@XZ
??1CShrinkButton@NUI@@MAE@XZ
??1CSideMenuInterface@NGame@@MAE@XZ
??1CSideMenuUI@NUI@@MAE@XZ
??1CSimpleExecQueue@NWorld@@MAE@XZ
??1CSimplePart@NGScene@@UAE@XZ
??1CSinus@NGScene@@MAE@XZ
??1CSkeletonAnimator@NAnimation@@MAE@XZ
??1CSkeletonState@NAnimation@@MAE@XZ
??1CSkillModifier@NRPG@@UAE@XZ
??1CSkinner@NAI@@MAE@XZ
??1CSkyAdapter@NGScene@@MAE@XZ
??1CSlider@NUI@@UAE@XZ
??1CSlot@NUI@@UAE@XZ
??1CSlotReloadButton@NUI@@UAE@XZ
??1CSlotScroll@NUI@@MAE@XZ
??1CSolidAndWallMap@NBuilding@@UAE@XZ
??1CSolidObjectInfoClipper@NGScene@@MAE@XZ
??1CSound2D@NSound@@MAE@XZ
??1CSound@NSound@@MAE@XZ
??1CSoundEffect@NSound@@MAE@XZ
??1CSoundInstance@NSound@@MAE@XZ
??1CSoundScene@NSound@@MAE@XZ
??1CSquareMapCosts@NAI@@QAE@XZ
??1CSquarePacker@NGScene@@QAE@XZ
??1CStandAnimator@NAnimation@@MAE@XZ
??1CStandardParticleEffect@NGScene@@MAE@XZ
??1CStatChange@NUI@@MAE@XZ
??1CStatPoints@NUI@@MAE@XZ
??1CStateAttack@NGame@@MAE@XZ
??1CStateBase@NGame@@UAE@XZ
??1CStateDragItem@NGame@@MAE@XZ
??1CStateDropCorpse@NGame@@MAE@XZ
??1CStateEmpty@NGame@@MAE@XZ
??1CStateFirstAid@NGame@@MAE@XZ
??1CStateFriend@NGame@@MAE@XZ
??1CStateMove@NGame@@MAE@XZ
??1CStateMoveItem@NGame@@MAE@XZ
??1CStatePickItem@NGame@@MAE@XZ
??1CStatePose@NGame@@MAE@XZ
??1CStateRotate@NGame@@MAE@XZ
??1CStateSelection@NGame@@MAE@XZ
??1CStateSetMine@NGame@@MAE@XZ
??1CStateSetTrap@NGame@@MAE@XZ
??1CStateTeam@NGame@@MAE@XZ
??1CStateUnloadItem@NGame@@MAE@XZ
??1CStateUntrap@NGame@@MAE@XZ
??1CStateUse@NGame@@MAE@XZ
??1CStateWait@NGame@@MAE@XZ
??1CStaticConvexHull@NAI@@UAE@XZ
??1CStorePanel@NUI@@MAE@XZ
??1CStoreSlot@NUI@@MAE@XZ
??1CStructureSaver@@QAE@XZ
??1CStunCritical@NRPG@@EAE@XZ
??1CSuperCollider@NCollider@@QAE@XZ
??1CSurfaceRing@NGfx@@UAE@XZ
??1CSysTexture@NGfx@@MAE@XZ
??1CTB@NGfx@@MAE@XZ
??1CTOPHandler@NUI@@MAE@XZ
??1CTask@NAI@@MAE@XZ
??1CTaskCommand@NAI@@UAE@XZ
??1CTaskCommandChangeDirection@NAI@@MAE@XZ
??1CTaskCommandChangePose@NAI@@MAE@XZ
??1CTaskCommandCustomIdleAnimation@NAI@@MAE@XZ
??1CTaskCommandGoto@NAI@@MAE@XZ
??1CTaskCommandRoaming@NAI@@MAE@XZ
??1CTaskCommandSync@NAI@@MAE@XZ
??1CTaskCommandWait@NAI@@MAE@XZ
??1CTaskSyncObject@NAI@@MAE@XZ
??1CTaskSyncObjectClient@NAI@@UAE@XZ
??1CTeamMarker@NUI@@MAE@XZ
??1CTeamMngMenuInterface@NGame@@MAE@XZ
??1CTeamMngUI@NUI@@UAE@XZ
??1CTerrain@NWorld@@UAE@XZ
??1CTerrainGeometry@NAI@@MAE@XZ
??1CTerrainInfoHolder@@MAE@XZ
??1CTerrainModelPart@NGScene@@MAE@XZ
??1CTerrainModelWallPart@NGScene@@MAE@XZ
??1CTerrainPart@@MAE@XZ
??1CTerrainRegion@NWorld@@UAE@XZ
??1CTerrainTexture@NGScene@@MAE@XZ
??1CTerrainTexturesCache@NGScene@@QAE@XZ
??1CTerrainWallBuilder@NTerrain@@MAE@XZ
??1CTestTerrain@NAnimation@@MAE@XZ
??1CText@NUI@@UAE@XZ
??1CTextDraw@NUI@@MAE@XZ
??1CTextFormater@NGScene@@MAE@XZ
??1CTextLocaleInfo@NGScene@@MAE@XZ
??1CTextView@NUI@@UAE@XZ
??1CTexture@NGfx@@MAE@XZ
??1CTextureBuffersSet@NGfx@@QAE@XZ
??1CTextureCache@NGfx@@QAE@XZ
??1CTextureLocker@NGfx@@UAE@XZ
??1CThrowKnifeTileToHitCalcer@NRPG@@MAE@XZ
??1CThrowKnifeToHitCalcer@NRPG@@MAE@XZ
??1CTileToHitCalcer@NRPG@@MAE@XZ
??1CTimeCounter@@QAE@XZ
??1CTimedObject@NWorld@@UAE@XZ
??1CTnLParticlesGeometry@NGScene@@UAE@XZ
??1CToHitCalcer@NRPG@@UAE@XZ
??1CToolItem@NRPG@@MAE@XZ
??1CToolTip@NUI@@UAE@XZ
??1CTopBar@NUI@@MAE@XZ
??1CTrajectoryAnimator@NAnimation@@MAE@XZ
??1CTransparentMaterial@NGScene@@MAE@XZ
??1CTransparentMaterialShare@NGScene@@QAE@XZ
??1CTransparentRenderer@NGScene@@UAE@XZ
??1CTriList@NGfx@@UAE@XZ
??1CTriListCore@NGfx@@UAE@XZ
??1CTriListWrapper@NGfx@@MAE@XZ
??1CTriListWrapperHandle@NGfx@@QAE@XZ
??1CTriVertexCacheOptimizer@NGScene@@QAE@XZ
??1CTrueColorRender@NGScene@@QAE@XZ
??1CTwoBSPTrees@NAI@@MAE@XZ
??1CUICmd@NWorld@@MAE@XZ
??1CUICmdBeginSequence@NWorld@@MAE@XZ
??1CUICmdContinueChapter@NWorld@@MAE@XZ
??1CUICmdEndSequence@NWorld@@MAE@XZ
??1CUICmdExec@NGame@@UAE@XZ
??1CUICmdExecContainer@NGame@@MAE@XZ
??1CUICmdExecContinueChapter@NGame@@MAE@XZ
??1CUICmdExecLoadTemplate@NGame@@MAE@XZ
??1CUICmdExecPlayDialog@NGame@@MAE@XZ
??1CUICmdExecShowStore@NGame@@MAE@XZ
??1CUICmdExecShowTeamMng@NGame@@MAE@XZ
??1CUICmdFollowCameraExec@NGame@@MAE@XZ
??1CUICmdLoadTemplate@NWorld@@MAE@XZ
??1CUICmdMoveCamera@NWorld@@MAE@XZ
??1CUICmdMoveCameraExec@NGame@@MAE@XZ
??1CUICmdPartFinished@NWorld@@MAE@XZ
??1CUICmdPlayAck@NWorld@@MAE@XZ
??1CUICmdPlayDialog@NWorld@@MAE@XZ
??1CUICmdRestoreCameraExec@NGame@@MAE@XZ
??1CUICmdSetFloor@NWorld@@MAE@XZ
??1CUICmdShowClue@NWorld@@MAE@XZ
??1CUICmdShowStore@NWorld@@MAE@XZ
??1CUICmdShowTeamMng@NWorld@@MAE@XZ
??1CUICmdTurn@NWorld@@MAE@XZ
??1CUICmdUnit@NWorld@@MAE@XZ
??1CUIControl@NDb@@MAE@XZ
??1CUnit@NRPG@@MAE@XZ
??1CUnit@NWorld@@UAE@XZ
??1CUnitAIInfo@NAI@@MAE@XZ
??1CUnitAIInfoLoader@NAI@@MAE@XZ
??1CUnitAnimator@NWorld@@QAE@XZ
??1CUnitCharacterPanel@NUI@@UAE@XZ
??1CUnitFace@NUI@@MAE@XZ
??1CUnitGroup@NWorld@@MAE@XZ
??1CUnitGroupAIInfoLoader@NAI@@MAE@XZ
??1CUnitHead@NUI@@MAE@XZ
??1CUnitIconsBar@NUI@@MAE@XZ
??1CUnitInventoryPanel@NUI@@UAE@XZ
??1CUnitInventoryPanelItem@NUI@@UAE@XZ
??1CUnitMission@NRPG@@MAE@XZ
??1CUnitModelShow@NUI@@MAE@XZ
??1CUnitPanel@NUI@@MAE@XZ
??1CUnitPortraitState@NUI@@UAE@XZ
??1CUnitPortraitView@NUI@@UAE@XZ
??1CUnitServer@NWorld@@UAE@XZ
??1CUnitState@NWorld@@UAE@XZ
??1CUnitStateCorpseCarrier@NWorld@@MAE@XZ
??1CUnitStateDeath@NWorld@@MAE@XZ
??1CUnitStateEngineering@NWorld@@MAE@XZ
??1CUnitStateHealer@NWorld@@MAE@XZ
??1CUnitStateInPocket@NWorld@@MAE@XZ
??1CUnitStateNormal@NWorld@@MAE@XZ
??1CUnitStateSniping@NWorld@@MAE@XZ
??1CUnitStateStun@NWorld@@MAE@XZ
??1CUnitStateUnconscious@NWorld@@MAE@XZ
??1CUnitStateUsingCannon@NWorld@@MAE@XZ
??1CUnitTab@NUI@@MAE@XZ
??1CUnitTerrain@NWorld@@MAE@XZ
??1CUnitToHitCalcer@NRPG@@MAE@XZ
??1CUnitTracker@NGame@@MAE@XZ
??1CUnitView@NUI@@MAE@XZ
??1CUnitsTabBar@NUI@@MAE@XZ
??1CUpdateBuildingStability@NGame@@QAE@XZ
??1CUserGeometry@NGfx@@UAE@XZ
??1CVALUEHandler@NUI@@MAE@XZ
??1CVB@NGfx@@UAE@XZ
??1CVBCombiner@NGScene@@MAE@XZ
??1CVPCritical@NRPG@@EAE@XZ
??1CValue@NGlobal@@QAE@XZ
??1CVec3Convert@NGScene@@MAE@XZ
??1CVersioningBase@@MAE@XZ
??1CVertexCacheOptimizer@NGScene@@QAE@XZ
??1CVideoOptionsUI@NUI@@UAE@XZ
??1CViewBuildingScheme@NGame@@QAE@XZ
??1CVisibleTracker@NGame@@MAE@XZ
??1CVisionCube@NRPG@@MAE@XZ
??1CVisionTracker@NRPG@@UAE@XZ
??1CVisionVoxelRenderer@NAI@@QAE@XZ
??1CVolumeContainer@NCollider@@QAE@XZ
??1CVolumeNode@NAI@@MAE@XZ
??1CVolumeNode@NGScene@@UAE@XZ
??1CVoxelExpl@NWorld@@MAE@XZ
??1CVoxelExplTracker@NWorld@@MAE@XZ
??1CWRAPLEFTHandler@NUI@@MAE@XZ
??1CWRAPRIGHTHandler@NUI@@MAE@XZ
??1CWallObjectInfoClipper@NGScene@@MAE@XZ
??1CWaypoint@NAI@@MAE@XZ
??1CWaypointLoader@NAI@@MAE@XZ
??1CWeaponItem@NRPG@@MAE@XZ
??1CWeaponModeIconBarSet@NUI@@MAE@XZ
??1CWeaponSkillCritical@NRPG@@EAE@XZ
??1CWindow@NUI@@UAE@XZ
??1CWindowDoor@NWorld@@UAE@XZ
??1CWorld@NWorld@@MAE@XZ
??1CWorldSyncSrc@NWorld@@MAE@XZ
??1CZoneGlobalSector@NUI@@MAE@XZ
??1CZoneSector@NUI@@MAE@XZ
??1I2DBuffer@NGfx@@UAE@XZ
??1I2DBufferLock@NGfx@@UAE@XZ
??1I2DEffect@NGfx@@UAE@XZ
??1I2DGameView@NGScene@@UAE@XZ
??1I2DScene@NGScene@@UAE@XZ
??1IAIControl@NAI@@UAE@XZ
??1IAIInventoryItem@NAI@@UAE@XZ
??1IAIIterator@NAI@@UAE@XZ
??1IAIJob@NAI@@UAE@XZ
??1IAIJobManager@NAI@@UAE@XZ
??1IAILogContainer@NAI@@UAE@XZ
??1IAILogRecord@NAI@@UAE@XZ
??1IAIMap@NAI@@UAE@XZ
??1IAIMapTracker@NAI@@UAE@XZ
??1IAIPlayer@NAI@@UAE@XZ
??1IAISignal@NAI@@UAE@XZ
??1IAISignalManager@NAI@@UAE@XZ
??1IAIState@NAI@@UAE@XZ
??1IAIUnit@NAI@@UAE@XZ
??1IAck@NWorld@@UAE@XZ
??1IAmmoItem@NRPG@@UAE@XZ
??1ICacheLightRender@NGScene@@UAE@XZ
??1ICamera@@UAE@XZ
??1IChapterMap@NGame@@UAE@XZ
??1IClipItem@NRPG@@UAE@XZ
??1ICriticalInfo@NRPG@@UAE@XZ
??1ICubeBuffer@NGfx@@UAE@XZ
??1ICursor@NUI@@UAE@XZ
??1IDecalQuery@NGScene@@UAE@XZ
??1IDynamicObject@NWorld@@UAE@XZ
??1IFirstAidItem@NRPG@@UAE@XZ
??1IGScene@NGScene@@UAE@XZ
??1IGame@NRPG@@UAE@XZ
??1IGameView@NGScene@@UAE@XZ
??1IGlobalMap@NGame@@UAE@XZ
??1IGrenadeItem@NRPG@@UAE@XZ
??1IGrenadeItemInfo@NRPG@@UAE@XZ
??1IHZBuffer@NGScene@@UAE@XZ
??1IInterfaceBase@NMainLoop@@UAE@XZ
??1IInterfaceObject@NMainLoop@@UAE@XZ
??1IInventory@NRPG@@UAE@XZ
??1IInventoryInfo@NRPG@@UAE@XZ
??1IInventoryItem@NRPG@@UAE@XZ
??1IItem@NRPG@@UAE@XZ
??1IItem@NWorld@@UAE@XZ
??1IItemContainer@NRPG@@UAE@XZ
??1IItemContainerInfo@NRPG@@UAE@XZ
??1IJoinSplit@NRPG@@UAE@XZ
??1IKeyItem@NRPG@@UAE@XZ
??1ILight@NGScene@@UAE@XZ
??1ILinearBuffer@NGfx@@UAE@XZ
??1IML@NUI@@UAE@XZ
??1IMLHandler@NUI@@UAE@XZ
??1IMLLayout@NUI@@UAE@XZ
??1IMLObject@NUI@@UAE@XZ
??1IMaterial@NGScene@@UAE@XZ
??1IMeleeWeaponItem@NRPG@@UAE@XZ
??1IMine@NWorld@@UAE@XZ
??1IMineDetectorItem@NRPG@@UAE@XZ
??1IMineItem@NRPG@@UAE@XZ
??1IMission@NGame@@UAE@XZ
??1INew2DTexAllocCallback@NGfx@@QAE@XZ
??1IObject@NRPG@@UAE@XZ
??1IObject@NWorld@@UAE@XZ
??1IPart@NGScene@@UAE@XZ
??1IParticles@NGScene@@UAE@XZ
??1IPassageObject@NWorld@@UAE@XZ
??1IPathNetwork@NAI@@UAE@XZ
??1IPathViewer@NWorld@@UAE@XZ
??1IPlayer@NWorld@@UAE@XZ
??1IPlayerTracker@NGame@@UAE@XZ
??1IPostProcess@NGScene@@UAE@XZ
??1IPrecache@NGScene@@UAE@XZ
??1IRecognitionAttribute@NAI@@UAE@XZ
??1IRecognitionClass@NAI@@UAE@XZ
??1IRecognizer@NAI@@UAE@XZ
??1IRenderGame@NRender@@UAE@XZ
??1IRenderSound@NRender@@UAE@XZ
??1IResource@NGScene@@UAE@XZ
??1ISW2DScene@NGScene@@UAE@XZ
??1ISWRects@NGScene@@UAE@XZ
??1IShowUnit@NRender@@UAE@XZ
??1IShowUnitHead@NRender@@UAE@XZ
??1ISomeBuffer@NGfx@@UAE@XZ
??1ISound2D@NSound@@UAE@XZ
??1ISoundScene@NSound@@UAE@XZ
??1IState@NGame@@UAE@XZ
??1ITerrainFunction@NAnimation@@UAE@XZ
??1IToHitCalcer@NRPG@@UAE@XZ
??1IToolItem@NRPG@@UAE@XZ
??1IUnitMission@NRPG@@UAE@XZ
??1IUnitMissionInfo@NRPG@@UAE@XZ
??1IUnitTracker@NGame@@UAE@XZ
??1IVBCombiner@NGScene@@UAE@XZ
??1IVisObj@NWorld@@UAE@XZ
??1IVisible@NWorld@@UAE@XZ
??1IVisionTracker@NRPG@@UAE@XZ
??1IWeaponItem@NRPG@@UAE@XZ
??1IWeaponItemInfo@NRPG@@UAE@XZ
??1IWorld@NWorld@@UAE@XZ
??1S2DRectInfoLock@NGfx@@UAE@XZ
??1SAILaunchRocketActionInfo@CAILaunchRocketAction@NAI@@QAE@XZ
??1SAIShootActionInfo@CAIShootAction@NAI@@QAE@XZ
??1SAIThrowGrenadeActionInfo@CAIThrowGrenadeAction@NAI@@QAE@XZ
??1SAIUnitGroup@NAI@@QAE@XZ
??1SASegment@NAnimation@@QAE@XZ
??1SAckEvent@NUI@@QAE@XZ
??1SAlternativeGridInfo@NAI@@QAE@XZ
??1SAnimationHeader@NAnimation@@QAE@XZ
??1SAttachedGrenade@CWindowDoor@NWorld@@QAE@XZ
??1SBSPEntity@?$CBSPCollider@USColliderUserInfo@NAI@@@NCollider@@QAE@XZ
??1SBSPGeometry@NAI@@QAE@XZ
??1SBSPPoly@NAI@@QAE@XZ
??1SBackPackItem@NRPG@@QAE@XZ
??1SBlock@?$CPool@USRenderFragmentInfo@NGScene@@$0IA@@@QAE@XZ
??1SBlock@?$CPool@USRenderGeometryInfo@NGScene@@$0IA@@@QAE@XZ
??1SBlock@?$CPool@USRenderStaticInfo@NGScene@@$0IA@@@QAE@XZ
??1SBodypart@CFileSkinPoints@NAI@@QAE@XZ
??1SBombSelection@CRenderGame@NRender@@QAE@XZ
??1SBone@NAnimation@@QAE@XZ
??1SBoundMesh@IRenderVisitor@NWorld@@QAE@XZ
??1SBuffersPerFrame@?$CLinearBuffer@VCVB@NGfx@@VCUserGeometry@2@@NGfx@@QAE@XZ
??1SBuildFragment@NBuilding@@QAE@XZ
??1SBuildingInfo@NBuilding@@QAE@XZ
??1SChapterSector@@QAE@XZ
??1SChunk@NGScene@@QAE@XZ
??1SClipHelper@NGScene@@QAE@XZ
??1SClipInfo@NBuilding@@QAE@XZ
??1SClueSlot@@QAE@XZ
??1SCmdPair@CMLLayout@NUI@@QAE@XZ
??1SCombinedKey@NGScene@@QAE@XZ
??1SConsoleLine@@QAE@XZ
??1SConvexHull@NAI@@QAE@XZ
??1SCreateSyncSrc@NRender@@QAE@XZ
??1SCriticalType@NRPG@@QAE@XZ
??1SCriticalsHolder@NRPG@@QAE@XZ
??1SCursorInfo@NUI@@QAE@XZ
??1SData@CObjectInfo@NGScene@@QAE@XZ
??1SDecalTargetPart@NGScene@@QAE@XZ
??1SDeployData@NRPG@@QAE@XZ
??1SDiscretePos@@QAE@XZ
??1SDoorColliderAnalyzer@NAI@@QAE@XZ
??1SDoorTrap@NWorld@@QAE@XZ
??1SDynLockInfo@CPathNetwork@NAI@@QAE@XZ
??1SEdgeTracker@NGScene@@QAE@XZ
??1SEffectInfo@CBaseParticlesGeometry@NGScene@@QAE@XZ
??1SElement@?$CGatheringCache@VCShortPtrAllocator@NCache@@VCFibElement@2@VCUserGeometry@NGfx@@@NCache@@QAE@XZ
??1SElement@?$CGatheringCache@VCShortPtrAllocator@NCache@@VCQuadTreeElement@2@VCTexture@NGfx@@@NCache@@QAE@XZ
??1SElementInfo@CVolumeNode@NAI@@QAE@XZ
??1SEvent@NInput@@QAE@XZ
??1SEvent@NUI@@QAE@XZ
??1SExplObject@CExplVoxelRenderer@NAI@@QAE@XZ
??1SFacesVector@NGScene@@QAE@XZ
??1SFakeCPPInitOrder@NGfx@@QAE@XZ
??1SFindClipResult@NRPG@@QAE@XZ
??1SFlipper@CPathNetwork@NAI@@QAE@XZ
??1SFloorGroup@NBuilding@@QAE@XZ
??1SFloorsSelector@NAI@@QAE@XZ
??1SFont@NGScene@@QAE@XZ
??1SFontInfo@CMLTextObject@NUI@@QAE@XZ
??1SFontInfo@NGScene@@QAE@XZ
??1SFontLayout@SText@NGScene@@QAE@XZ
??1SFragment@SStoreyInfo@NBuilding@@QAE@XZ
??1SFragmentPos@NBuilding@@QAE@XZ
??1SFullGroupInfo@NGScene@@QAE@XZ
??1SFullRoomInfo@NGScene@@QAE@XZ
??1SGfxCacheTransformer@NGScene@@QAE@XZ
??1SGfxOutputTransformer@NGScene@@QAE@XZ
??1SGlobalIlluminationInfo@NGScene@@QAE@XZ
??1SGlobalSector@@QAE@XZ
??1SGrassLayer@@QAE@XZ
??1SGrassLayerInfo@CGrassTracker@NGScene@@QAE@XZ
??1SGridNode@NBuilding@@QAE@XZ
??1SGroupInfo@NTerrain@@QAE@XZ
??1SGroupUpdate@CTerrainRegion@NWorld@@QAE@XZ
??1SHashedHedron@NGeometry@@QAE@XZ
??1SHeadFrame@NLSHead@@QAE@XZ
??1SHilight@CSlot@NUI@@QAE@XZ
??1SHolder@CTerrainTexturesCache@NGScene@@QAE@XZ
??1SHullSet@NAI@@QAE@XZ
??1SIconButton@CIconBarSet@NUI@@QAE@XZ
??1SInfo@CComboBox@NUI@@QAE@XZ
??1SInterrupt@?$CTBSWorld@VCUnitServer@NWorld@@VCPlayer@2@VCCommander@2@@NWorld@@QAE@XZ
??1SInterruptInfo@NWorld@@QAE@XZ
??1SInventoryItem@NUI@@QAE@XZ
??1SItem@CListView@NUI@@QAE@XZ
??1SItem@CSlot@NUI@@QAE@XZ
??1SItem@NWorld@@QAE@XZ
??1SItemInfo@IPlayer@NWorld@@QAE@XZ
??1SItemRenderInfo@NWorld@@QAE@XZ
??1SKillLoaderThread@NGScene@@QAE@XZ
??1SLMLOD@CObjectInfo@NGScene@@QAE@XZ
??1SLRNeighbs@NBuilding@@QAE@XZ
??1SLadder@CNodesLayer@NAI@@QAE@XZ
??1SLadder@NBuilding@@QAE@XZ
??1SLayerGroup@NBuilding@@QAE@XZ
??1SLevelContainers@CVolumeContainer@NCollider@@QAE@XZ
??1SLinkSet@CPolyClipper@@QAE@XZ
??1SLockInfo@CPathNetwork@NAI@@QAE@XZ
??1SLuaParams@@QAE@XZ
??1SMapBuilding@@QAE@XZ
??1SMapElement@@QAE@XZ
??1SMapHole@@QAE@XZ
??1SMapInfo@@QAE@XZ
??1SMapRPGElement@@QAE@XZ
??1SMapUnit@@QAE@XZ
??1SMaterialApply@NBuilding@@QAE@XZ
??1SMergePoints@NAI@@QAE@XZ
??1SModif@CSkillModifier@NRPG@@QAE@XZ
??1SNet@NAI@@QAE@XZ
??1SNetNode@NAI@@QAE@XZ
??1SObject@?$CSyncSrc@UIVisObj@NWorld@@@@QAE@XZ
??1SObjectInfo@NAI@@QAE@XZ
??1SPart@NTerrain@@QAE@XZ
??1SParticleLMRenderTargetInfo@NGScene@@QAE@XZ
??1SPartsGroup@NTerrain@@QAE@XZ
??1SPathAction@CPath@NAI@@QAE@XZ
??1SPerMaterialHolder@CVolumeNode@NGScene@@QAE@XZ
??1SPiece@CGeometryInfo@NAI@@QAE@XZ
??1SPlaceWithAP@NAI@@QAE@XZ
??1SPoint@CPolyClipper@@QAE@XZ
??1SPolygon@CObjectInfoProcessor@NGScene@@QAE@XZ
??1SPolygon@CPolyClipper@@QAE@XZ
??1SPolygon@NGeometry@@QAE@XZ
??1SPolygon@SHashedHedron@NGeometry@@QAE@XZ
??1SPolygonIndices@NGScene@@QAE@XZ
??1SPolyhedron@NGeometry@@QAE@XZ
??1SPosition@NAI@@QAE@XZ
??1SRawMixedMaterial@NBuilding@@QAE@XZ
??1SRefTracker@NGScene@@QAE@XZ
??1SReflowInfo@CMLLayout@NUI@@QAE@XZ
??1SRemoveInternal@NGScene@@QAE@XZ
??1SRenderFragmentInfo@NGScene@@QAE@XZ
??1SRenderGeometryInfo@NGScene@@QAE@XZ
??1SRenderPartSet@NGScene@@QAE@XZ
??1SRenderStaticInfo@NGScene@@QAE@XZ
??1SRenderTargetsInfo@NGfx@@QAE@XZ
??1SResItem@CDumbUnitServer@NWorld@@QAE@XZ
??1SRoomAmbient@NGScene@@QAE@XZ
??1SRoomInfo@NGScene@@QAE@XZ
??1SRoute@NAI@@QAE@XZ
??1SScenarioFlowChartPassage@NScenario@@QAE@XZ
??1SSceneFragmentGroupInfo@CGScene@NGScene@@QAE@XZ
??1SShadowPoly@NGScene@@QAE@XZ
??1SSkeletonState@NAnimation@@QAE@XZ
??1SSnipeAP@NRPG@@QAE@XZ
??1SSolidElement@NBuilding@@QAE@XZ
??1SSourceInfo@NAI@@QAE@XZ
??1SSpot@SStoreyInfo@NBuilding@@QAE@XZ
??1SSrcPosInfo@NGScene@@QAE@XZ
??1SState@NGScene@@QAE@XZ
??1SState@NUI@@QAE@XZ
??1SStaticTrackers@NGScene@@QAE@XZ
??1SStepSound@@QAE@XZ
??1SStoreItem@NRPG@@QAE@XZ
??1SStoredPiece@NAI@@QAE@XZ
??1SStoredSkin@NAI@@QAE@XZ
??1SStoreyInfo@NBuilding@@QAE@XZ
??1SStripe@NRectPacker@@QAE@XZ
??1SStripeBuilder@NRectPacker@@QAE@XZ
??1STerrainGeometry@NTerrain@@QAE@XZ
??1STerrainHole@@QAE@XZ
??1STerrainInfo@@QAE@XZ
??1STerrainSpot@@QAE@XZ
??1STex@?$CLRUBuffersSet@VCCubeTB@NGfx@@VCCubeTexture@2@@NGfx@@QAE@XZ
??1STex@?$CLRUBuffersSet@VCTB@NGfx@@VCTexture@2@@NGfx@@QAE@XZ
??1SText@NGScene@@QAE@XZ
??1STextLine@NUI@@QAE@XZ
??1STexturedPart@NWorld@@QAE@XZ
??1STrackItem@CDebrisController@NWorld@@QAE@XZ
??1STrackerDescr@CVolumeNode@NAI@@QAE@XZ
??1STrailPoint@NRPG@@QAE@XZ
??1STransitionSet@CNodesLayer@NAI@@QAE@XZ
??1STransparentInfo@NGScene@@QAE@XZ
??1SUnitDeployData@NRPG@@QAE@XZ
??1SUnitGroup@@QAE@XZ
??1SUnitHeadAnimator@NLSHead@@QAE@XZ
??1SUnitPosition@NAI@@QAE@XZ
??1SUnitPtrHolder@CWorld@NWorld@@QAE@XZ
??1SVisibleHolder@NRender@@QAE@XZ
??1SWString@NGScene@@QAE@XZ
??1SWindow@CLoader@NUI@@QAE@XZ
??1SWindowInfo@NUI@@QAE@XZ
??1SWriteBuffer@?$CParticlesGeometry@USGeomVecFull@NGfx@@@NGScene@@QAE@XZ
??1SWriteBuffer@?$CParticlesGeometry@USGeomVecT1C1@NGfx@@@NGScene@@QAE@XZ
??1Script@@UAE@XZ
??1_Sentry_base@?$basic_ostream@DU?$char_traits@D@std@@@std@@QAE@XZ
??1sentry@?$basic_ostream@DU?$char_traits@D@std@@@std@@QAE@XZ
??2@YAPAXIPAX@Z
??3@YAXPAX0@Z
??4?$CArray2D@E@@QAEAAV0@ABV0@@Z
??4?$CArray2D@G@@QAEAAV0@ABV0@@Z
??4?$CArray2D@H@@QAEAAV0@ABV0@@Z
??4?$CArray2D@K@@QAEAAV0@ABV0@@Z
??4?$CArray2D@M@@QAEAAV0@ABV0@@Z
??4?$CArray2D@USBumpPixel@NGScene@@@@QAEAAV0@ABV0@@Z
??4?$CArray2D@USPixel8888@NGfx@@@@QAEAAV0@ABV0@@Z
??4?$CArray2D@USStepSound@@@@QAEAAV0@ABV0@@Z
??4?$CArray2D@V?$CObj@V?$CPtrFuncBase@VCGrassPosition@NGScene@@@@@@@@QAEAAV0@ABV0@@Z
??4?$CArray2D@_N@@QAEAAV0@ABV0@@Z
??4?$CDBPtr@VCAnimation@NDb@@@@QAEAAV0@ABV0@@Z
??4?$CDBPtr@VCAnimation@NDb@@@@QAEAAV0@PAVCAnimation@NDb@@@Z
??4?$CDBPtr@VCChapterMap@NDb@@@@QAEAAV0@PAVCChapterMap@NDb@@@Z
??4?$CDBPtr@VCComplexHead@NDb@@@@QAEAAV0@ABV0@@Z
??4?$CDBPtr@VCComplexHead@NDb@@@@QAEAAV0@PAVCComplexHead@NDb@@@Z
??4?$CDBPtr@VCDBAckInfo@NDb@@@@QAEAAV0@ABV0@@Z
??4?$CDBPtr@VCDBDialogSeq@NDb@@@@QAEAAV0@ABV0@@Z
??4?$CDBPtr@VCDBDifficulty@NDb@@@@QAEAAV0@ABV0@@Z
??4?$CDBPtr@VCDBDifficulty@NDb@@@@QAEAAV0@PAVCDBDifficulty@NDb@@@Z
??4?$CDBPtr@VCDBMinesConstants@NDb@@@@QAEAAV0@PAVCDBMinesConstants@NDb@@@Z
??4?$CDBPtr@VCGlobalMap@NDb@@@@QAEAAV0@PAVCGlobalMap@NDb@@@Z
??4?$CDBPtr@VCGrass@NDb@@@@QAEAAV0@ABV0@@Z
??4?$CDBPtr@VCGrass@NDb@@@@QAEAAV0@PAVCGrass@NDb@@@Z
??4?$CDBPtr@VCMaterial@NDb@@@@QAEAAV0@ABV0@@Z
??4?$CDBPtr@VCMaterial@NDb@@@@QAEAAV0@PAVCMaterial@NDb@@@Z
??4?$CDBPtr@VCMusic@NDb@@@@QAEAAV0@ABV0@@Z
??4?$CDBPtr@VCMusic@NDb@@@@QAEAAV0@PAVCMusic@NDb@@@Z
??4?$CDBPtr@VCNationality@NDb@@@@QAEAAV0@PAVCNationality@NDb@@@Z
??4?$CDBPtr@VCPanzerklein@NDb@@@@QAEAAV0@PAVCPanzerklein@NDb@@@Z
??4?$CDBPtr@VCRPGAmmo@NDb@@@@QAEAAV0@ABV0@@Z
??4?$CDBPtr@VCRPGArmor@NDb@@@@QAEAAV0@ABV0@@Z
??4?$CDBPtr@VCRPGArmor@NDb@@@@QAEAAV0@PAVCRPGArmor@NDb@@@Z
??4?$CDBPtr@VCRPGClass@NDb@@@@QAEAAV0@PAVCRPGClass@NDb@@@Z
??4?$CDBPtr@VCRPGCritical@NDb@@@@QAEAAV0@ABV0@@Z
??4?$CDBPtr@VCRPGGrenade@NDb@@@@QAEAAV0@PAVCRPGGrenade@NDb@@@Z
??4?$CDBPtr@VCRPGItem@NDb@@@@QAEAAV0@PAVCRPGItem@NDb@@@Z
??4?$CDBPtr@VCRPGPers@NDb@@@@QAEAAV0@ABV0@@Z
??4?$CDBPtr@VCRPGPers@NDb@@@@QAEAAV0@PAVCRPGPers@NDb@@@Z
??4?$CDBPtr@VCRPGStoreItem@NDb@@@@QAEAAV0@PAVCRPGStoreItem@NDb@@@Z
??4?$CDBPtr@VCScript@NDb@@@@QAEAAV0@ABV0@@Z
??4?$CDBPtr@VCSequence@NDb@@@@QAEAAV0@ABV0@@Z
??4?$CDBPtr@VCSequence@NDb@@@@QAEAAV0@PAVCSequence@NDb@@@Z
??4?$CDBPtr@VCSide@NDb@@@@QAEAAV0@ABV0@@Z
??4?$CDBPtr@VCSide@NDb@@@@QAEAAV0@PAVCSide@NDb@@@Z
??4?$CDBPtr@VCSkeleton@NDb@@@@QAEAAV0@ABV0@@Z
??4?$CDBPtr@VCSkeleton@NDb@@@@QAEAAV0@PAVCSkeleton@NDb@@@Z
??4?$CDBPtr@VCSound@NDb@@@@QAEAAV0@ABV0@@Z
??4?$CDBPtr@VCSound@NDb@@@@QAEAAV0@PAVCSound@NDb@@@Z
??4?$CDBPtr@VCTemplVariant@NDb@@@@QAEAAV0@PAVCTemplVariant@NDb@@@Z
??4?$CDBPtr@VCTexture@NDb@@@@QAEAAV0@ABV0@@Z
??4?$CDBPtr@VCTexture@NDb@@@@QAEAAV0@PAVCTexture@NDb@@@Z
??4?$CDBPtr@VCUITexture@NDb@@@@QAEAAV0@ABV0@@Z
??4?$CDBPtr@VCUITexture@NDb@@@@QAEAAV0@PAVCUITexture@NDb@@@Z
??4?$CDBPtr@VCWaypointName@NDb@@@@QAEAAV0@PAVCWaypointName@NDb@@@Z
??4?$CDGPtr@V?$CFuncBase@K@@V?$CObj@V?$CFuncBase@K@@@@@@QAEAAV0@PAV?$CFuncBase@K@@@Z
??4?$CDGPtr@V?$CFuncBase@USFBTransform@@@@V?$CObj@V?$CFuncBase@USFBTransform@@@@@@@@QAEAAV0@PAV?$CFuncBase@USFBTransform@@@@@Z
??4?$CDGPtr@V?$CFuncBase@USSkeletonState@NAnimation@@@@V?$CObj@V?$CFuncBase@USSkeletonState@NAnimation@@@@@@@@QAEAAV0@PAV?$CFuncBase@USSkeletonState@NAnimation@@@@@Z
??4?$CDGPtr@V?$CFuncBase@USTerrainInfo@@@@V?$CObj@V?$CFuncBase@USTerrainInfo@@@@@@@@QAEAAV0@PAV?$CFuncBase@USTerrainInfo@@@@@Z
??4?$CDGPtr@V?$CFuncBase@USText@NGScene@@@@V?$CObj@V?$CFuncBase@USText@NGScene@@@@@@@@QAEAAV0@PAV?$CFuncBase@USText@NGScene@@@@@Z
??4?$CDGPtr@V?$CFuncBase@V?$CTPoint@H@@@@V?$CObj@V?$CFuncBase@V?$CTPoint@H@@@@@@@@QAEAAV0@PAV?$CFuncBase@V?$CTPoint@H@@@@@Z
??4?$CDGPtr@V?$CFuncBase@V?$CTRect@H@@@@V?$CObj@V?$CFuncBase@V?$CTRect@H@@@@@@@@QAEAAV0@PAV?$CFuncBase@V?$CTRect@H@@@@@Z
??4?$CDGPtr@V?$CFuncBase@V?$basic_string@GU?$char_traits@G@std@@V?$allocator@G@_STL@@@_STL@@@@V?$CObj@V?$CFuncBase@V?$basic_string@GU?$char_traits@G@std@@V?$allocator@G@_STL@@@_STL@@@@@@@@QAEAAV0@PAV?$CFuncBase@V?$basic_string@GU?$char_traits@G@std@@V?$allocator@G@_STL@@@_STL@@@@@Z
??4?$CDGPtr@V?$CFuncBase@V?$vector@USBonePose@NAnimation@@V?$allocator@USBonePose@NAnimation@@@_STL@@@_STL@@@@V?$CObj@V?$CFuncBase@V?$vector@USBonePose@NAnimation@@V?$allocator@USBonePose@NAnimation@@@_STL@@@_STL@@@@@@@@QAEAAV0@PAV?$CFuncBase@V?$vector@USBonePose@NAnimation@@V?$allocator@USBonePose@NAnimation@@@_STL@@@_STL@@@@@Z
??4?$CDGPtr@V?$CFuncBase@V?$vector@USTriangleList@NGfx@@V?$allocator@USTriangleList@NGfx@@@_STL@@@_STL@@@@V?$CObj@V?$CFuncBase@V?$vector@USTriangleList@NGfx@@V?$allocator@USTriangleList@NGfx@@@_STL@@@_STL@@@@@@@@QAEAAV0@PAV?$CFuncBase@V?$vector@USTriangleList@NGfx@@V?$allocator@USTriangleList@NGfx@@@_STL@@@_STL@@@@@Z
??4?$CDGPtr@V?$CFuncBase@VCExplosionInfo@NGScene@@@@V?$CObj@V?$CFuncBase@VCExplosionInfo@NGScene@@@@@@@@QAEAAV0@PAV?$CFuncBase@VCExplosionInfo@NGScene@@@@@Z
??4?$CDGPtr@V?$CFuncBase@VCRectLayout@@@@V?$CObj@V?$CFuncBase@VCRectLayout@@@@@@@@QAEAAV0@PAV?$CFuncBase@VCRectLayout@@@@@Z
??4?$CDGPtr@V?$CFuncBase@VCVec2@@@@V?$CObj@V?$CFuncBase@VCVec2@@@@@@@@QAEAAV0@PAV?$CFuncBase@VCVec2@@@@@Z
??4?$CDGPtr@V?$CFuncBase@VCVec3@@@@V?$CObj@V?$CFuncBase@VCVec3@@@@@@@@QAEAAV0@ABV0@@Z
??4?$CDGPtr@V?$CFuncBase@VCVec3@@@@V?$CObj@V?$CFuncBase@VCVec3@@@@@@@@QAEAAV0@PAV?$CFuncBase@VCVec3@@@@@Z
??4?$CDGPtr@V?$CFuncBase@_N@@V?$CObj@V?$CFuncBase@_N@@@@@@QAEAAV0@ABV0@@Z
??4?$CDGPtr@V?$CPtrFuncBase@VCAnimLightInfo@NGScene@@@@V?$CObj@V?$CPtrFuncBase@VCAnimLightInfo@NGScene@@@@@@@@QAEAAV0@PAV?$CPtrFuncBase@VCAnimLightInfo@NGScene@@@@@Z
??4?$CDGPtr@V?$CPtrFuncBase@VCBuildInfo@NBuilding@@@@V?$CObj@V?$CPtrFuncBase@VCBuildInfo@NBuilding@@@@@@@@QAEAAV0@PAV?$CPtrFuncBase@VCBuildInfo@NBuilding@@@@@Z
??4?$CDGPtr@V?$CPtrFuncBase@VCChapterInfo@@@@V?$CObj@V?$CPtrFuncBase@VCChapterInfo@@@@@@@@QAEAAV0@PAV?$CPtrFuncBase@VCChapterInfo@@@@@Z
??4?$CDGPtr@V?$CPtrFuncBase@VCCubeTexture@NGfx@@@@V?$CObj@V?$CPtrFuncBase@VCCubeTexture@NGfx@@@@@@@@QAEAAV0@PAV?$CPtrFuncBase@VCCubeTexture@NGfx@@@@@Z
??4?$CDGPtr@V?$CPtrFuncBase@VCFileAnimationInfo@NAnimation@@@@V?$CObj@V?$CPtrFuncBase@VCFileAnimationInfo@NAnimation@@@@@@@@QAEAAV0@PAV?$CPtrFuncBase@VCFileAnimationInfo@NAnimation@@@@@Z
??4?$CDGPtr@V?$CPtrFuncBase@VCFileBindInfo@NGScene@@@@V?$CObj@V?$CPtrFuncBase@VCFileBindInfo@NGScene@@@@@@@@QAEAAV0@PAV?$CPtrFuncBase@VCFileBindInfo@NGScene@@@@@Z
??4?$CDGPtr@V?$CPtrFuncBase@VCFileSkeletonInfo@NAnimation@@@@V?$CObj@V?$CPtrFuncBase@VCFileSkeletonInfo@NAnimation@@@@@@@@QAEAAV0@ABV0@@Z
??4?$CDGPtr@V?$CPtrFuncBase@VCFileSkeletonInfo@NAnimation@@@@V?$CObj@V?$CPtrFuncBase@VCFileSkeletonInfo@NAnimation@@@@@@@@QAEAAV0@PAV?$CPtrFuncBase@VCFileSkeletonInfo@NAnimation@@@@@Z
??4?$CDGPtr@V?$CPtrFuncBase@VCFileSkinPoints@NAI@@@@V?$CObj@V?$CPtrFuncBase@VCFileSkinPoints@NAI@@@@@@@@QAEAAV0@PAV?$CPtrFuncBase@VCFileSkinPoints@NAI@@@@@Z
??4?$CDGPtr@V?$CPtrFuncBase@VCGeometry@NGfx@@@@V?$CObj@V?$CPtrFuncBase@VCGeometry@NGfx@@@@@@@@QAEAAV0@PAV?$CPtrFuncBase@VCGeometry@NGfx@@@@@Z
??4?$CDGPtr@V?$CPtrFuncBase@VCGeometryInfo@NAI@@@@V?$CObj@V?$CPtrFuncBase@VCGeometryInfo@NAI@@@@@@@@QAEAAV0@PAV?$CPtrFuncBase@VCGeometryInfo@NAI@@@@@Z
??4?$CDGPtr@V?$CPtrFuncBase@VCGlobalInfo@@@@V?$CObj@V?$CPtrFuncBase@VCGlobalInfo@@@@@@@@QAEAAV0@PAV?$CPtrFuncBase@VCGlobalInfo@@@@@Z
??4?$CDGPtr@V?$CPtrFuncBase@VCGrassPosition@NGScene@@@@V?$CObj@V?$CPtrFuncBase@VCGrassPosition@NGScene@@@@@@@@QAEAAV0@PAV?$CPtrFuncBase@VCGrassPosition@NGScene@@@@@Z
??4?$CDGPtr@V?$CPtrFuncBase@VCHeadMeshInfo@NLSHead@@@@V?$CObj@V?$CPtrFuncBase@VCHeadMeshInfo@NLSHead@@@@@@@@QAEAAV0@PAV?$CPtrFuncBase@VCHeadMeshInfo@NLSHead@@@@@Z
??4?$CDGPtr@V?$CPtrFuncBase@VCHeadSequenceInfo@NLSHead@@@@V?$CObj@V?$CPtrFuncBase@VCHeadSequenceInfo@NLSHead@@@@@@@@QAEAAV0@PAV?$CPtrFuncBase@VCHeadSequenceInfo@NLSHead@@@@@Z
??4?$CDGPtr@V?$CPtrFuncBase@VCObjectInfoPieces@NGScene@@@@V?$CObj@V?$CPtrFuncBase@VCObjectInfoPieces@NGScene@@@@@@@@QAEAAV0@PAV?$CPtrFuncBase@VCObjectInfoPieces@NGScene@@@@@Z
??4?$CDGPtr@V?$CPtrFuncBase@VCParticlesInfo@NGScene@@@@V?$CObj@V?$CPtrFuncBase@VCParticlesInfo@NGScene@@@@@@@@QAEAAV0@PAV?$CPtrFuncBase@VCParticlesInfo@NGScene@@@@@Z
??4?$CDGPtr@V?$CPtrFuncBase@VCParticlesInfo@NGScene@@@@V?$CPtr@V?$CPtrFuncBase@VCParticlesInfo@NGScene@@@@@@@@QAEAAV0@PAV?$CPtrFuncBase@VCParticlesInfo@NGScene@@@@@Z
??4?$CDGPtr@V?$CPtrFuncBase@VCSample3D@NFMSound@@@@V?$CObj@V?$CPtrFuncBase@VCSample3D@NFMSound@@@@@@@@QAEAAV0@PAV?$CPtrFuncBase@VCSample3D@NFMSound@@@@@Z
??4?$CDGPtr@V?$CPtrFuncBase@VCTerrainPart@@@@V?$CObj@V?$CPtrFuncBase@VCTerrainPart@@@@@@@@QAEAAV0@PAV?$CPtrFuncBase@VCTerrainPart@@@@@Z
??4?$CDGPtr@V?$CPtrFuncBase@VCTexture@NGfx@@@@V?$CObj@V?$CPtrFuncBase@VCTexture@NGfx@@@@@@@@QAEAAV0@PAV?$CPtrFuncBase@VCTexture@NGfx@@@@@Z
??4?$CDGPtr@VCBuildingGrid@NBuilding@@V?$CObj@VCBuildingGrid@NBuilding@@@@@@QAEAAV0@PAVCBuildingGrid@NBuilding@@@Z
??4?$CDGPtr@VCCTPoint@NGScene@@V?$CObj@VCCTPoint@NGScene@@@@@@QAEAAV0@PAVCCTPoint@NGScene@@@Z
??4?$CDGPtr@VCCTime@@V?$CObj@VCCTime@@@@@@QAEAAV0@PAVCCTime@@@Z
??4?$CDGPtr@VCCVec2@NGScene@@V?$CObj@VCCVec2@NGScene@@@@@@QAEAAV0@PAVCCVec2@NGScene@@@Z
??4?$CDGPtr@VCFakeParticleLMTexture@NGScene@@V?$CObj@VCFakeParticleLMTexture@NGScene@@@@@@QAEAAV0@PAVCFakeParticleLMTexture@NGScene@@@Z
??4?$CDGPtr@VCHeightMapBlock@NWorld@@V?$CObj@VCHeightMapBlock@NWorld@@@@@@QAEAAV0@PAVCHeightMapBlock@NWorld@@@Z
??4?$CDGPtr@VCScreenshotTexture@NGScene@@V?$CObj@VCScreenshotTexture@NGScene@@@@@@QAEAAV0@PAVCScreenshotTexture@NGScene@@@Z
??4?$CDGPtr@VCSkeletonAnimator@NAnimation@@V?$CObj@VCSkeletonAnimator@NAnimation@@@@@@QAEAAV0@PAVCSkeletonAnimator@NAnimation@@@Z
??4?$CDGPtr@VCVBCombiner@NGScene@@V?$CObj@VCVBCombiner@NGScene@@@@@@QAEAAV0@PAVCVBCombiner@NGScene@@@Z
??4?$CDGPtr@VCVersioningBase@@V?$CObj@VCVersioningBase@@@@@@QAEAAV0@ABV0@@Z
??4?$CDGPtr@VCVersioningBase@@V?$CObj@VCVersioningBase@@@@@@QAEAAV0@PAVCVersioningBase@@@Z
??4?$CDGPtr@VIVBCombiner@NGScene@@V?$CObj@VIVBCombiner@NGScene@@@@@@QAEAAV0@PAVIVBCombiner@NGScene@@@Z
??4?$CHoldedPtrFuncBase@VCAnimLightInfo@NGScene@@@@QAEAAV0@ABV0@@Z
??4?$CHoldedPtrFuncBase@VCBuildInfo@NBuilding@@@@QAEAAV0@ABV0@@Z
??4?$CHoldedPtrFuncBase@VCChapterInfo@@@@QAEAAV0@ABV0@@Z
??4?$CHoldedPtrFuncBase@VCCubeTexture@NGfx@@@@QAEAAV0@ABV0@@Z
??4?$CHoldedPtrFuncBase@VCFileAnimationInfo@NAnimation@@@@QAEAAV0@ABV0@@Z
??4?$CHoldedPtrFuncBase@VCFileBindInfo@NGScene@@@@QAEAAV0@ABV0@@Z
??4?$CHoldedPtrFuncBase@VCFileSkeletonInfo@NAnimation@@@@QAEAAV0@ABV0@@Z
??4?$CHoldedPtrFuncBase@VCFileSkinPoints@NAI@@@@QAEAAV0@ABV0@@Z
??4?$CHoldedPtrFuncBase@VCFontFormatInfo@@@@QAEAAV0@ABV0@@Z
??4?$CHoldedPtrFuncBase@VCGeometryInfo@NAI@@@@QAEAAV0@ABV0@@Z
??4?$CHoldedPtrFuncBase@VCGlobalInfo@@@@QAEAAV0@ABV0@@Z
??4?$CHoldedPtrFuncBase@VCHeadMeshInfo@NLSHead@@@@QAEAAV0@ABV0@@Z
??4?$CHoldedPtrFuncBase@VCHeadSequenceInfo@NLSHead@@@@QAEAAV0@ABV0@@Z
??4?$CHoldedPtrFuncBase@VCMETerrainInfo@@@@QAEAAV0@ABV0@@Z
??4?$CHoldedPtrFuncBase@VCObjectInfo@NGScene@@@@QAEAAV0@ABV0@@Z
??4?$CHoldedPtrFuncBase@VCObjectInfoPieces@NGScene@@@@QAEAAV0@ABV0@@Z
??4?$CHoldedPtrFuncBase@VCParticlesInfo@NGScene@@@@QAEAAV0@ABV0@@Z
??4?$CHoldedPtrFuncBase@VCSWTextureData@NGScene@@@@QAEAAV0@ABV0@@Z
??4?$CHoldedPtrFuncBase@VCSample2D@NFMSound@@@@QAEAAV0@ABV0@@Z
??4?$CHoldedPtrFuncBase@VCSample3D@NFMSound@@@@QAEAAV0@ABV0@@Z
??4?$CHoldedPtrFuncBase@VCTexture@NGfx@@@@QAEAAV0@ABV0@@Z
??4?$CHoldedPtrFuncBase@VCTwoBSPTrees@NAI@@@@QAEAAV0@ABV0@@Z
??4?$CHoldedPtrFuncBase@VCUnitAIInfo@NAI@@@@QAEAAV0@ABV0@@Z
??4?$CHoldedPtrFuncBase@VCWaypoint@NAI@@@@QAEAAV0@ABV0@@Z
??4?$CLSPtr@UIAnimator@LifeStudioHeadAPI@@@NLSHead@@QAEAAV01@PAUIAnimator@LifeStudioHeadAPI@@@Z
??4?$CLSPtr@UIMMTree@LifeStudioHeadAPI@@@NLSHead@@QAEAAV01@PAUIMMTree@LifeStudioHeadAPI@@@Z
??4?$CLSPtr@UISequencer@LifeStudioHeadAPI@@@NLSHead@@QAEAAV01@PAUISequencer@LifeStudioHeadAPI@@@Z
??4?$CLazyResourceLoader@HVCAnimLightInfo@NGScene@@@NGScene@@QAEAAV01@ABV01@@Z
??4?$CLazyResourceLoader@HVCParticlesInfo@NGScene@@@NGScene@@QAEAAV01@ABV01@@Z
??4?$CLazyResourceLoader@HVCSample3D@NFMSound@@@NGScene@@QAEAAV01@ABV01@@Z
??4?$CLazyResourceLoader@USPartKey@NGScene@@VCObjectInfo@2@@NGScene@@QAEAAV01@ABV01@@Z
??4?$CLazyResourceLoader@USPartKey@NGScene@@VCObjectInfoPieces@2@@NGScene@@QAEAAV01@ABV01@@Z
??4?$CMObj@VCCubeTexture@NGfx@@@@QAEAAV0@PAVCCubeTexture@NGfx@@@Z
??4?$CMObj@VCMine@NWorld@@@@QAEAAV0@PAVCMine@NWorld@@@Z
??4?$CMObj@VCMouseCaptureHandler@NUI@@@@QAEAAV0@PAVCMouseCaptureHandler@NUI@@@Z
??4?$CMObj@VCObjectBase@@@@QAEAAV0@ABV0@@Z
??4?$CMObj@VCTexture@NGfx@@@@QAEAAV0@ABV0@@Z
??4?$CMObj@VCTexture@NGfx@@@@QAEAAV0@PAVCTexture@NGfx@@@Z
??4?$CMObj@VCUnitServer@NWorld@@@@QAEAAV0@ABV0@@Z
??4?$CMObj@VCUserGeometry@NGfx@@@@QAEAAV0@ABV0@@Z
??4?$CMObj@VCUserGeometry@NGfx@@@@QAEAAV0@PAVCUserGeometry@NGfx@@@Z
??4?$CRing@USEdge@CPolyClipper@@@@QAEAAV0@ABV0@@Z
??4?$CScenarioFlowChartItemsList@VCScenarioClue@NScenario@@@NScenario@@QAEXAAV01@@Z
??4?$CScenarioFlowChartItemsList@VCScenarioZone@NScenario@@@NScenario@@QAEXAAV01@@Z
??4?$SMoveInfo@USPathPlace@NAI@@G@NAI@@QAEAAU01@ABU01@@Z
??4?$com_ptr@UIDirect3D9@@@NWin32Helper@@QAEAAV01@PAUIDirect3D9@@@Z
??4?$com_ptr@UIDirect3DDevice9@@@NWin32Helper@@QAEAAV01@PAUIDirect3DDevice9@@@Z
??4?$com_ptr@UIDirect3DPixelShader9@@@NWin32Helper@@QAEAAV01@PAUIDirect3DPixelShader9@@@Z
??4?$com_ptr@UIDirect3DSurface9@@@NWin32Helper@@QAEAAV01@ABV01@@Z
??4?$com_ptr@UIDirect3DSurface9@@@NWin32Helper@@QAEAAV01@PAUIDirect3DSurface9@@@Z
??4?$com_ptr@UIDirect3DVertexBuffer9@@@NWin32Helper@@QAEAAV01@PAUIDirect3DVertexBuffer9@@@Z
??4?$com_ptr@UIDirect3DVertexDeclaration9@@@NWin32Helper@@QAEAAV01@PAUIDirect3DVertexDeclaration9@@@Z
??4?$com_ptr@UIDirect3DVertexShader9@@@NWin32Helper@@QAEAAV01@PAUIDirect3DVertexShader9@@@Z
??4?$pair@V?$CPtr@VCWindow@NUI@@@@USWindow@CLoader@NUI@@@_STL@@QAEAAU01@ABU01@@Z
??4CAIGeometryConverter@NGScene@@QAEAAV01@ABV01@@Z
??4CAttackPortion@NRPG@@QAEAAV01@ABV01@@Z
??4CEdgesInfo@NAI@@QAEAAV01@ABV01@@Z
??4CFileTexture@NGScene@@QAEAAV01@ABV01@@Z
??4CHeightMapBlockInfo@NAI@@QAEAAV01@ABV01@@Z
??4CJunction@NBuilding@@QAEXABV01@@Z
??4CJunctionID@NBuilding@@QAEHH@Z
??4CMETerrainInfo@@QAEAAV0@ABV0@@Z
??4CObjectBase@@QAEAAV0@ABV0@@Z
??4CRectLayout@@QAEAAV0@ABV0@@Z
??4CRenderContext@NGfx@@QAEAAV01@ABV01@@Z
??4CRod@NBuilding@@QAEXABV01@@Z
??4CSWTexture@NGScene@@QAEAAV01@ABV01@@Z
??4CScenarioFlowChartState@NScenario@@QAEXAAV01@@Z
??4CSolidObjectInfoClipper@NGScene@@QAEAAV01@ABV01@@Z
??4CValue@NGlobal@@QAEAAU01@ABU01@@Z
??4CVec4@@QAEAAV0@ABVCVec3@@@Z
??4CWallObjectInfoClipper@NGScene@@QAEAAV01@ABV01@@Z
??4SAIUnitGroup@NAI@@QAEAAU01@ABU01@@Z
??4SASegment@NAnimation@@QAEAAU01@ABU01@@Z
??4SAckEvent@NUI@@QAEAAU01@ABU01@@Z
??4SAlternativeGridInfo@NAI@@QAEAAU01@ABU01@@Z
??4SBSPEntity@?$CBSPCollider@USColliderUserInfo@NAI@@@NCollider@@QAEAAU012@ABU012@@Z
??4SBSPPoly@NAI@@QAEAAU01@ABU01@@Z
??4SBackPackItem@NRPG@@QAEAAU01@ABU01@@Z
??4SBone@NAnimation@@QAEAAU01@ABU01@@Z
??4SBoundMesh@IRenderVisitor@NWorld@@QAEAAU012@ABU012@@Z
??4SBuildFragment@NBuilding@@QAEAAU01@ABU01@@Z
??4SChapterSector@@QAEAAU0@ABU0@@Z
??4SClipInfo@NBuilding@@QAEAAU01@ABU01@@Z
??4SClueSlot@@QAEAAU0@ABU0@@Z
??4SCriticalType@NRPG@@QAEAAU01@ABU01@@Z
??4SCursorInfo@NUI@@QAEAAU01@ABU01@@Z
??4SData@CObjectInfo@NGScene@@QAEAAU012@ABU012@@Z
??4SDiscretePos@@QAEAAU0@ABU0@@Z
??4SDoorColliderAnalyzer@NAI@@QAEAAU01@ABU01@@Z
??4SEffectInfo@CBaseParticlesGeometry@NGScene@@QAEAAU012@ABU012@@Z
??4SElement@?$CGatheringCache@VCShortPtrAllocator@NCache@@VCFibElement@2@VCUserGeometry@NGfx@@@NCache@@QAEAAU012@ABU012@@Z
??4SElement@?$CGatheringCache@VCShortPtrAllocator@NCache@@VCQuadTreeElement@2@VCTexture@NGfx@@@NCache@@QAEAAU012@ABU012@@Z
??4SElementInfo@CVolumeNode@NAI@@QAEAAU012@ABU012@@Z
??4SExplObject@CExplVoxelRenderer@NAI@@QAEAAU012@ABU012@@Z
??4SFacesVector@NGScene@@QAEAAU01@ABU01@@Z
??4SFlipper@CPathNetwork@NAI@@QAEAAU012@ABU012@@Z
??4SFont@NGScene@@QAEAAU01@ABU01@@Z
??4SFontLayout@SText@NGScene@@QAEAAU012@ABU012@@Z
??4SFragment@SStoreyInfo@NBuilding@@QAEAAU012@ABU012@@Z
??4SFragmentPos@NBuilding@@QAEAAU01@ABU01@@Z
??4SFullGroupInfo@NGScene@@QAEAAU01@ABU01@@Z
??4SGlobalIlluminationInfo@NGScene@@QAEAAU01@ABU01@@Z
??4SGrassLayer@@QAEAAU0@ABU0@@Z
??4SGrassLayerInfo@CGrassTracker@NGScene@@QAEAAU012@ABU012@@Z
??4SGridNode@NBuilding@@QAEAAU01@ABU01@@Z
??4SGroupInfo@NTerrain@@QAEAAU01@ABU01@@Z
??4SHilight@CSlot@NUI@@QAEAAU012@ABU012@@Z
??4SHolder@CTerrainTexturesCache@NGScene@@QAEAAU012@ABU012@@Z
??4SIconButton@CIconBarSet@NUI@@QAEAAU012@ABU012@@Z
??4SInfo@CComboBox@NUI@@QAEAAU012@ABU012@@Z
??4SItem@CListView@NUI@@QAEAAU012@ABU012@@Z
??4SItem@CSlot@NUI@@QAEAAU012@ABU012@@Z
??4SItem@NWorld@@QAEAAU01@ABU01@@Z
??4SLMLOD@CObjectInfo@NGScene@@QAEAAU012@ABU012@@Z
??4SLRNeighbs@NBuilding@@QAEAAU01@ABU01@@Z
??4SLadder@CNodesLayer@NAI@@QAEAAU012@ABU012@@Z
??4SLadder@NBuilding@@QAEAAU01@ABU01@@Z
??4SLevelContainers@CVolumeContainer@NCollider@@QAEAAU012@ABU012@@Z
??4SLink@CNodesLayer@NAI@@QAEAAU012@ABU012@@Z
??4SLinkSet@CPolyClipper@@QAEAAU01@ABU01@@Z
??4SLockInfo@CPathNetwork@NAI@@QAEAAU012@ABU012@@Z
??4SMapHole@@QAEAAU0@ABU0@@Z
??4SMaterialApply@NBuilding@@QAEAAU01@ABU01@@Z
??4SMove@NAI@@QAEAAU01@ABU01@@Z
??4SNetNode@NAI@@QAEAAU01@ABU01@@Z
??4SObject@?$CSyncSrc@UIVisObj@NWorld@@@@QAEAAU01@ABU01@@Z
??4SPart@NTerrain@@QAEAAU01@ABU01@@Z
??4SParticleLMRenderTargetInfo@NGScene@@QAEAAU01@ABU01@@Z
??4SPathAction@CPath@NAI@@QAEAAU012@ABU012@@Z
??4SPathPlace@NAI@@QAEAAU01@ABU01@@Z
??4SPlaceWithAP@NAI@@QAEAAU01@ABU01@@Z
??4SPlaceWithCost@CAIPositionIterator@NAI@@QAEAAU012@ABU012@@Z
??4SPolygon@CPolyClipper@@QAEAAU01@ABU01@@Z
??4SPolygon@NGeometry@@QAEAAU01@ABU01@@Z
??4SPolygon@SHashedHedron@NGeometry@@QAEAAU012@ABU012@@Z
??4SPolygonIndices@NGScene@@QAEAAU01@ABU01@@Z
??4SPosition@NAI@@QAEAAU01@ABU01@@Z
??4SRenderTargetsInfo@NGfx@@QAEAAU01@ABU01@@Z
??4SScenarioFlowChartPassage@NScenario@@QAEXAAU01@@Z
??4SSkeletonState@NAnimation@@QAEAAU01@ABU01@@Z
??4SSolidElement@NBuilding@@QAEAAU01@ABU01@@Z
??4SSpot@SStoreyInfo@NBuilding@@QAEAAU012@ABU012@@Z
??4SState@NGScene@@QAEAAU01@ABU01@@Z
??4SState@NUI@@QAEAAU01@ABU01@@Z
??4SStepSound@@QAEAAU0@ABU0@@Z
??4SStripe@NRectPacker@@QAEAAU01@ABU01@@Z
??4STerrainHole@@QAEAAU0@ABU0@@Z
??4STerrainInfo@@QAEAAU0@ABU0@@Z
??4STerrainSpot@@QAEAAU0@ABU0@@Z
??4STexturedPart@NWorld@@QAEAAU01@ABU01@@Z
??4STrailPoint@NRPG@@QAEAAU01@ABU01@@Z
??4STransitionSet@CNodesLayer@NAI@@QAEAAU012@ABU012@@Z
??4STransparentInfo@NGScene@@QAEAAU01@ABU01@@Z
??4SUnitDeployData@NRPG@@QAEAAU01@ABU01@@Z
??4SUnitHeadAnimator@NLSHead@@QAEAAU01@ABU01@@Z
??4SUnitPosition@NAI@@QAEAAU01@ABU01@@Z
??4SUnitPtrHolder@CWorld@NWorld@@QAEAAU012@ABU012@@Z
??4SWindow@CLoader@NUI@@QAEAAU012@ABU012@@Z
??4SWindowInfo@NUI@@QAEAAU01@ABU01@@Z
??6CLogStream@@QAEAAV0@ABV?$basic_string@DU?$char_traits@D@std@@V?$allocator@D@_STL@@@_STL@@@Z
??8?$CMObj@VCUnitServer@NWorld@@@@QBE_NPBVCUnitServer@NWorld@@@Z
??8?$CMObj@VCWindow@NUI@@@@QBE_NABV0@@Z
??8?$CMObj@VCWindow@NUI@@@@QBE_NPBVCWindow@NUI@@@Z
??8?$CScenarioFlowChartItemsList@VCScenarioZone@NScenario@@@NScenario@@QAE_NAAV01@@Z
??8?$CTPoint@H@@QBE_NABV0@@Z
??8?$SRingIterator@USEdge@CPolyClipper@@U?$SRingNode@USEdge@CPolyClipper@@@@@@QBE_NABU0@@Z
??8@YI_NABUSPlane@@0@Z
??8CIVec3@NBuilding@@QBE_NABU01@@Z
??8CScenarioFlowChartState@NScenario@@QAE_NAAV01@@Z
??8CVec2@@QBE_NABV0@@Z
??8CVec3@@QBE_NABV0@@Z
??8CVec4@@QBE_NABV0@@Z
??8NAI@@YI_NABUSBound@@0@Z
??8NBuilding@@YI_NABUSProjectedSpot@0@0@Z
??8NGScene@@YI_NABUSClipShare@0@0@Z
??8NGScene@@YI_NABUSEdge@0@0@Z
??8NGScene@@YI_NABUSEdgeInfo@0@0@Z
??8NGScene@@YI_NABUSLoadVertex@0@0@Z
??8NGScene@@YI_NABUSTransparentMaterialInfo@0@0@Z
??8SCompoundPosKey@NGScene@@QBE_NABU01@@Z
??8SDecalTargetPart@NGScene@@QBE_NABU01@@Z
??8SGeometryType@NGfx@@QBE_NABU01@@Z
??8SHeightNodeRef@NAI@@QBE_NABU01@@Z
??8SMemBuilderVertex@@QBE_NABU0@@Z
??8SPart@NBuilding@@QBE_NABU01@@Z
??8SPartKey@NGScene@@QBE_NABU01@@Z
??8SPathPlace@NAI@@QBE_NABU01@@Z
??8SPointLightPos@CLightmapTracker@NGScene@@QBE_NABU012@@Z
??8SPosition@NAI@@QBE_NABU01@@Z
??8SRealVertexWeight@NGScene@@QBE_NABU01@@Z
??8SRenderFragmentKey@NGScene@@QBE_NABU01@@Z
??8SRenderStateKey@NGfx@@QBE_NABU01@@Z
??8SSrcPosInfo@NGScene@@QBE_NABU01@@Z
??8SStencilMode@NGfx@@QBE_NABU01@@Z
??8STextureKey@NGScene@@QBE_NABU01@@Z
??8SVisionQuery@NRPG@@QBE_NABU01@@Z
??8SVoxelObjectKey@NAI@@QBE_NABU01@@Z
??8SZone@NAI@@QBE_NABU01@@Z
??9?$CTPoint@H@@QBE_NABV0@@Z
??9?$SRingIterator@USLink@CPolyClipper@@U?$SRingNode@USLink@CPolyClipper@@@@@@QBE_NABU0@@Z
??9CVec2@@QBE_NABV0@@Z
??9CVec3@@QBE_NABV0@@Z
??9NGScene@@YI_NABUSGroupSelect@0@0@Z
??9NGScene@@YI_NABUSTransparentMaterialInfo@0@0@Z
??9SIterator@?$CPool@USResult@CFastRenderer@NAI@@$0BAAA@@@QBE_NABU01@@Z
??A?$CArray2D@D@@QBEPADH@Z
??A?$CArray2D@E@@QBEPAEH@Z
??A?$CArray2D@G@@QBEPAGH@Z
??A?$CArray2D@H@@QBEPAHH@Z
??A?$CArray2D@K@@QBEPAKH@Z
??A?$CArray2D@M@@QBEPAMH@Z
??A?$CArray2D@PAUSResult@CFastRenderer@NAI@@@@QBEPAPAUSResult@CFastRenderer@NAI@@H@Z
??A?$CArray2D@U?$SMoveInfo@V?$CTPoint@E@@G@NAI@@@@QBEPAU?$SMoveInfo@V?$CTPoint@E@@G@NAI@@H@Z
??A?$CArray2D@USBumpPixel@NGScene@@@@QBEPAUSBumpPixel@NGScene@@H@Z
??A?$CArray2D@USDoorColliderAnalyzer@NAI@@@@QBEPAUSDoorColliderAnalyzer@NAI@@H@Z
??A?$CArray2D@USHeightNode@NAI@@@@QBEPAUSHeightNode@NAI@@H@Z
??A?$CArray2D@USHilight@CSlot@NUI@@@@QBEPAUSHilight@CSlot@NUI@@H@Z
??A?$CArray2D@USPixel8888@NGfx@@@@QBEPAUSPixel8888@NGfx@@H@Z
??A?$CArray2D@USPoint@NGScene@@@@QBEPAUSPoint@NGScene@@H@Z
??A?$CArray2D@USStepSound@@@@QBEPAUSStepSound@@H@Z
??A?$CArray2D@USTile@NAI@@@@QBEPAUSTile@NAI@@H@Z
??A?$CArray2D@V?$CObj@V?$CPtrFuncBase@VCGrassPosition@NGScene@@@@@@@@QBEPAV?$CObj@V?$CPtrFuncBase@VCGrassPosition@NGScene@@@@@@H@Z
??A?$CArray2D@V?$CObj@VCLayersSetTracker@NAI@@@@@@QBEPAV?$CObj@VCLayersSetTracker@NAI@@@@H@Z
??A?$CArray2D@V?$CObj@VCVersioningBase@@@@@@QBEPAV?$CObj@VCVersioningBase@@@@H@Z
??A?$CArray2D@_N@@QBEPA_NH@Z
??A?$CArray3D@D@@QAE?AV?$CArray3DFetcher@D@@H@Z
??A?$CArray3D@E@@QAE?AV?$CArray3DFetcher@E@@H@Z
??A?$CArray3D@USExplVoxel@NAI@@@@QAE?AV?$CArray3DFetcher@USExplVoxel@NAI@@@@H@Z
??A?$CArray3D@V?$CObj@VCVisionCube@NRPG@@@@@@QAE?AV?$CArray3DFetcher@V?$CObj@VCVisionCube@NRPG@@@@@@H@Z
??A?$CArray3DFetcher@D@@QBEPADH@Z
??A?$CArray3DFetcher@E@@QBEPAEH@Z
??A?$CArray3DFetcher@USExplVoxel@NAI@@@@QBEPAUSExplVoxel@NAI@@H@Z
??A?$CArray3DFetcher@V?$CObj@VCVisionCube@NRPG@@@@@@QBEPAV?$CObj@VCVisionCube@NRPG@@@@H@Z
??A?$CBufferLock@US3DTriangle@NGfx@@@NGfx@@QBEAAUS3DTriangle@1@H@Z
??A?$CBufferLock@USGeomVecFull@NGfx@@@NGfx@@QBEAAUSGeomVecFull@1@H@Z
??A?$CBufferLock@USGeomVecNT1@NGfx@@@NGfx@@QBEAAUSGeomVecNT1@1@H@Z
??A?$CBufferLock@USGeomVecT1C1@NGfx@@@NGfx@@QBEAAUSGeomVecT1C1@1@H@Z
??A?$CSet@VCPerk@NRPG@@@NWorld@@QBEPAVCPerk@NRPG@@H@Z
??A?$CSet@VCUnitServer@NWorld@@@NWorld@@QBEPAVCUnitServer@1@H@Z
??A?$CTextureLock@USPixel1555@NGfx@@@NGfx@@QAEPAUSPixel1555@1@H@Z
??A?$CTextureLock@USPixel4444@NGfx@@@NGfx@@QAEPAUSPixel4444@1@H@Z
??A?$CTextureLock@USPixel565@NGfx@@@NGfx@@QAEPAUSPixel565@1@H@Z
??A?$CTextureLock@USPixel8888@NGfx@@@NGfx@@QAEPAUSPixel8888@1@H@Z
??A?$CTextureLock@USPixelDXT1@NGfx@@@NGfx@@QAEPAUSPixelDXT1@1@H@Z
??A?$CTextureLock@USPixelDXT2@NGfx@@@NGfx@@QAEPAUSPixelDXT2@1@H@Z
??A?$CTextureLock@USPixelDXT3@NGfx@@@NGfx@@QAEPAUSPixelDXT3@1@H@Z
??A?$CTextureLock@USPixelDXT4@NGfx@@@NGfx@@QAEPAUSPixelDXT4@1@H@Z
??A?$CTextureLock@USPixelDXT5@NGfx@@@NGfx@@QAEPAUSPixelDXT5@1@H@Z
??ACPathPlaceTable@NAI@@QAEAAU?$SMoveInfo@USPathPlace@NAI@@G@1@ABUSPathPlace@1@@Z
??ACSquareMapCosts@NAI@@QAEAAU?$SMoveInfo@V?$CTPoint@E@@G@1@ABV?$CTPoint@E@@@Z
??ACVec2@@QAEAAMH@Z
??ACVec2@@QBEABMH@Z
??ASRPGSkills@NDb@@QAEAAHH@Z
??B?$CDGPtr@V?$CFuncBase@USFBTransform@@@@V?$CObj@V?$CFuncBase@USFBTransform@@@@@@@@QBEPAV?$CFuncBase@USFBTransform@@@@XZ
??B?$CDGPtr@V?$CFuncBase@USTerrainInfo@@@@V?$CObj@V?$CFuncBase@USTerrainInfo@@@@@@@@QBEPAV?$CFuncBase@USTerrainInfo@@@@XZ
??B?$CDGPtr@V?$CFuncBase@USText@NGScene@@@@V?$CObj@V?$CFuncBase@USText@NGScene@@@@@@@@QBEPAV?$CFuncBase@USText@NGScene@@@@XZ
??B?$CDGPtr@V?$CFuncBase@V?$vector@USTriangleList@NGfx@@V?$allocator@USTriangleList@NGfx@@@_STL@@@_STL@@@@V?$CObj@V?$CFuncBase@V?$vector@USTriangleList@NGfx@@V?$allocator@USTriangleList@NGfx@@@_STL@@@_STL@@@@@@@@QBEPAV?$CFuncBase@V?$vector@USTriangleList@NGfx@@V?$allocator@USTriangleList@NGfx@@@_STL@@@_STL@@@@XZ
??B?$CDGPtr@V?$CPtrFuncBase@VCChapterInfo@@@@V?$CObj@V?$CPtrFuncBase@VCChapterInfo@@@@@@@@QBEPAV?$CPtrFuncBase@VCChapterInfo@@@@XZ
??B?$CDGPtr@V?$CPtrFuncBase@VCCubeTexture@NGfx@@@@V?$CObj@V?$CPtrFuncBase@VCCubeTexture@NGfx@@@@@@@@QBEPAV?$CPtrFuncBase@VCCubeTexture@NGfx@@@@XZ
??B?$CDGPtr@V?$CPtrFuncBase@VCFileSkeletonInfo@NAnimation@@@@V?$CObj@V?$CPtrFuncBase@VCFileSkeletonInfo@NAnimation@@@@@@@@QBEPAV?$CPtrFuncBase@VCFileSkeletonInfo@NAnimation@@@@XZ
??B?$CDGPtr@V?$CPtrFuncBase@VCFontFormatInfo@@@@V?$CObj@V?$CPtrFuncBase@VCFontFormatInfo@@@@@@@@QBEPAV?$CPtrFuncBase@VCFontFormatInfo@@@@XZ
??B?$CDGPtr@V?$CPtrFuncBase@VCGeometryInfo@NAI@@@@V?$CObj@V?$CPtrFuncBase@VCGeometryInfo@NAI@@@@@@@@QBEPAV?$CPtrFuncBase@VCGeometryInfo@NAI@@@@XZ
??B?$CDGPtr@V?$CPtrFuncBase@VCGlobalInfo@@@@V?$CObj@V?$CPtrFuncBase@VCGlobalInfo@@@@@@@@QBEPAV?$CPtrFuncBase@VCGlobalInfo@@@@XZ
??B?$CDGPtr@V?$CPtrFuncBase@VCGrassPosition@NGScene@@@@V?$CObj@V?$CPtrFuncBase@VCGrassPosition@NGScene@@@@@@@@QBEPAV?$CPtrFuncBase@VCGrassPosition@NGScene@@@@XZ
??B?$CDGPtr@V?$CPtrFuncBase@VCObjectInfo@NGScene@@@@V?$CObj@V?$CPtrFuncBase@VCObjectInfo@NGScene@@@@@@@@QBEPAV?$CPtrFuncBase@VCObjectInfo@NGScene@@@@XZ
??B?$CDGPtr@V?$CPtrFuncBase@VCParticlesInfo@NGScene@@@@V?$CObj@V?$CPtrFuncBase@VCParticlesInfo@NGScene@@@@@@@@QBEPAV?$CPtrFuncBase@VCParticlesInfo@NGScene@@@@XZ
??B?$CDGPtr@V?$CPtrFuncBase@VCSample3D@NFMSound@@@@V?$CObj@V?$CPtrFuncBase@VCSample3D@NFMSound@@@@@@@@QBEPAV?$CPtrFuncBase@VCSample3D@NFMSound@@@@XZ
??B?$CDGPtr@V?$CPtrFuncBase@VCTexture@NGfx@@@@V?$CObj@V?$CPtrFuncBase@VCTexture@NGfx@@@@@@@@QBEPAV?$CPtrFuncBase@VCTexture@NGfx@@@@XZ
??B?$CDGPtr@VCBuildingGrid@NBuilding@@V?$CObj@VCBuildingGrid@NBuilding@@@@@@QBEPAVCBuildingGrid@NBuilding@@XZ
??B?$CDGPtr@VCCTPoint@NGScene@@V?$CObj@VCCTPoint@NGScene@@@@@@QBEPAVCCTPoint@NGScene@@XZ
??B?$CDGPtr@VCCVec2@NGScene@@V?$CObj@VCCVec2@NGScene@@@@@@QBEPAVCCVec2@NGScene@@XZ
??B?$CDGPtr@VCPerMaterialCombiner@NGScene@@V?$CObj@VCPerMaterialCombiner@NGScene@@@@@@QBEPAVCPerMaterialCombiner@NGScene@@XZ
??B?$CDGPtr@VCScreenshotTexture@NGScene@@V?$CObj@VCScreenshotTexture@NGScene@@@@@@QBEPAVCScreenshotTexture@NGScene@@XZ
??B?$CDGPtr@VCSkeletonAnimator@NAnimation@@V?$CObj@VCSkeletonAnimator@NAnimation@@@@@@QBEPAVCSkeletonAnimator@NAnimation@@XZ
??B?$CDGPtr@VIVBCombiner@NGScene@@V?$CObj@VIVBCombiner@NGScene@@@@@@QBEPAVIVBCombiner@NGScene@@XZ
??B?$CLSPtr@UIAnimator@LifeStudioHeadAPI@@@NLSHead@@QBEPAUIAnimator@LifeStudioHeadAPI@@XZ
??B?$CLSPtr@UIMMTree@LifeStudioHeadAPI@@@NLSHead@@QBEPAUIMMTree@LifeStudioHeadAPI@@XZ
??B?$com_ptr@UIDirect3D9@@@NWin32Helper@@QBEPAUIDirect3D9@@XZ
??B?$com_ptr@UIDirect3DCubeTexture9@@@NWin32Helper@@QBEPAUIDirect3DCubeTexture9@@XZ
??B?$com_ptr@UIDirect3DDevice9@@@NWin32Helper@@QBEPAUIDirect3DDevice9@@XZ
??B?$com_ptr@UIDirect3DIndexBuffer9@@@NWin32Helper@@QBEPAUIDirect3DIndexBuffer9@@XZ
??B?$com_ptr@UIDirect3DPixelShader9@@@NWin32Helper@@QBEPAUIDirect3DPixelShader9@@XZ
??B?$com_ptr@UIDirect3DSurface9@@@NWin32Helper@@QBEPAUIDirect3DSurface9@@XZ
??B?$com_ptr@UIDirect3DTexture9@@@NWin32Helper@@QBEPAUIDirect3DTexture9@@XZ
??B?$com_ptr@UIDirect3DVertexDeclaration9@@@NWin32Helper@@QBEPAUIDirect3DVertexDeclaration9@@XZ
??B?$com_ptr@UIDirect3DVertexShader9@@@NWin32Helper@@QBEPAUIDirect3DVertexShader9@@XZ
??BCDynamicSkill@NRPG@@QBEHXZ
??BCJunctionID@NBuilding@@QBEHXZ
??Bsentry@?$basic_ostream@DU?$char_traits@D@std@@@std@@QBE_NXZ
??C?$CDGPtr@V?$CFuncBase@H@@V?$CObj@V?$CFuncBase@H@@@@@@QBEPAV?$CFuncBase@H@@XZ
??C?$CDGPtr@V?$CFuncBase@K@@V?$CObj@V?$CFuncBase@K@@@@@@QBEPAV?$CFuncBase@K@@XZ
??C?$CDGPtr@V?$CFuncBase@M@@V?$CObj@V?$CFuncBase@M@@@@@@QBEPAV?$CFuncBase@M@@XZ
??C?$CDGPtr@V?$CFuncBase@USBound@@@@V?$CObj@V?$CFuncBase@USBound@@@@@@@@QBEPAV?$CFuncBase@USBound@@@@XZ
??C?$CDGPtr@V?$CFuncBase@USFBTransform@@@@V?$CObj@V?$CFuncBase@USFBTransform@@@@@@@@QBEPAV?$CFuncBase@USFBTransform@@@@XZ
??C?$CDGPtr@V?$CFuncBase@USHeadFrame@NLSHead@@@@V?$CObj@V?$CFuncBase@USHeadFrame@NLSHead@@@@@@@@QBEPAV?$CFuncBase@USHeadFrame@NLSHead@@@@XZ
??C?$CDGPtr@V?$CFuncBase@USSkeletonState@NAnimation@@@@V?$CObj@V?$CFuncBase@USSkeletonState@NAnimation@@@@@@@@QBEPAV?$CFuncBase@USSkeletonState@NAnimation@@@@XZ
??C?$CDGPtr@V?$CFuncBase@USTerrainInfo@@@@V?$CObj@V?$CFuncBase@USTerrainInfo@@@@@@@@QBEPAV?$CFuncBase@USTerrainInfo@@@@XZ
??C?$CDGPtr@V?$CFuncBase@USText@NGScene@@@@V?$CObj@V?$CFuncBase@USText@NGScene@@@@@@@@QBEPAV?$CFuncBase@USText@NGScene@@@@XZ
??C?$CDGPtr@V?$CFuncBase@V?$CTPoint@H@@@@V?$CObj@V?$CFuncBase@V?$CTPoint@H@@@@@@@@QBEPAV?$CFuncBase@V?$CTPoint@H@@@@XZ
??C?$CDGPtr@V?$CFuncBase@V?$CTRect@H@@@@V?$CObj@V?$CFuncBase@V?$CTRect@H@@@@@@@@QBEPAV?$CFuncBase@V?$CTRect@H@@@@XZ
??C?$CDGPtr@V?$CFuncBase@V?$basic_string@GU?$char_traits@G@std@@V?$allocator@G@_STL@@@_STL@@@@V?$CObj@V?$CFuncBase@V?$basic_string@GU?$char_traits@G@std@@V?$allocator@G@_STL@@@_STL@@@@@@@@QBEPAV?$CFuncBase@V?$basic_string@GU?$char_traits@G@std@@V?$allocator@G@_STL@@@_STL@@@@XZ
??C?$CDGPtr@V?$CFuncBase@V?$vector@USBonePose@NAnimation@@V?$allocator@USBonePose@NAnimation@@@_STL@@@_STL@@@@V?$CObj@V?$CFuncBase@V?$vector@USBonePose@NAnimation@@V?$allocator@USBonePose@NAnimation@@@_STL@@@_STL@@@@@@@@QBEPAV?$CFuncBase@V?$vector@USBonePose@NAnimation@@V?$allocator@USBonePose@NAnimation@@@_STL@@@_STL@@@@XZ
??C?$CDGPtr@V?$CFuncBase@V?$vector@USHMatrix@@V?$allocator@USHMatrix@@@_STL@@@_STL@@@@V?$CObj@V?$CFuncBase@V?$vector@USHMatrix@@V?$allocator@USHMatrix@@@_STL@@@_STL@@@@@@@@QBEPAV?$CFuncBase@V?$vector@USHMatrix@@V?$allocator@USHMatrix@@@_STL@@@_STL@@@@XZ
??C?$CDGPtr@V?$CFuncBase@V?$vector@USTriangleList@NGfx@@V?$allocator@USTriangleList@NGfx@@@_STL@@@_STL@@@@V?$CObj@V?$CFuncBase@V?$vector@USTriangleList@NGfx@@V?$allocator@USTriangleList@NGfx@@@_STL@@@_STL@@@@@@@@QBEPAV?$CFuncBase@V?$vector@USTriangleList@NGfx@@V?$allocator@USTriangleList@NGfx@@@_STL@@@_STL@@@@XZ
??C?$CDGPtr@V?$CFuncBase@V?$vector@V?$CPtr@VIPart@NGScene@@@@V?$allocator@V?$CPtr@VIPart@NGScene@@@@@_STL@@@_STL@@@@V?$CObj@V?$CFuncBase@V?$vector@V?$CPtr@VIPart@NGScene@@@@V?$allocator@V?$CPtr@VIPart@NGScene@@@@@_STL@@@_STL@@@@@@@@QBEPAV?$CFuncBase@V?$vector@V?$CPtr@VIPart@NGScene@@@@V?$allocator@V?$CPtr@VIPart@NGScene@@@@@_STL@@@_STL@@@@XZ
??C?$CDGPtr@V?$CFuncBase@VCExplosionInfo@NGScene@@@@V?$CObj@V?$CFuncBase@VCExplosionInfo@NGScene@@@@@@@@QBEPAV?$CFuncBase@VCExplosionInfo@NGScene@@@@XZ
??C?$CDGPtr@V?$CFuncBase@VCRectLayout@@@@V?$CObj@V?$CFuncBase@VCRectLayout@@@@@@@@QBEPAV?$CFuncBase@VCRectLayout@@@@XZ
??C?$CDGPtr@V?$CFuncBase@VCVec2@@@@V?$CObj@V?$CFuncBase@VCVec2@@@@@@@@QBEPAV?$CFuncBase@VCVec2@@@@XZ
??C?$CDGPtr@V?$CFuncBase@VCVec3@@@@V?$CObj@V?$CFuncBase@VCVec3@@@@@@@@QBEPAV?$CFuncBase@VCVec3@@@@XZ
??C?$CDGPtr@V?$CFuncBase@VCVec4@@@@V?$CObj@V?$CFuncBase@VCVec4@@@@@@@@QBEPAV?$CFuncBase@VCVec4@@@@XZ
??C?$CDGPtr@V?$CFuncBase@_N@@V?$CObj@V?$CFuncBase@_N@@@@@@QBEPAV?$CFuncBase@_N@@XZ
??C?$CDGPtr@V?$CPtrFuncBase@VCAnimLight@NGScene@@@@V?$CObj@V?$CPtrFuncBase@VCAnimLight@NGScene@@@@@@@@QBEPAV?$CPtrFuncBase@VCAnimLight@NGScene@@@@XZ
??C?$CDGPtr@V?$CPtrFuncBase@VCAnimLightInfo@NGScene@@@@V?$CObj@V?$CPtrFuncBase@VCAnimLightInfo@NGScene@@@@@@@@QBEPAV?$CPtrFuncBase@VCAnimLightInfo@NGScene@@@@XZ
??C?$CDGPtr@V?$CPtrFuncBase@VCBuildInfo@NBuilding@@@@V?$CObj@V?$CPtrFuncBase@VCBuildInfo@NBuilding@@@@@@@@QBEPAV?$CPtrFuncBase@VCBuildInfo@NBuilding@@@@XZ
??C?$CDGPtr@V?$CPtrFuncBase@VCChapterInfo@@@@V?$CObj@V?$CPtrFuncBase@VCChapterInfo@@@@@@@@QBEPAV?$CPtrFuncBase@VCChapterInfo@@@@XZ
??C?$CDGPtr@V?$CPtrFuncBase@VCCubeTexture@NGfx@@@@V?$CObj@V?$CPtrFuncBase@VCCubeTexture@NGfx@@@@@@@@QBEPAV?$CPtrFuncBase@VCCubeTexture@NGfx@@@@XZ
??C?$CDGPtr@V?$CPtrFuncBase@VCFileAnimationInfo@NAnimation@@@@V?$CObj@V?$CPtrFuncBase@VCFileAnimationInfo@NAnimation@@@@@@@@QBEPAV?$CPtrFuncBase@VCFileAnimationInfo@NAnimation@@@@XZ
??C?$CDGPtr@V?$CPtrFuncBase@VCFileBindInfo@NGScene@@@@V?$CObj@V?$CPtrFuncBase@VCFileBindInfo@NGScene@@@@@@@@QBEPAV?$CPtrFuncBase@VCFileBindInfo@NGScene@@@@XZ
??C?$CDGPtr@V?$CPtrFuncBase@VCFileSkeletonInfo@NAnimation@@@@V?$CObj@V?$CPtrFuncBase@VCFileSkeletonInfo@NAnimation@@@@@@@@QBEPAV?$CPtrFuncBase@VCFileSkeletonInfo@NAnimation@@@@XZ
??C?$CDGPtr@V?$CPtrFuncBase@VCFileSkinPoints@NAI@@@@V?$CObj@V?$CPtrFuncBase@VCFileSkinPoints@NAI@@@@@@@@QBEPAV?$CPtrFuncBase@VCFileSkinPoints@NAI@@@@XZ
??C?$CDGPtr@V?$CPtrFuncBase@VCFontFormatInfo@@@@V?$CObj@V?$CPtrFuncBase@VCFontFormatInfo@@@@@@@@QBEPAV?$CPtrFuncBase@VCFontFormatInfo@@@@XZ
??C?$CDGPtr@V?$CPtrFuncBase@VCGeometry@NGfx@@@@V?$CObj@V?$CPtrFuncBase@VCGeometry@NGfx@@@@@@@@QBEPAV?$CPtrFuncBase@VCGeometry@NGfx@@@@XZ
??C?$CDGPtr@V?$CPtrFuncBase@VCGeometryInfo@NAI@@@@V?$CObj@V?$CPtrFuncBase@VCGeometryInfo@NAI@@@@@@@@QBEPAV?$CPtrFuncBase@VCGeometryInfo@NAI@@@@XZ
??C?$CDGPtr@V?$CPtrFuncBase@VCGlobalInfo@@@@V?$CObj@V?$CPtrFuncBase@VCGlobalInfo@@@@@@@@QBEPAV?$CPtrFuncBase@VCGlobalInfo@@@@XZ
??C?$CDGPtr@V?$CPtrFuncBase@VCGrassPosition@NGScene@@@@V?$CObj@V?$CPtrFuncBase@VCGrassPosition@NGScene@@@@@@@@QBEPAV?$CPtrFuncBase@VCGrassPosition@NGScene@@@@XZ
??C?$CDGPtr@V?$CPtrFuncBase@VCHeadMeshInfo@NLSHead@@@@V?$CObj@V?$CPtrFuncBase@VCHeadMeshInfo@NLSHead@@@@@@@@QBEPAV?$CPtrFuncBase@VCHeadMeshInfo@NLSHead@@@@XZ
??C?$CDGPtr@V?$CPtrFuncBase@VCHeadSequenceInfo@NLSHead@@@@V?$CObj@V?$CPtrFuncBase@VCHeadSequenceInfo@NLSHead@@@@@@@@QBEPAV?$CPtrFuncBase@VCHeadSequenceInfo@NLSHead@@@@XZ
??C?$CDGPtr@V?$CPtrFuncBase@VCMETerrainInfo@@@@V?$CObj@V?$CPtrFuncBase@VCMETerrainInfo@@@@@@@@QBEPAV?$CPtrFuncBase@VCMETerrainInfo@@@@XZ
??C?$CDGPtr@V?$CPtrFuncBase@VCObjectInfo@NGScene@@@@V?$CObj@V?$CPtrFuncBase@VCObjectInfo@NGScene@@@@@@@@QBEPAV?$CPtrFuncBase@VCObjectInfo@NGScene@@@@XZ
??C?$CDGPtr@V?$CPtrFuncBase@VCObjectInfoPieces@NGScene@@@@V?$CObj@V?$CPtrFuncBase@VCObjectInfoPieces@NGScene@@@@@@@@QBEPAV?$CPtrFuncBase@VCObjectInfoPieces@NGScene@@@@XZ
??C?$CDGPtr@V?$CPtrFuncBase@VCParticleEffect@NGScene@@@@V?$CObj@V?$CPtrFuncBase@VCParticleEffect@NGScene@@@@@@@@QBEPAV?$CPtrFuncBase@VCParticleEffect@NGScene@@@@XZ
??C?$CDGPtr@V?$CPtrFuncBase@VCParticlesInfo@NGScene@@@@V?$CObj@V?$CPtrFuncBase@VCParticlesInfo@NGScene@@@@@@@@QBEPAV?$CPtrFuncBase@VCParticlesInfo@NGScene@@@@XZ
??C?$CDGPtr@V?$CPtrFuncBase@VCParticlesInfo@NGScene@@@@V?$CPtr@V?$CPtrFuncBase@VCParticlesInfo@NGScene@@@@@@@@QBEPAV?$CPtrFuncBase@VCParticlesInfo@NGScene@@@@XZ
??C?$CDGPtr@V?$CPtrFuncBase@VCSample2D@NFMSound@@@@V?$CObj@V?$CPtrFuncBase@VCSample2D@NFMSound@@@@@@@@QBEPAV?$CPtrFuncBase@VCSample2D@NFMSound@@@@XZ
??C?$CDGPtr@V?$CPtrFuncBase@VCSample3D@NFMSound@@@@V?$CObj@V?$CPtrFuncBase@VCSample3D@NFMSound@@@@@@@@QBEPAV?$CPtrFuncBase@VCSample3D@NFMSound@@@@XZ
??C?$CDGPtr@V?$CPtrFuncBase@VCTerrainPart@@@@V?$CObj@V?$CPtrFuncBase@VCTerrainPart@@@@@@@@QBEPAV?$CPtrFuncBase@VCTerrainPart@@@@XZ
??C?$CDGPtr@V?$CPtrFuncBase@VCTexture@NGfx@@@@V?$CObj@V?$CPtrFuncBase@VCTexture@NGfx@@@@@@@@QBEPAV?$CPtrFuncBase@VCTexture@NGfx@@@@XZ
??C?$CDGPtr@V?$CPtrFuncBase@VCTwoBSPTrees@NAI@@@@V?$CObj@V?$CPtrFuncBase@VCTwoBSPTrees@NAI@@@@@@@@QBEPAV?$CPtrFuncBase@VCTwoBSPTrees@NAI@@@@XZ
??C?$CDGPtr@V?$CPtrFuncBase@VCUnitAIInfo@NAI@@@@V?$CObj@V?$CPtrFuncBase@VCUnitAIInfo@NAI@@@@@@@@QBEPAV?$CPtrFuncBase@VCUnitAIInfo@NAI@@@@XZ
??C?$CDGPtr@V?$CPtrFuncBase@VCWaypoint@NAI@@@@V?$CObj@V?$CPtrFuncBase@VCWaypoint@NAI@@@@@@@@QBEPAV?$CPtrFuncBase@VCWaypoint@NAI@@@@XZ
??C?$CDGPtr@VCBilinearTexture@NGScene@@V?$CObj@VCBilinearTexture@NGScene@@@@@@QBEPAVCBilinearTexture@NGScene@@XZ
??C?$CDGPtr@VCBuildInfoLoader@NBuilding@@V?$CObj@VCBuildInfoLoader@NBuilding@@@@@@QBEPAVCBuildInfoLoader@NBuilding@@XZ
??C?$CDGPtr@VCBuilder@NTerrain@@V?$CObj@VCBuilder@NTerrain@@@@@@QBEPAVCBuilder@NTerrain@@XZ
??C?$CDGPtr@VCBuildingGrid@NBuilding@@V?$CObj@VCBuildingGrid@NBuilding@@@@@@QBEPAVCBuildingGrid@NBuilding@@XZ
??C?$CDGPtr@VCCTPoint@NGScene@@V?$CObj@VCCTPoint@NGScene@@@@@@QBEPAVCCTPoint@NGScene@@XZ
??C?$CDGPtr@VCCTime@@V?$CObj@VCCTime@@@@@@QBEPAVCCTime@@XZ
??C?$CDGPtr@VCCVec2@NGScene@@V?$CObj@VCCVec2@NGScene@@@@@@QBEPAVCCVec2@NGScene@@XZ
??C?$CDGPtr@VCFakeParticleLMTexture@NGScene@@V?$CObj@VCFakeParticleLMTexture@NGScene@@@@@@QBEPAVCFakeParticleLMTexture@NGScene@@XZ
??C?$CDGPtr@VCFileAIBind@NGScene@@V?$CObj@VCFileAIBind@NGScene@@@@@@QBEPAVCFileAIBind@NGScene@@XZ
??C?$CDGPtr@VCFileAnimation@NAnimation@@V?$CObj@VCFileAnimation@NAnimation@@@@@@QBEPAVCFileAnimation@NAnimation@@XZ
??C?$CDGPtr@VCFileBind@NGScene@@V?$CObj@VCFileBind@NGScene@@@@@@QBEPAVCFileBind@NGScene@@XZ
??C?$CDGPtr@VCFileSkeleton@NAnimation@@V?$CObj@VCFileSkeleton@NAnimation@@@@@@QBEPAVCFileSkeleton@NAnimation@@XZ
??C?$CDGPtr@VCFileSkinPointsLoad@NAI@@V?$CObj@VCFileSkinPointsLoad@NAI@@@@@@QBEPAVCFileSkinPointsLoad@NAI@@XZ
??C?$CDGPtr@VCHeightMapBlock@NWorld@@V?$CObj@VCHeightMapBlock@NWorld@@@@@@QBEPAVCHeightMapBlock@NWorld@@XZ
??C?$CDGPtr@VCLoadGeometryInfo@NAI@@V?$CObj@VCLoadGeometryInfo@NAI@@@@@@QBEPAVCLoadGeometryInfo@NAI@@XZ
??C?$CDGPtr@VCObjectInfoLoader@NGScene@@V?$CObj@VCObjectInfoLoader@NGScene@@@@@@QBEPAVCObjectInfoLoader@NGScene@@XZ
??C?$CDGPtr@VCPerMaterialCombiner@NGScene@@V?$CObj@VCPerMaterialCombiner@NGScene@@@@@@QBEPAVCPerMaterialCombiner@NGScene@@XZ
??C?$CDGPtr@VCScreenshotTexture@NGScene@@V?$CObj@VCScreenshotTexture@NGScene@@@@@@QBEPAVCScreenshotTexture@NGScene@@XZ
??C?$CDGPtr@VCSkeletonAnimator@NAnimation@@V?$CObj@VCSkeletonAnimator@NAnimation@@@@@@QBEPAVCSkeletonAnimator@NAnimation@@XZ
??C?$CDGPtr@VCVBCombiner@NGScene@@V?$CObj@VCVBCombiner@NGScene@@@@@@QBEPAVCVBCombiner@NGScene@@XZ
??C?$CDGPtr@VIVBCombiner@NGScene@@V?$CObj@VIVBCombiner@NGScene@@@@@@QBEPAVIVBCombiner@NGScene@@XZ
??C?$CLSPtr@UIAnimator@LifeStudioHeadAPI@@@NLSHead@@QBEPAUIAnimator@LifeStudioHeadAPI@@XZ
??C?$CLSPtr@UIMMTree@LifeStudioHeadAPI@@@NLSHead@@QBEPAUIMMTree@LifeStudioHeadAPI@@XZ
??C?$CLSPtr@UISequencer@LifeStudioHeadAPI@@@NLSHead@@QBEPAUISequencer@LifeStudioHeadAPI@@XZ
??C?$SRingIterator@$$CBUSEdge@CPolyClipper@@$$CBU?$SRingNode@USEdge@CPolyClipper@@@@@@QBEPBUSEdge@CPolyClipper@@XZ
??C?$SRingIterator@USEdge@CPolyClipper@@U?$SRingNode@USEdge@CPolyClipper@@@@@@QBEPAUSEdge@CPolyClipper@@XZ
??C?$SRingIterator@USLink@CPolyClipper@@U?$SRingNode@USLink@CPolyClipper@@@@@@QBEPAUSLink@CPolyClipper@@XZ
??C?$com_ptr@UIDirect3D9@@@NWin32Helper@@QBEPAUIDirect3D9@@XZ
??C?$com_ptr@UIDirect3DCubeTexture9@@@NWin32Helper@@QBEPAUIDirect3DCubeTexture9@@XZ
??C?$com_ptr@UIDirect3DDevice9@@@NWin32Helper@@QBEPAUIDirect3DDevice9@@XZ
??C?$com_ptr@UIDirect3DIndexBuffer9@@@NWin32Helper@@QBEPAUIDirect3DIndexBuffer9@@XZ
??C?$com_ptr@UIDirect3DSurface9@@@NWin32Helper@@QBEPAUIDirect3DSurface9@@XZ
??C?$com_ptr@UIDirect3DTexture9@@@NWin32Helper@@QBEPAUIDirect3DTexture9@@XZ
??C?$com_ptr@UIDirect3DVertexBuffer9@@@NWin32Helper@@QBEPAUIDirect3DVertexBuffer9@@XZ
??C?$reverse_bidirectional_iterator@U?$_List_iterator@USConsoleLine@@U?$_Nonconst_traits@USConsoleLine@@@_STL@@@_STL@@USConsoleLine@@AAU3@PAU3@H@_STL@@QBEPAUSConsoleLine@@XZ
??CCFileRequest@NGScene@@QAEPAVCMemoryStream@@XZ
??CCResourceFileOpener@NGScene@@QAEPAVCDataStream@@XZ
??CCResourceOpener@NGScene@@QAEPAVCStructureSaver@@XZ
??D?$SRingIterator@$$CBUSEdge@CPolyClipper@@$$CBU?$SRingNode@USEdge@CPolyClipper@@@@@@QBEABUSEdge@CPolyClipper@@XZ
??D?$SRingIterator@USEdge@CPolyClipper@@U?$SRingNode@USEdge@CPolyClipper@@@@@@QBEAAUSEdge@CPolyClipper@@XZ
??D?$SRingIterator@USLink@CPolyClipper@@U?$SRingNode@USLink@CPolyClipper@@@@@@QBEAAUSLink@CPolyClipper@@XZ
??D?$reverse_bidirectional_iterator@U?$_List_iterator@USConsoleLine@@U?$_Nonconst_traits@USConsoleLine@@@_STL@@@_STL@@USConsoleLine@@AAU3@PAU3@H@_STL@@QBEAAUSConsoleLine@@XZ
??D?$reverse_bidirectional_iterator@U?$_List_iterator@V?$CObj@VCDesktopWindow@NUI@@@@U?$_Nonconst_traits@V?$CObj@VCDesktopWindow@NUI@@@@@_STL@@@_STL@@V?$CObj@VCDesktopWindow@NUI@@@@AAV3@PAV3@H@_STL@@QBEAAV?$CObj@VCDesktopWindow@NUI@@@@XZ
??D?$reverse_bidirectional_iterator@U?$_List_iterator@V?$CObj@VIAILogRecord@NAI@@@@U?$_Nonconst_traits@V?$CObj@VIAILogRecord@NAI@@@@@_STL@@@_STL@@V?$CObj@VIAILogRecord@NAI@@@@AAV3@PAV3@H@_STL@@QBEAAV?$CObj@VIAILogRecord@NAI@@@@XZ
??D?$reverse_bidirectional_iterator@U?$_List_iterator@V?$CPtr@VCWindow@NUI@@@@U?$_Nonconst_traits@V?$CPtr@VCWindow@NUI@@@@@_STL@@@_STL@@V?$CPtr@VCWindow@NUI@@@@AAV3@PAV3@H@_STL@@QBEAAV?$CPtr@VCWindow@NUI@@@@XZ
??D?$reverse_iterator@PAV?$CObj@VIAIControl@NAI@@@@V1@AAV1@PAV1@H@_STL@@QBEAAV?$CObj@VIAIControl@NAI@@@@XZ
??D@YI?AUSFBTransform@@ABU0@0@Z
??D@YI?BUSHMatrix@@ABU0@0@Z
??D@YI?BVCQuat@@ABV0@0@Z
??D@YI?BVCVec2@@ABV0@M@Z
??D@YI?BVCVec2@@MABV0@@Z
??D@YI?BVCVec3@@ABV0@M@Z
??D@YI?BVCVec3@@MABV0@@Z
??D@YI?BVCVec4@@ABV0@M@Z
??D@YI?BVCVec4@@MABV0@@Z
??D@YIMABVCVec3@@0@Z
??D@YIMABVCVec4@@0@Z
??E?$SRingIterator@$$CBUSEdge@CPolyClipper@@$$CBU?$SRingNode@USEdge@CPolyClipper@@@@@@QAE?AU0@H@Z
??E?$SRingIterator@USEdge@CPolyClipper@@U?$SRingNode@USEdge@CPolyClipper@@@@@@QAE?AU0@H@Z
??E?$SRingIterator@USLink@CPolyClipper@@U?$SRingNode@USLink@CPolyClipper@@@@@@QAE?AU0@H@Z
??E?$SRingIterator@USLink@CPolyClipper@@U?$SRingNode@USLink@CPolyClipper@@@@@@QAEAAU0@XZ
??E?$reverse_bidirectional_iterator@U?$_List_iterator@USConsoleLine@@U?$_Nonconst_traits@USConsoleLine@@@_STL@@@_STL@@USConsoleLine@@AAU3@PAU3@H@_STL@@QAE?AV01@H@Z
??E?$reverse_bidirectional_iterator@U?$_List_iterator@V?$CObj@VCDesktopWindow@NUI@@@@U?$_Nonconst_traits@V?$CObj@VCDesktopWindow@NUI@@@@@_STL@@@_STL@@V?$CObj@VCDesktopWindow@NUI@@@@AAV3@PAV3@H@_STL@@QAE?AV01@H@Z
??E?$reverse_bidirectional_iterator@U?$_List_iterator@V?$CObj@VIAILogRecord@NAI@@@@U?$_Nonconst_traits@V?$CObj@VIAILogRecord@NAI@@@@@_STL@@@_STL@@V?$CObj@VIAILogRecord@NAI@@@@AAV3@PAV3@H@_STL@@QAEAAV01@XZ
??E?$reverse_bidirectional_iterator@U?$_List_iterator@V?$CPtr@VCWindow@NUI@@@@U?$_Nonconst_traits@V?$CPtr@VCWindow@NUI@@@@@_STL@@@_STL@@V?$CPtr@VCWindow@NUI@@@@AAV3@PAV3@H@_STL@@QAE?AV01@H@Z
??E?$reverse_iterator@PAV?$CObj@VIAIControl@NAI@@@@V1@AAV1@PAV1@H@_STL@@QAEAAV01@XZ
??F?$SRingIterator@USLink@CPolyClipper@@U?$SRingNode@USLink@CPolyClipper@@@@@@QAE?AU0@H@Z
??FSIterator@?$CPool@USResult@CFastRenderer@NAI@@$0BAAA@@@QAEXXZ
??G@YI?BVCVec2@@ABV0@0@Z
??G@YI?BVCVec2@@ABV0@@Z
??G@YI?BVCVec3@@ABV0@0@Z
??G@YI?BVCVec3@@ABV0@@Z
??G@YI?BVCVec4@@ABV0@0@Z
??G@YI?BVCVec4@@ABV0@@Z
??GNBuilding@@YI?BUCIVec3@0@ABU10@0@Z
??H@YI?BV?$CTPoint@H@@ABV0@0@Z
??H@YI?BVCVec2@@ABV0@0@Z
??H@YI?BVCVec3@@ABV0@0@Z
??H@YI?BVCVec4@@ABV0@0@Z
??HNBuilding@@YI?AUSPoint3@0@ABU10@0@Z
??HSScenarioFlowChartPassage@NScenario@@QAE?AU01@AAU01@@Z
??HSScenarioFlowChartPassage@NScenario@@QAE?AU01@PAVCScenarioClue@1@@Z
??HSScenarioFlowChartPassage@NScenario@@QAE?AU01@PAVCScenarioObjective@1@@Z
??I?$CActionDecorator@VCImage@NUI@@@NUI@@UAEHAAVCStructureSaver@@@Z
??I?$CActionDecorator@VCInteractiveUnitView@NUI@@@NUI@@UAEHAAVCStructureSaver@@@Z
??I?$CActionDecorator@VCShowItemModel@NUI@@@NUI@@UAEHAAVCStructureSaver@@@Z
??I?$CActionDecorator@VCUnitView@NUI@@@NUI@@UAEHAAVCStructureSaver@@@Z
??I?$CActionDecorator@VCWindow@NUI@@@NUI@@UAEHAAVCStructureSaver@@@Z
??I?$CArray3D@E@@QAEHAAVCStructureSaver@@@Z
??I?$CArray3D@V?$CObj@VCVisionCube@NRPG@@@@@@QAEHAAVCStructureSaver@@@Z
??I?$CBasicShare@HVCAIGeometryConverter@NGScene@@U?$hash@H@_STL@@@@UAEHAAVCStructureSaver@@@Z
??I?$CBasicShare@HVCAISkinObjectConverter@NGScene@@U?$hash@H@_STL@@@@UAEHAAVCStructureSaver@@@Z
??I?$CBasicShare@HVCBuildInfoLoader@NBuilding@@U?$hash@H@_STL@@@@UAEHAAVCStructureSaver@@@Z
??I?$CBasicShare@HVCChapterInfoLoader@@U?$hash@H@_STL@@@@UAEHAAVCStructureSaver@@@Z
??I?$CBasicShare@HVCFileAIBind@NGScene@@U?$hash@H@_STL@@@@UAEHAAVCStructureSaver@@@Z
??I?$CBasicShare@HVCFileAnimation@NAnimation@@U?$hash@H@_STL@@@@UAEHAAVCStructureSaver@@@Z
??I?$CBasicShare@HVCFileBind@NGScene@@U?$hash@H@_STL@@@@UAEHAAVCStructureSaver@@@Z
??I?$CBasicShare@HVCFileCubeTexture@NGScene@@U?$hash@H@_STL@@@@UAEHAAVCStructureSaver@@@Z
??I?$CBasicShare@HVCFileFont@NGScene@@U?$hash@H@_STL@@@@UAEHAAVCStructureSaver@@@Z
??I?$CBasicShare@HVCFileLocators@NAnimation@@U?$hash@H@_STL@@@@UAEHAAVCStructureSaver@@@Z
??I?$CBasicShare@HVCFileSample2D@NSound@@U?$hash@H@_STL@@@@UAEHAAVCStructureSaver@@@Z
??I?$CBasicShare@HVCFileSample3D@NSound@@U?$hash@H@_STL@@@@UAEHAAVCStructureSaver@@@Z
??I?$CBasicShare@HVCFileSkeleton@NAnimation@@U?$hash@H@_STL@@@@UAEHAAVCStructureSaver@@@Z
??I?$CBasicShare@HVCFileSkinPointsLoad@NAI@@U?$hash@H@_STL@@@@UAEHAAVCStructureSaver@@@Z
??I?$CBasicShare@HVCGlobalInfoLoader@@U?$hash@H@_STL@@@@UAEHAAVCStructureSaver@@@Z
??I?$CBasicShare@HVCHeadMeshLoader@NLSHead@@U?$hash@H@_STL@@@@UAEHAAVCStructureSaver@@@Z
??I?$CBasicShare@HVCHeadSequenceLoader@NLSHead@@U?$hash@H@_STL@@@@UAEHAAVCStructureSaver@@@Z
??I?$CBasicShare@HVCLightLoader@NGScene@@U?$hash@H@_STL@@@@UAEHAAVCStructureSaver@@@Z
??I?$CBasicShare@HVCLoadGeometryInfo@NAI@@U?$hash@H@_STL@@@@UAEHAAVCStructureSaver@@@Z
??I?$CBasicShare@HVCLoadTwoBSPTrees@NAI@@U?$hash@H@_STL@@@@UAEHAAVCStructureSaver@@@Z
??I?$CBasicShare@HVCMETerrainLoader@@U?$hash@H@_STL@@@@UAEHAAVCStructureSaver@@@Z
??I?$CBasicShare@HVCParticlesLoader@NGScene@@U?$hash@H@_STL@@@@UAEHAAVCStructureSaver@@@Z
??I?$CBasicShare@HVCSWTexture@NGScene@@U?$hash@H@_STL@@@@UAEHAAVCStructureSaver@@@Z
??I?$CBasicShare@HVCUnitAIInfoLoader@NAI@@U?$hash@H@_STL@@@@UAEHAAVCStructureSaver@@@Z
??I?$CBasicShare@HVCUnitGroupAIInfoLoader@NAI@@U?$hash@H@_STL@@@@UAEHAAVCStructureSaver@@@Z
??I?$CBasicShare@HVCWaypointLoader@NAI@@U?$hash@H@_STL@@@@UAEHAAVCStructureSaver@@@Z
??I?$CBasicShare@USClipShare@NGScene@@VCSolidObjectInfoClipper@2@USClipInfoHash@2@@@UAEHAAVCStructureSaver@@@Z
??I?$CBasicShare@USClipShare@NGScene@@VCWallObjectInfoClipper@2@USClipInfoHash@2@@@UAEHAAVCStructureSaver@@@Z
??I?$CBasicShare@USPartKey@NGScene@@VCObjectInfoLoader@2@USPartHash@2@@@UAEHAAVCStructureSaver@@@Z
??I?$CBasicShare@USPartKey@NGScene@@VCObjectInfoPiecesLoader@2@USPartHash@2@@@UAEHAAVCStructureSaver@@@Z
??I?$CBasicShare@USTextureKey@NGScene@@VCFileTexture@2@USTextureKeyHash@2@@@UAEHAAVCStructureSaver@@@Z
??I?$CBoolSyncDstUtil@UIVisObj@NWorld@@V?$CBoolSyncSrc@UIVisObj@NWorld@@VCIntersectionFunc@@@@@@QAEHAAVCStructureSaver@@@Z
??I?$CBoolSyncDstUtil@UIVisObj@NWorld@@V?$CBoolSyncSrc@UIVisObj@NWorld@@VCUnionFunc@@@@@@QAEHAAVCStructureSaver@@@Z
??I?$CBoolSyncSrc@UIVisObj@NWorld@@VCIntersectionFunc@@@@EAEHAAVCStructureSaver@@@Z
??I?$CBoolSyncSrc@UIVisObj@NWorld@@VCUnionFunc@@@@EAEHAAVCStructureSaver@@@Z
??I?$CDBPtr@VCAnimation@NDb@@@@QAEHAAVCStructureSaver@@@Z
??I?$CDBPtr@VCChapterMap@NDb@@@@QAEHAAVCStructureSaver@@@Z
??I?$CDBPtr@VCComplexHead@NDb@@@@QAEHAAVCStructureSaver@@@Z
??I?$CDBPtr@VCDBAck@NDb@@@@QAEHAAVCStructureSaver@@@Z
??I?$CDBPtr@VCDBAckInfo@NDb@@@@QAEHAAVCStructureSaver@@@Z
??I?$CDBPtr@VCDBCamera@NDb@@@@QAEHAAVCStructureSaver@@@Z
??I?$CDBPtr@VCDBDifficulty@NDb@@@@QAEHAAVCStructureSaver@@@Z
??I?$CDBPtr@VCDBMinesConstants@NDb@@@@QAEHAAVCStructureSaver@@@Z
??I?$CDBPtr@VCDBPerk@NDb@@@@QAEHAAVCStructureSaver@@@Z
??I?$CDBPtr@VCDBScenarioClue@NDb@@@@QAEHAAVCStructureSaver@@@Z
??I?$CDBPtr@VCDBScenarioObjective@NDb@@@@QAEHAAVCStructureSaver@@@Z
??I?$CDBPtr@VCDBScenarioZone@NDb@@@@QAEHAAVCStructureSaver@@@Z
??I?$CDBPtr@VCEffect@NDb@@@@QAEHAAVCStructureSaver@@@Z
??I?$CDBPtr@VCGlobalMap@NDb@@@@QAEHAAVCStructureSaver@@@Z
??I?$CDBPtr@VCGrass@NDb@@@@QAEHAAVCStructureSaver@@@Z
??I?$CDBPtr@VCHead@NDb@@@@QAEHAAVCStructureSaver@@@Z
??I?$CDBPtr@VCLightInstance@NDb@@@@QAEHAAVCStructureSaver@@@Z
??I?$CDBPtr@VCMaterial@NDb@@@@QAEHAAVCStructureSaver@@@Z
??I?$CDBPtr@VCMusic@NDb@@@@QAEHAAVCStructureSaver@@@Z
??I?$CDBPtr@VCNationality@NDb@@@@QAEHAAVCStructureSaver@@@Z
??I?$CDBPtr@VCPanzerklein@NDb@@@@QAEHAAVCStructureSaver@@@Z
??I?$CDBPtr@VCParticleInstance@NDb@@@@QAEHAAVCStructureSaver@@@Z
??I?$CDBPtr@VCRPGAmmo@NDb@@@@QAEHAAVCStructureSaver@@@Z
??I?$CDBPtr@VCRPGArmor@NDb@@@@QAEHAAVCStructureSaver@@@Z
??I?$CDBPtr@VCRPGClass@NDb@@@@QAEHAAVCStructureSaver@@@Z
??I?$CDBPtr@VCRPGClip@NDb@@@@QAEHAAVCStructureSaver@@@Z
??I?$CDBPtr@VCRPGFirstAid@NDb@@@@QAEHAAVCStructureSaver@@@Z
??I?$CDBPtr@VCRPGGrenade@NDb@@@@QAEHAAVCStructureSaver@@@Z
??I?$CDBPtr@VCRPGItem@NDb@@@@QAEHAAVCStructureSaver@@@Z
??I?$CDBPtr@VCRPGKey@NDb@@@@QAEHAAVCStructureSaver@@@Z
??I?$CDBPtr@VCRPGMeleeWeapon@NDb@@@@QAEHAAVCStructureSaver@@@Z
??I?$CDBPtr@VCRPGMine@NDb@@@@QAEHAAVCStructureSaver@@@Z
??I?$CDBPtr@VCRPGMineDetector@NDb@@@@QAEHAAVCStructureSaver@@@Z
??I?$CDBPtr@VCRPGPers@NDb@@@@QAEHAAVCStructureSaver@@@Z
??I?$CDBPtr@VCRPGStoreItem@NDb@@@@QAEHAAVCStructureSaver@@@Z
??I?$CDBPtr@VCRPGTool@NDb@@@@QAEHAAVCStructureSaver@@@Z
??I?$CDBPtr@VCRPGWeapon@NDb@@@@QAEHAAVCStructureSaver@@@Z
??I?$CDBPtr@VCSide@NDb@@@@QAEHAAVCStructureSaver@@@Z
??I?$CDBPtr@VCSkeleton@NDb@@@@QAEHAAVCStructureSaver@@@Z
??I?$CDBPtr@VCSound@NDb@@@@QAEHAAVCStructureSaver@@@Z
??I?$CDBPtr@VCSoundInstance@NDb@@@@QAEHAAVCStructureSaver@@@Z
??I?$CDBPtr@VCTemplVariant@NDb@@@@QAEHAAVCStructureSaver@@@Z
??I?$CDBPtr@VCTexture@NDb@@@@QAEHAAVCStructureSaver@@@Z
??I?$CDBPtr@VCUITexture@NDb@@@@QAEHAAVCStructureSaver@@@Z
??I?$CDBPtrWrapper@VCDBCamera@NDb@@@NScript@@UAEHAAVCStructureSaver@@@Z
??I?$CDGPtr@V?$CFuncBase@K@@V?$CObj@V?$CFuncBase@K@@@@@@QAEHAAVCStructureSaver@@@Z
??I?$CDGPtr@V?$CFuncBase@M@@V?$CObj@V?$CFuncBase@M@@@@@@QAEHAAVCStructureSaver@@@Z
??I?$CDGPtr@V?$CFuncBase@USFBTransform@@@@V?$CObj@V?$CFuncBase@USFBTransform@@@@@@@@QAEHAAVCStructureSaver@@@Z
??I?$CDGPtr@V?$CFuncBase@V?$CTRect@H@@@@V?$CObj@V?$CFuncBase@V?$CTRect@H@@@@@@@@QAEHAAVCStructureSaver@@@Z
??I?$CDGPtr@V?$CFuncBase@V?$vector@USBonePose@NAnimation@@V?$allocator@USBonePose@NAnimation@@@_STL@@@_STL@@@@V?$CObj@V?$CFuncBase@V?$vector@USBonePose@NAnimation@@V?$allocator@USBonePose@NAnimation@@@_STL@@@_STL@@@@@@@@QAEHAAVCStructureSaver@@@Z
??I?$CDGPtr@V?$CFuncBase@V?$vector@USHMatrix@@V?$allocator@USHMatrix@@@_STL@@@_STL@@@@V?$CObj@V?$CFuncBase@V?$vector@USHMatrix@@V?$allocator@USHMatrix@@@_STL@@@_STL@@@@@@@@QAEHAAVCStructureSaver@@@Z
??I?$CDGPtr@V?$CFuncBase@VCVec3@@@@V?$CObj@V?$CFuncBase@VCVec3@@@@@@@@QAEHAAVCStructureSaver@@@Z
??I?$CDGPtr@V?$CPtrFuncBase@VCFileBindInfo@NGScene@@@@V?$CObj@V?$CPtrFuncBase@VCFileBindInfo@NGScene@@@@@@@@QAEHAAVCStructureSaver@@@Z
??I?$CDGPtr@V?$CPtrFuncBase@VCFileSkeletonInfo@NAnimation@@@@V?$CObj@V?$CPtrFuncBase@VCFileSkeletonInfo@NAnimation@@@@@@@@QAEHAAVCStructureSaver@@@Z
??I?$CDGPtr@V?$CPtrFuncBase@VCGeometry@NGfx@@@@V?$CObj@V?$CPtrFuncBase@VCGeometry@NGfx@@@@@@@@QAEHAAVCStructureSaver@@@Z
??I?$CDGPtr@VCHeightMapBlock@NWorld@@V?$CObj@VCHeightMapBlock@NWorld@@@@@@QAEHAAVCStructureSaver@@@Z
??I?$CGatherElementBase@VCShortPtrAllocator@NCache@@VCFibElement@2@VCUserGeometry@NGfx@@@NCache@@$4PPPPPPPM@A@AEHAAVCStructureSaver@@@Z
??I?$CGatherElementBase@VCShortPtrAllocator@NCache@@VCFibElement@2@VCUserGeometry@NGfx@@@NCache@@$4PPPPPPPM@BM@AEHAAVCStructureSaver@@@Z
??I?$CGatherElementBase@VCShortPtrAllocator@NCache@@VCFibElement@2@VCUserGeometry@NGfx@@@NCache@@$4PPPPPPPM@CE@AEHAAVCStructureSaver@@@Z
??I?$CGatherElementBase@VCShortPtrAllocator@NCache@@VCFibElement@2@VCUserGeometry@NGfx@@@NCache@@UAEHAAVCStructureSaver@@@Z
??I?$CGatherElementBase@VCShortPtrAllocator@NCache@@VCQuadTreeElement@2@VCTexture@NGfx@@@NCache@@$4PPPPPPPM@A@AEHAAVCStructureSaver@@@Z
??I?$CGatherElementBase@VCShortPtrAllocator@NCache@@VCQuadTreeElement@2@VCTexture@NGfx@@@NCache@@$4PPPPPPPM@CA@AEHAAVCStructureSaver@@@Z
??I?$CGatherElementBase@VCShortPtrAllocator@NCache@@VCQuadTreeElement@2@VCTexture@NGfx@@@NCache@@UAEHAAVCStructureSaver@@@Z
??I?$CGatheringCache@VCShortPtrAllocator@NCache@@VCFibElement@2@VCUserGeometry@NGfx@@@NCache@@UAEHAAVCStructureSaver@@@Z
??I?$CGatheringCache@VCShortPtrAllocator@NCache@@VCQuadTreeElement@2@VCTexture@NGfx@@@NCache@@UAEHAAVCStructureSaver@@@Z
??I?$CItemContainer@VCAmmoItem@NRPG@@@NRPG@@$4PPPPPPPM@A@AEHAAVCStructureSaver@@@Z
??I?$CItemContainer@VCAmmoItem@NRPG@@@NRPG@@UAEHAAVCStructureSaver@@@Z
??I?$CItemContainer@VCPotionItem@NRPG@@@NRPG@@$4PPPPPPPM@A@AEHAAVCStructureSaver@@@Z
??I?$CItemContainer@VCPotionItem@NRPG@@@NRPG@@UAEHAAVCStructureSaver@@@Z
??I?$COcTreeNode@VCVolumeNode@NAI@@$03@@UAEHAAVCStructureSaver@@@Z
??I?$COcTreeNode@VCVolumeNode@NGScene@@$07@@UAEHAAVCStructureSaver@@@Z
??I?$COrdinarySyncDst@UIVisObj@NWorld@@VCAIMap@NAI@@@@QAEHAAVCStructureSaver@@@Z
??I?$COrdinarySyncDst@UIVisObj@NWorld@@VCSetRender@NRender@@@@QAEHAAVCStructureSaver@@@Z
??I?$CParticlesGeometry@USGeomVecFull@NGfx@@@NGScene@@UAEHAAVCStructureSaver@@@Z
??I?$CParticlesGeometry@USGeomVecT1C1@NGfx@@@NGScene@@UAEHAAVCStructureSaver@@@Z
??I?$CPlayerBase@VCUnitServer@NWorld@@VCCommander@2@@NWorld@@QAEHAAVCStructureSaver@@@Z
??I?$CPlayerBaseVision@VCUnitServer@NWorld@@@NWorld@@QAEHAAVCStructureSaver@@@Z
??I?$CResourceLoader@HVCAnimLightInfo@NGScene@@@NGScene@@UAEHAAVCStructureSaver@@@Z
??I?$CResourceLoader@HVCBuildInfo@NBuilding@@@NGScene@@UAEHAAVCStructureSaver@@@Z
??I?$CResourceLoader@HVCChapterInfo@@@NGScene@@UAEHAAVCStructureSaver@@@Z
??I?$CResourceLoader@HVCCubeTexture@NGfx@@@NGScene@@UAEHAAVCStructureSaver@@@Z
??I?$CResourceLoader@HVCFileAnimationInfo@NAnimation@@@NGScene@@UAEHAAVCStructureSaver@@@Z
??I?$CResourceLoader@HVCFileBindInfo@NGScene@@@NGScene@@UAEHAAVCStructureSaver@@@Z
??I?$CResourceLoader@HVCFileSkeletonInfo@NAnimation@@@NGScene@@UAEHAAVCStructureSaver@@@Z
??I?$CResourceLoader@HVCFileSkinPoints@NAI@@@NGScene@@UAEHAAVCStructureSaver@@@Z
??I?$CResourceLoader@HVCFontFormatInfo@@@NGScene@@UAEHAAVCStructureSaver@@@Z
??I?$CResourceLoader@HVCGeometryInfo@NAI@@@NGScene@@UAEHAAVCStructureSaver@@@Z
??I?$CResourceLoader@HVCGlobalInfo@@@NGScene@@UAEHAAVCStructureSaver@@@Z
??I?$CResourceLoader@HVCHeadMeshInfo@NLSHead@@@NGScene@@UAEHAAVCStructureSaver@@@Z
??I?$CResourceLoader@HVCHeadSequenceInfo@NLSHead@@@NGScene@@UAEHAAVCStructureSaver@@@Z
??I?$CResourceLoader@HVCMETerrainInfo@@@NGScene@@UAEHAAVCStructureSaver@@@Z
??I?$CResourceLoader@HVCParticlesInfo@NGScene@@@NGScene@@UAEHAAVCStructureSaver@@@Z
??I?$CResourceLoader@HVCSWTextureData@NGScene@@@NGScene@@UAEHAAVCStructureSaver@@@Z
??I?$CResourceLoader@HVCSample2D@NFMSound@@@NGScene@@UAEHAAVCStructureSaver@@@Z
??I?$CResourceLoader@HVCSample3D@NFMSound@@@NGScene@@UAEHAAVCStructureSaver@@@Z
??I?$CResourceLoader@HVCTwoBSPTrees@NAI@@@NGScene@@UAEHAAVCStructureSaver@@@Z
??I?$CResourceLoader@HVCUnitAIInfo@NAI@@@NGScene@@UAEHAAVCStructureSaver@@@Z
??I?$CResourceLoader@HVCWaypoint@NAI@@@NGScene@@UAEHAAVCStructureSaver@@@Z
??I?$CResourceLoader@USPartKey@NGScene@@VCObjectInfo@2@@NGScene@@UAEHAAVCStructureSaver@@@Z
??I?$CResourceLoader@USPartKey@NGScene@@VCObjectInfoPieces@2@@NGScene@@UAEHAAVCStructureSaver@@@Z
??I?$CResourceLoader@USTextureKey@NGScene@@VCTexture@NGfx@@@NGScene@@UAEHAAVCStructureSaver@@@Z
??I?$CResourcePrecache@VCBuildInfoLoader@NBuilding@@@NGScene@@EAEHAAVCStructureSaver@@@Z
??I?$CResourcePrecache@VCFileAIBind@NGScene@@@NGScene@@EAEHAAVCStructureSaver@@@Z
??I?$CResourcePrecache@VCFileAnimation@NAnimation@@@NGScene@@EAEHAAVCStructureSaver@@@Z
??I?$CResourcePrecache@VCFileBind@NGScene@@@NGScene@@EAEHAAVCStructureSaver@@@Z
??I?$CResourcePrecache@VCFileSkeleton@NAnimation@@@NGScene@@EAEHAAVCStructureSaver@@@Z
??I?$CResourcePrecache@VCFileSkinPointsLoad@NAI@@@NGScene@@EAEHAAVCStructureSaver@@@Z
??I?$CResourcePrecache@VCLoadGeometryInfo@NAI@@@NGScene@@EAEHAAVCStructureSaver@@@Z
??I?$CResourcePrecache@VCObjectInfoLoader@NGScene@@@NGScene@@EAEHAAVCStructureSaver@@@Z
??I?$CScenarioFlowChartItemsList@VCScenarioClue@NScenario@@@NScenario@@EAEHAAVCStructureSaver@@@Z
??I?$CScenarioFlowChartItemsList@VCScenarioZone@NScenario@@@NScenario@@EAEHAAVCStructureSaver@@@Z
??I?$CScrollWindow@VCListView@NUI@@@NUI@@EAEHAAVCStructureSaver@@@Z
??I?$CScrollWindow@VCMLText@NUI@@@NUI@@EAEHAAVCStructureSaver@@@Z
??I?$CSet@VCPerk@NRPG@@@NWorld@@QAEHAAVCStructureSaver@@@Z
??I?$CSet@VCUnitServer@NWorld@@@NWorld@@QAEHAAVCStructureSaver@@@Z
??I?$CSetSyncSrc@UIVisObj@NWorld@@@@EAEHAAVCStructureSaver@@@Z
??I?$CShortPtrAllocator@USElement@?$CGatheringCache@VCShortPtrAllocator@NCache@@VCFibElement@2@VCUserGeometry@NGfx@@@NCache@@@NCache@@QAEHAAVCStructureSaver@@@Z
??I?$CShortPtrAllocator@USElement@?$CGatheringCache@VCShortPtrAllocator@NCache@@VCQuadTreeElement@2@VCTexture@NGfx@@@NCache@@@NCache@@QAEHAAVCStructureSaver@@@Z
??I?$CSomeItem@VCRPGKey@NDb@@VIKeyItem@NRPG@@@NRPG@@$4PPPPPPPM@A@AEHAAVCStructureSaver@@@Z
??I?$CSomeItem@VCRPGKey@NDb@@VIKeyItem@NRPG@@@NRPG@@UAEHAAVCStructureSaver@@@Z
??I?$CSomeItem@VCRPGMine@NDb@@VIMineItem@NRPG@@@NRPG@@$4PPPPPPPM@A@AEHAAVCStructureSaver@@@Z
??I?$CSomeItem@VCRPGMine@NDb@@VIMineItem@NRPG@@@NRPG@@UAEHAAVCStructureSaver@@@Z
??I?$CSomeItem@VCRPGMineDetector@NDb@@VIMineDetectorItem@NRPG@@@NRPG@@$4PPPPPPPM@A@AEHAAVCStructureSaver@@@Z
??I?$CSomeItem@VCRPGMineDetector@NDb@@VIMineDetectorItem@NRPG@@@NRPG@@UAEHAAVCStructureSaver@@@Z
??I?$CSyncDst@UIVisObj@NWorld@@@@QAEHAAVCStructureSaver@@@Z
??I?$CSyncSrc@UIVisObj@NWorld@@@@UAEHAAVCStructureSaver@@@Z
??I?$CSyncSrcBind@UIVisObj@NWorld@@@@QAEHAAVCStructureSaver@@@Z
??I?$CTBSUnitVision@VCUnitServer@NWorld@@VCPlayer@2@@NWorld@@QAEHAAVCStructureSaver@@@Z
??I?$CTBSWorld@VCUnitServer@NWorld@@VCPlayer@2@VCCommander@2@@NWorld@@QAEHAAVCStructureSaver@@@Z
??I?$SAISound@VCUnitServer@NWorld@@@NWorld@@QAEHAAVCStructureSaver@@@Z
??I?$TKeyVector@M@NGScene@@QAEHAAVCStructureSaver@@@Z
??I?$TKeyVector@VCVec3@@@NGScene@@QAEHAAVCStructureSaver@@@Z
??IC2DGameView@NGScene@@EAEHAAVCStructureSaver@@@Z
??IC2DScene@NGScene@@EAEHAAVCStructureSaver@@@Z
??IC3DSound@NWorld@@$0PPPPPPPM@A@AEHAAVCStructureSaver@@@Z
??IC3DSound@NWorld@@EAEHAAVCStructureSaver@@@Z
??ICAAdder@NAnimation@@UAEHAAVCStructureSaver@@@Z
??ICABoneFilter@NAnimation@@UAEHAAVCStructureSaver@@@Z
??ICAFunctionConstant@NAnimation@@UAEHAAVCStructureSaver@@@Z
??ICAFunctionCos@NAnimation@@UAEHAAVCStructureSaver@@@Z
??ICAFunctionLinear@NAnimation@@UAEHAAVCStructureSaver@@@Z
??ICAFunctionParabola@NAnimation@@UAEHAAVCStructureSaver@@@Z
??ICAFunctionPathDirection@NAnimation@@UAEHAAVCStructureSaver@@@Z
??ICAFunctionSinus@NAnimation@@UAEHAAVCStructureSaver@@@Z
??ICAFunctionSum@NAnimation@@UAEHAAVCStructureSaver@@@Z
??ICAIAction@NAI@@UAEHAAVCStructureSaver@@@Z
??ICAIActionIterator@NAI@@EAEHAAVCStructureSaver@@@Z
??ICAIChoosePlaceForActionsJob@NAI@@EAEHAAVCStructureSaver@@@Z
??ICAICommander@NAI@@EAEHAAVCStructureSaver@@@Z
??ICAIControl@NAI@@UAEHAAVCStructureSaver@@@Z
??ICAICorpseSignal@NAI@@EAEHAAVCStructureSaver@@@Z
??ICAIFindGoodPlacesJob@NAI@@EAEHAAVCStructureSaver@@@Z
??ICAIFireArmsWeapon@NAI@@EAEHAAVCStructureSaver@@@Z
??ICAIFireArmsWeaponClip@NAI@@EAEHAAVCStructureSaver@@@Z
??ICAIGeometryConverter@NGScene@@EAEHAAVCStructureSaver@@@Z
??ICAIGrenadeSoundSignal@NAI@@EAEHAAVCStructureSaver@@@Z
??ICAIHitSignal@NAI@@EAEHAAVCStructureSaver@@@Z
??ICAIInventory@NAI@@EAEHAAVCStructureSaver@@@Z
??ICAIIterator@NAI@@UAEHAAVCStructureSaver@@@Z
??ICAIJob@NAI@@UAEHAAVCStructureSaver@@@Z
??ICAIJobManager@NAI@@EAEHAAVCStructureSaver@@@Z
??ICAIK2Chain@NAnimation@@UAEHAAVCStructureSaver@@@Z
??ICAILaunchRocketAction@NAI@@EAEHAAVCStructureSaver@@@Z
??ICAILogAddWeapon@NAI@@EAEHAAVCStructureSaver@@@Z
??ICAILogAddWeaponClip@NAI@@EAEHAAVCStructureSaver@@@Z
??ICAILogChangeMaxToHit@NAI@@EAEHAAVCStructureSaver@@@Z
??ICAILogChangeShootMode@NAI@@EAEHAAVCStructureSaver@@@Z
??ICAILogChangeWeapon@NAI@@EAEHAAVCStructureSaver@@@Z
??ICAILogContainer@NAI@@EAEHAAVCStructureSaver@@@Z
??ICAILogDropItem@NAI@@EAEHAAVCStructureSaver@@@Z
??ICAILogExpediency@NAI@@EAEHAAVCStructureSaver@@@Z
??ICAILogHide@NAI@@EAEHAAVCStructureSaver@@@Z
??ICAILogHurt@NAI@@EAEHAAVCStructureSaver@@@Z
??ICAILogPickUpItem@NAI@@EAEHAAVCStructureSaver@@@Z
??ICAILogPosition@NAI@@EAEHAAVCStructureSaver@@@Z
??ICAILogRecord@NAI@@UAEHAAVCStructureSaver@@@Z
??ICAILogReloadWeapon@NAI@@EAEHAAVCStructureSaver@@@Z
??ICAILogShot@NAI@@EAEHAAVCStructureSaver@@@Z
??ICAILogShotPoint@NAI@@EAEHAAVCStructureSaver@@@Z
??ICAILogSpendAP@NAI@@EAEHAAVCStructureSaver@@@Z
??ICAILogSpendAmmo@NAI@@EAEHAAVCStructureSaver@@@Z
??ICAILogSpendHP@NAI@@EAEHAAVCStructureSaver@@@Z
??ICAILogThrowGrenade@NAI@@EAEHAAVCStructureSaver@@@Z
??ICAILogic@NAI@@UAEHAAVCStructureSaver@@@Z
??ICAILogicAttack@NAI@@EAEHAAVCStructureSaver@@@Z
??ICAIMap@NAI@@EAEHAAVCStructureSaver@@@Z
??ICAINumberIterator@NAI@@UAEHAAVCStructureSaver@@@Z
??ICAIOneSegmentSignal@NAI@@UAEHAAVCStructureSaver@@@Z
??ICAIPlayer@NAI@@EAEHAAVCStructureSaver@@@Z
??ICAIPositionIterator@NAI@@EAEHAAVCStructureSaver@@@Z
??ICAIRevealEnemySignal@NAI@@EAEHAAVCStructureSaver@@@Z
??ICAIRoute@NAI@@EAEHAAVCStructureSaver@@@Z
??ICAIRouteWaypoint@NAI@@UAEHAAVCStructureSaver@@@Z
??ICAIShootAction@NAI@@EAEHAAVCStructureSaver@@@Z
??ICAIShootSignal@NAI@@EAEHAAVCStructureSaver@@@Z
??ICAISignal@NAI@@UAEHAAVCStructureSaver@@@Z
??ICAISignalManager@NAI@@EAEHAAVCStructureSaver@@@Z
??ICAISkinObjectConverter@NGScene@@EAEHAAVCStructureSaver@@@Z
??ICAISoundSignal@NAI@@EAEHAAVCStructureSaver@@@Z
??ICAIState@NAI@@EAEHAAVCStructureSaver@@@Z
??ICAITacticalCommander@NAI@@EAEHAAVCStructureSaver@@@Z
??ICAITacticalControl@NAI@@EAEHAAVCStructureSaver@@@Z
??ICAITaskCommander@NAI@@EAEHAAVCStructureSaver@@@Z
??ICAITaskControl@NAI@@EAEHAAVCStructureSaver@@@Z
??ICAIThrowGrenadeAction@NAI@@EAEHAAVCStructureSaver@@@Z
??ICAIUnit@NAI@@EAEHAAVCStructureSaver@@@Z
??ICAIUnitIterator@NAI@@EAEHAAVCStructureSaver@@@Z
??ICAIUnitNoWeaponToHitCalcer@NRPG@@UAEHAAVCStructureSaver@@@Z
??ICAIUnitSoundSignal@NAI@@EAEHAAVCStructureSaver@@@Z
??ICAIUnitToHitCalcer@NRPG@@UAEHAAVCStructureSaver@@@Z
??ICAIViewer@@EAEHAAVCStructureSaver@@@Z
??ICAInterpolator@NAnimation@@UAEHAAVCStructureSaver@@@Z
??ICAParticle@NAnimation@@UAEHAAVCStructureSaver@@@Z
??ICAPoseAimer@NAnimation@@UAEHAAVCStructureSaver@@@Z
??ICAPoseMemorizer@NAnimation@@UAEHAAVCStructureSaver@@@Z
??ICARandom@NAnimation@@EAEHAAVCStructureSaver@@@Z
??ICASequence@NAnimation@@UAEHAAVCStructureSaver@@@Z
??ICASmartAimer@NAnimation@@UAEHAAVCStructureSaver@@@Z
??ICASphereSet@NAnimation@@EAEHAAVCStructureSaver@@@Z
??ICASubtractor@NAnimation@@UAEHAAVCStructureSaver@@@Z
??ICATerrain@NAnimation@@UAEHAAVCStructureSaver@@@Z
??ICATerrainCrawl@NAnimation@@UAEHAAVCStructureSaver@@@Z
??ICATerrainSimple@NAnimation@@UAEHAAVCStructureSaver@@@Z
??ICATrailPath@NAnimation@@EAEHAAVCStructureSaver@@@Z
??ICATurnBody@NAnimation@@UAEHAAVCStructureSaver@@@Z
??ICAckAccidentallyWoundFriend@NWorld@@$0PPPPPPPM@A@AEHAAVCStructureSaver@@@Z
??ICAckAccidentallyWoundFriend@NWorld@@EAEHAAVCStructureSaver@@@Z
??ICAckBase@NWorld@@$4PPPPPPPM@A@AEHAAVCStructureSaver@@@Z
??ICAckBase@NWorld@@UAEHAAVCStructureSaver@@@Z
??ICAckCannotFinishHeal@NWorld@@$0PPPPPPPM@A@AEHAAVCStructureSaver@@@Z
??ICAckCannotFinishHeal@NWorld@@EAEHAAVCStructureSaver@@@Z
??ICAckCertainTypeEnemyBecomesVisible@NWorld@@$0PPPPPPPM@A@AEHAAVCStructureSaver@@@Z
??ICAckCertainTypeEnemyBecomesVisible@NWorld@@EAEHAAVCStructureSaver@@@Z
??ICAckEnemyBecomesVisible@NWorld@@$0PPPPPPPM@A@AEHAAVCStructureSaver@@@Z
??ICAckEnemyBecomesVisible@NWorld@@EAEHAAVCStructureSaver@@@Z
??ICAckEnemyBecomesVisibleInRealtime@NWorld@@$0PPPPPPPM@A@AEHAAVCStructureSaver@@@Z
??ICAckEnemyBecomesVisibleInRealtime@NWorld@@EAEHAAVCStructureSaver@@@Z
??ICAckEnemyBecomesVisibleInTurnbased@NWorld@@$0PPPPPPPM@A@AEHAAVCStructureSaver@@@Z
??ICAckEnemyBecomesVisibleInTurnbased@NWorld@@EAEHAAVCStructureSaver@@@Z
??ICAckEnemyHasBeenInfictedCritical@NWorld@@$0PPPPPPPM@A@AEHAAVCStructureSaver@@@Z
??ICAckEnemyHasBeenInfictedCritical@NWorld@@EAEHAAVCStructureSaver@@@Z
??ICAckEnemyMissedTarget@NWorld@@$0PPPPPPPM@A@AEHAAVCStructureSaver@@@Z
??ICAckEnemyMissedTarget@NWorld@@EAEHAAVCStructureSaver@@@Z
??ICAckEvent@NUI@@EAEHAAVCStructureSaver@@@Z
??ICAckEvent@NWorld@@UAEHAAVCStructureSaver@@@Z
??ICAckFriendDies@NWorld@@$0PPPPPPPM@A@AEHAAVCStructureSaver@@@Z
??ICAckFriendDies@NWorld@@EAEHAAVCStructureSaver@@@Z
??ICAckFriendGrenadeDestroysALotOfObjects@NWorld@@$0PPPPPPPM@A@AEHAAVCStructureSaver@@@Z
??ICAckFriendGrenadeDestroysALotOfObjects@NWorld@@EAEHAAVCStructureSaver@@@Z
??ICAckFriendGrenadeKillsMoreThanOneEnemy@NWorld@@$0PPPPPPPM@A@AEHAAVCStructureSaver@@@Z
??ICAckFriendGrenadeKillsMoreThanOneEnemy@NWorld@@EAEHAAVCStructureSaver@@@Z
??ICAckFriendInflictsCriticalDamageToEnemy@NWorld@@$0PPPPPPPM@A@AEHAAVCStructureSaver@@@Z
??ICAckFriendInflictsCriticalDamageToEnemy@NWorld@@EAEHAAVCStructureSaver@@@Z
??ICAckFriendTargetMissed@NWorld@@$0PPPPPPPM@A@AEHAAVCStructureSaver@@@Z
??ICAckFriendTargetMissed@NWorld@@EAEHAAVCStructureSaver@@@Z
??ICAckGrenadeDestroysALotOfObjects@NWorld@@$0PPPPPPPM@A@AEHAAVCStructureSaver@@@Z
??ICAckGrenadeDestroysALotOfObjects@NWorld@@EAEHAAVCStructureSaver@@@Z
??ICAckGrenadeKillsMoreThanOneEnemy@NWorld@@$0PPPPPPPM@A@AEHAAVCStructureSaver@@@Z
??ICAckGrenadeKillsMoreThanOneEnemy@NWorld@@EAEHAAVCStructureSaver@@@Z
??ICAckHardTargetHit@NWorld@@$0PPPPPPPM@A@AEHAAVCStructureSaver@@@Z
??ICAckHardTargetHit@NWorld@@EAEHAAVCStructureSaver@@@Z
??ICAckHealOfFriendFinished@NWorld@@$0PPPPPPPM@A@AEHAAVCStructureSaver@@@Z
??ICAckHealOfFriendFinished@NWorld@@EAEHAAVCStructureSaver@@@Z
??ICAckIcon@NUI@@EAEHAAVCStructureSaver@@@Z
??ICAckImpossibleToPerformAction@NWorld@@$0PPPPPPPM@A@AEHAAVCStructureSaver@@@Z
??ICAckImpossibleToPerformAction@NWorld@@EAEHAAVCStructureSaver@@@Z
??ICAckInflictCriticalDamageToEnemy@NWorld@@$0PPPPPPPM@A@AEHAAVCStructureSaver@@@Z
??ICAckInflictCriticalDamageToEnemy@NWorld@@EAEHAAVCStructureSaver@@@Z
??ICAckInterruptedEnemy@NWorld@@$0PPPPPPPM@A@AEHAAVCStructureSaver@@@Z
??ICAckInterruptedEnemy@NWorld@@EAEHAAVCStructureSaver@@@Z
??ICAckKilledAnEnemy@NWorld@@$0PPPPPPPM@A@AEHAAVCStructureSaver@@@Z
??ICAckKilledAnEnemy@NWorld@@EAEHAAVCStructureSaver@@@Z
??ICAckKilledCertainTypeEnemy@NWorld@@$0PPPPPPPM@A@AEHAAVCStructureSaver@@@Z
??ICAckKilledCertainTypeEnemy@NWorld@@EAEHAAVCStructureSaver@@@Z
??ICAckKillingNthEnemyInARow@NWorld@@$0PPPPPPPM@A@AEHAAVCStructureSaver@@@Z
??ICAckKillingNthEnemyInARow@NWorld@@EAEHAAVCStructureSaver@@@Z
??ICAckLastPieceOfAmmo@NWorld@@$0PPPPPPPM@A@AEHAAVCStructureSaver@@@Z
??ICAckLastPieceOfAmmo@NWorld@@EAEHAAVCStructureSaver@@@Z
??ICAckLongBurst@NWorld@@$0PPPPPPPM@A@AEHAAVCStructureSaver@@@Z
??ICAckLongBurst@NWorld@@EAEHAAVCStructureSaver@@@Z
??ICAckNthUnitWasKilled@NWorld@@$0PPPPPPPM@A@AEHAAVCStructureSaver@@@Z
??ICAckNthUnitWasKilled@NWorld@@EAEHAAVCStructureSaver@@@Z
??ICAckOrderConfirmation@NWorld@@$0PPPPPPPM@A@AEHAAVCStructureSaver@@@Z
??ICAckOrderConfirmation@NWorld@@EAEHAAVCStructureSaver@@@Z
??ICAckPCSufferCriticalDamage@NWorld@@$0PPPPPPPM@A@AEHAAVCStructureSaver@@@Z
??ICAckPCSufferCriticalDamage@NWorld@@EAEHAAVCStructureSaver@@@Z
??ICAckSelfHealFinished@NWorld@@$0PPPPPPPM@A@AEHAAVCStructureSaver@@@Z
??ICAckSelfHealFinished@NWorld@@EAEHAAVCStructureSaver@@@Z
??ICAckSkillIncreased@NWorld@@$0PPPPPPPM@A@AEHAAVCStructureSaver@@@Z
??ICAckSkillIncreased@NWorld@@EAEHAAVCStructureSaver@@@Z
??ICAckStrongEnemyBecomesVisible@NWorld@@$0PPPPPPPM@A@AEHAAVCStructureSaver@@@Z
??ICAckStrongEnemyBecomesVisible@NWorld@@EAEHAAVCStructureSaver@@@Z
??ICAckSuffersHardDamage@NWorld@@$0PPPPPPPM@A@AEHAAVCStructureSaver@@@Z
??ICAckSuffersHardDamage@NWorld@@EAEHAAVCStructureSaver@@@Z
??ICAckSuffersLightDamage@NWorld@@$0PPPPPPPM@A@AEHAAVCStructureSaver@@@Z
??ICAckSuffersLightDamage@NWorld@@EAEHAAVCStructureSaver@@@Z
??ICAckTargetHit@NWorld@@$0PPPPPPPM@A@AEHAAVCStructureSaver@@@Z
??ICAckTargetHit@NWorld@@EAEHAAVCStructureSaver@@@Z
??ICAckTargetMissed@NWorld@@$0PPPPPPPM@A@AEHAAVCStructureSaver@@@Z
??ICAckTargetMissed@NWorld@@EAEHAAVCStructureSaver@@@Z
??ICAckUnhide@NWorld@@$0PPPPPPPM@A@AEHAAVCStructureSaver@@@Z
??ICAckUnhide@NWorld@@EAEHAAVCStructureSaver@@@Z
??ICAckUnitDied@NWorld@@$0PPPPPPPM@A@AEHAAVCStructureSaver@@@Z
??ICAckUnitDied@NWorld@@EAEHAAVCStructureSaver@@@Z
??ICAckWeakEnemyBecomesVisible@NWorld@@$0PPPPPPPM@A@AEHAAVCStructureSaver@@@Z
??ICAckWeakEnemyBecomesVisible@NWorld@@EAEHAAVCStructureSaver@@@Z
??ICAckWeaponJammed@NWorld@@$0PPPPPPPM@A@AEHAAVCStructureSaver@@@Z
??ICAckWeaponJammed@NWorld@@EAEHAAVCStructureSaver@@@Z
??ICAddBoneFilter@NAnimation@@EAEHAAVCStructureSaver@@@Z
??ICAddBoneLocators@NAnimation@@UAEHAAVCStructureSaver@@@Z
??ICAlienMaterial@NGScene@@EAEHAAVCStructureSaver@@@Z
??ICAmmoItem@NRPG@@$0PPPPPPPM@A@AEHAAVCStructureSaver@@@Z
??ICAmmoItem@NRPG@@EAEHAAVCStructureSaver@@@Z
??ICAnimObjectServer@NWorld@@$0PPPPPPPM@A@AEHAAVCStructureSaver@@@Z
??ICAnimObjectServer@NWorld@@EAEHAAVCStructureSaver@@@Z
??ICAnimObjectServerBase@NWorld@@$4PPPPPPPM@A@AEHAAVCStructureSaver@@@Z
??ICAnimObjectServerBase@NWorld@@UAEHAAVCStructureSaver@@@Z
??ICAnimPassageObject@NWorld@@$0PPPPPPPM@A@AEHAAVCStructureSaver@@@Z
??ICAnimPassageObject@NWorld@@EAEHAAVCStructureSaver@@@Z
??ICAnimUnitView@NUI@@EAEHAAVCStructureSaver@@@Z
??ICAnimatedPart@NGScene@@EAEHAAVCStructureSaver@@@Z
??ICAnimation@NAnimation@@EAEHAAVCStructureSaver@@@Z
??ICAnimator@NAnimation@@UAEHAAVCStructureSaver@@@Z
??ICAttackPortion@NRPG@@QAEHAAVCStructureSaver@@@Z
??ICAudioOptionsUI@NUI@@EAEHAAVCStructureSaver@@@Z
??ICAutomaticCombiner@NGScene@@UAEHAAVCStructureSaver@@@Z
??ICBOTTOMHandler@NUI@@EAEHAAVCStructureSaver@@@Z
??ICBRHandler@NUI@@EAEHAAVCStructureSaver@@@Z
??ICBSPTree@NAI@@EAEHAAVCStructureSaver@@@Z
??ICBackPackSlot@NUI@@EAEHAAVCStructureSaver@@@Z
??ICBaseCamera@@UAEHAAVCStructureSaver@@@Z
??ICBaseParticlesGeometry@NGScene@@UAEHAAVCStructureSaver@@@Z
??ICBaseView@NUI@@UAEHAAVCStructureSaver@@@Z
??ICBilinearTexture@NGScene@@EAEHAAVCStructureSaver@@@Z
??ICBind@NGScene@@UAEHAAVCStructureSaver@@@Z
??ICBleedingCritical@NRPG@@UAEHAAVCStructureSaver@@@Z
??ICBlindCritical@NRPG@@UAEHAAVCStructureSaver@@@Z
??ICBuildInfo@NBuilding@@UAEHAAVCStructureSaver@@@Z
??ICBuilder@NTerrain@@EAEHAAVCStructureSaver@@@Z
??ICBuilding@NGScene@@EAEHAAVCStructureSaver@@@Z
??ICBuilding@NRPG@@EAEHAAVCStructureSaver@@@Z
??ICBuilding@NWorld@@$4PPPPPPPM@A@AEHAAVCStructureSaver@@@Z
??ICBuilding@NWorld@@UAEHAAVCStructureSaver@@@Z
??ICBuildingGrid@NBuilding@@EAEHAAVCStructureSaver@@@Z
??ICBuildingInfoHold@NBuilding@@UAEHAAVCStructureSaver@@@Z
??ICBuildingPart@NWorld@@$4PPPPPPPM@A@AEHAAVCStructureSaver@@@Z
??ICBuildingPart@NWorld@@UAEHAAVCStructureSaver@@@Z
??ICBulletServer@NWorld@@$0PPPPPPPM@A@AEHAAVCStructureSaver@@@Z
??ICBulletServer@NWorld@@EAEHAAVCStructureSaver@@@Z
??ICButton@NUI@@UAEHAAVCStructureSaver@@@Z
??ICButtonsPanel@NUI@@EAEHAAVCStructureSaver@@@Z
??ICCENTERHandler@NUI@@EAEHAAVCStructureSaver@@@Z
??ICCFBTransform@NGScene@@UAEHAAVCStructureSaver@@@Z
??ICCFloat@NGScene@@UAEHAAVCStructureSaver@@@Z
??ICCInt@NGScene@@UAEHAAVCStructureSaver@@@Z
??ICCMSR@NGScene@@UAEHAAVCStructureSaver@@@Z
??ICCOLORHandler@NUI@@EAEHAAVCStructureSaver@@@Z
??ICCRectLayout@NGScene@@UAEHAAVCStructureSaver@@@Z
??ICCSWRectLayout@NGScene@@UAEHAAVCStructureSaver@@@Z
??ICCTPoint@NGScene@@UAEHAAVCStructureSaver@@@Z
??ICCTRect@NGScene@@UAEHAAVCStructureSaver@@@Z
??ICCTerrainInfo@@UAEHAAVCStructureSaver@@@Z
??ICCTime@@UAEHAAVCStructureSaver@@@Z
??ICCVec2@NGScene@@UAEHAAVCStructureSaver@@@Z
??ICCVec3@NGScene@@UAEHAAVCStructureSaver@@@Z
??ICCVec4@NGScene@@UAEHAAVCStructureSaver@@@Z
??ICCWString@NGScene@@UAEHAAVCStructureSaver@@@Z
??ICCamera@@EAEHAAVCStructureSaver@@@Z
??ICCannon@NWorld@@$0PPPPPPPM@A@AEHAAVCStructureSaver@@@Z
??ICCannon@NWorld@@EAEHAAVCStructureSaver@@@Z
??ICChapterInfo@@UAEHAAVCStructureSaver@@@Z
??ICChapterMap@NGame@@EAEHAAVCStructureSaver@@@Z
??ICChapterMapUI@NUI@@EAEHAAVCStructureSaver@@@Z
??ICChapterSector@NUI@@UAEHAAVCStructureSaver@@@Z
??ICCharGenMenuInterface@NGame@@EAEHAAVCStructureSaver@@@Z
??ICCharGenUI@NUI@@EAEHAAVCStructureSaver@@@Z
??ICCharacterPanel@NUI@@EAEHAAVCStructureSaver@@@Z
??ICCheckButton@NUI@@UAEHAAVCStructureSaver@@@Z
??ICClickOfDeath@NWorld@@$0PPPPPPPM@A@AEHAAVCStructureSaver@@@Z
??ICClickOfDeath@NWorld@@EAEHAAVCStructureSaver@@@Z
??ICClipItem@NRPG@@$4PPPPPPPM@A@AEHAAVCStructureSaver@@@Z
??ICClipItem@NRPG@@UAEHAAVCStructureSaver@@@Z
??ICClipper@NGScene@@UAEHAAVCStructureSaver@@@Z
??ICClueItem@NRPG@@$0PPPPPPPM@A@AEHAAVCStructureSaver@@@Z
??ICClueItem@NRPG@@EAEHAAVCStructureSaver@@@Z
??ICCluesInterface@NGame@@EAEHAAVCStructureSaver@@@Z
??ICCluesItem@NUI@@EAEHAAVCStructureSaver@@@Z
??ICCluesUI@NUI@@EAEHAAVCStructureSaver@@@Z
??ICCmdActivateItem@NWorld@@UAEHAAVCStructureSaver@@@Z
??ICCmdAddUnit@NWorld@@UAEHAAVCStructureSaver@@@Z
??ICCmdCallScriptFunction@NWorld@@UAEHAAVCStructureSaver@@@Z
??ICCmdCannon@NWorld@@UAEHAAVCStructureSaver@@@Z
??ICCmdCheat@NWorld@@UAEHAAVCStructureSaver@@@Z
??ICCmdClimb@NWorld@@UAEHAAVCStructureSaver@@@Z
??ICCmdCollectSnipeAP@NWorld@@UAEHAAVCStructureSaver@@@Z
??ICCmdCreateInventoryItem@NWorld@@EAEHAAVCStructureSaver@@@Z
??ICCmdDeactivateItem@NWorld@@UAEHAAVCStructureSaver@@@Z
??ICCmdDropCorpse@NWorld@@UAEHAAVCStructureSaver@@@Z
??ICCmdEndMove@NWorld@@UAEHAAVCStructureSaver@@@Z
??ICCmdEnterLadder@NWorld@@UAEHAAVCStructureSaver@@@Z
??ICCmdExitCannon@NWorld@@UAEHAAVCStructureSaver@@@Z
??ICCmdExitPK@NWorld@@UAEHAAVCStructureSaver@@@Z
??ICCmdGrenadeMode@NWorld@@UAEHAAVCStructureSaver@@@Z
??ICCmdHeal@NWorld@@UAEHAAVCStructureSaver@@@Z
??ICCmdHide@NWorld@@EAEHAAVCStructureSaver@@@Z
??ICCmdInterfaceEvent@NWorld@@UAEHAAVCStructureSaver@@@Z
??ICCmdJump@NWorld@@UAEHAAVCStructureSaver@@@Z
??ICCmdLeaveLadder@NWorld@@UAEHAAVCStructureSaver@@@Z
??ICCmdLoadWeapon@NWorld@@EAEHAAVCStructureSaver@@@Z
??ICCmdLook@NWorld@@UAEHAAVCStructureSaver@@@Z
??ICCmdMove@NWorld@@UAEHAAVCStructureSaver@@@Z
??ICCmdMoveInventoryItem@NWorld@@EAEHAAVCStructureSaver@@@Z
??ICCmdOpenClose@NWorld@@UAEHAAVCStructureSaver@@@Z
??ICCmdPath@NWorld@@UAEHAAVCStructureSaver@@@Z
??ICCmdPlayAnimation@NWorld@@UAEHAAVCStructureSaver@@@Z
??ICCmdReload@NWorld@@UAEHAAVCStructureSaver@@@Z
??ICCmdRemoveUnit@NWorld@@UAEHAAVCStructureSaver@@@Z
??ICCmdRotate@NWorld@@UAEHAAVCStructureSaver@@@Z
??ICCmdSetActiveItem@NWorld@@UAEHAAVCStructureSaver@@@Z
??ICCmdSetCommand@NWorld@@EAEHAAVCStructureSaver@@@Z
??ICCmdSetGrenadeOnObject@NWorld@@UAEHAAVCStructureSaver@@@Z
??ICCmdSetMineOnTile@NWorld@@UAEHAAVCStructureSaver@@@Z
??ICCmdShootMode@NWorld@@UAEHAAVCStructureSaver@@@Z
??ICCmdShootObject@NWorld@@UAEHAAVCStructureSaver@@@Z
??ICCmdShootTile@NWorld@@UAEHAAVCStructureSaver@@@Z
??ICCmdSnipeAttack@NWorld@@UAEHAAVCStructureSaver@@@Z
??ICCmdStartCombat@NWorld@@UAEHAAVCStructureSaver@@@Z
??ICCmdStrafe@NWorld@@UAEHAAVCStructureSaver@@@Z
??ICCmdTakeCorpse@NWorld@@UAEHAAVCStructureSaver@@@Z
??ICCmdTakeCorpseOnDeploy@NWorld@@UAEHAAVCStructureSaver@@@Z
??ICCmdTakePerk@NWorld@@EAEHAAVCStructureSaver@@@Z
??ICCmdTalk@NWorld@@UAEHAAVCStructureSaver@@@Z
??ICCmdTeleport@NWorld@@UAEHAAVCStructureSaver@@@Z
??ICCmdTravel@NWorld@@UAEHAAVCStructureSaver@@@Z
??ICCmdUnit@NWorld@@UAEHAAVCStructureSaver@@@Z
??ICCmdUnloadWeapon@NWorld@@EAEHAAVCStructureSaver@@@Z
??ICCmdUntrapObject@NWorld@@UAEHAAVCStructureSaver@@@Z
??ICCmdUsePassage@NWorld@@UAEHAAVCStructureSaver@@@Z
??ICCmdWishPose@NWorld@@UAEHAAVCStructureSaver@@@Z
??ICColorTexture@NGScene@@EAEHAAVCStructureSaver@@@Z
??ICColouredWaysCalcer@NAI@@EAEHAAVCStructureSaver@@@Z
??ICCombinedPart@NGScene@@EAEHAAVCStructureSaver@@@Z
??ICComboBox@NUI@@UAEHAAVCStructureSaver@@@Z
??ICComboBoxItem@NUI@@EAEHAAVCStructureSaver@@@Z
??ICComboBoxList@NUI@@EAEHAAVCStructureSaver@@@Z
??ICCommandExecute@NWorld@@UAEHAAVCStructureSaver@@@Z
??ICCommander@NWorld@@UAEHAAVCStructureSaver@@@Z
??ICComplexButton@NUI@@EAEHAAVCStructureSaver@@@Z
??ICComplexComboBox@NUI@@EAEHAAVCStructureSaver@@@Z
??ICComplexSlider@NUI@@EAEHAAVCStructureSaver@@@Z
??ICComplexTextSlider@NUI@@EAEHAAVCStructureSaver@@@Z
??ICConsole@NUI@@EAEHAAVCStructureSaver@@@Z
??ICControlsOptionsUI@NUI@@EAEHAAVCStructureSaver@@@Z
??ICConvexHull@NAI@@UAEHAAVCStructureSaver@@@Z
??ICCoverInfo@NRPG@@UAEHAAVCStructureSaver@@@Z
??ICCritical@NRPG@@UAEHAAVCStructureSaver@@@Z
??ICCursor@NUI@@MAEHAAVCStructureSaver@@@Z
??ICDBRecord@@UAEHAAVCStructureSaver@@@Z
??ICDFrozenItem@NWorld@@$0PPPPPPPM@A@AEHAAVCStructureSaver@@@Z
??ICDFrozenItem@NWorld@@EAEHAAVCStructureSaver@@@Z
??ICDGrassEvent@NWorld@@$0PPPPPPPM@A@AEHAAVCStructureSaver@@@Z
??ICDGrassEvent@NWorld@@EAEHAAVCStructureSaver@@@Z
??ICDItem@NWorld@@$0PPPPPPPM@A@AEHAAVCStructureSaver@@@Z
??ICDItem@NWorld@@EAEHAAVCStructureSaver@@@Z
??ICDParticles@NWorld@@$0PPPPPPPM@A@AEHAAVCStructureSaver@@@Z
??ICDParticles@NWorld@@EAEHAAVCStructureSaver@@@Z
??ICDeafCritical@NRPG@@UAEHAAVCStructureSaver@@@Z
??ICDebrisController@NWorld@@QAEHAAVCStructureSaver@@@Z
??ICDebrisControllerTrash@NWorld@@UAEHAAVCStructureSaver@@@Z
??ICDecal@NGScene@@EAEHAAVCStructureSaver@@@Z
??ICDecal@NWorld@@$0PPPPPPPM@A@AEHAAVCStructureSaver@@@Z
??ICDecal@NWorld@@EAEHAAVCStructureSaver@@@Z
??ICDecalGeometry@NGScene@@UAEHAAVCStructureSaver@@@Z
??ICDecalTarget@NGScene@@UAEHAAVCStructureSaver@@@Z
??ICDecalsManager@NGScene@@UAEHAAVCStructureSaver@@@Z
??ICDescriptionText@NUI@@EAEHAAVCStructureSaver@@@Z
??ICDesktopWindow@NUI@@UAEHAAVCStructureSaver@@@Z
??ICDirectionalLight@NGScene@@EAEHAAVCStructureSaver@@@Z
??ICDiscretePart@NGScene@@EAEHAAVCStructureSaver@@@Z
??ICDumbUnitServer@NWorld@@$4PPPPPPPM@A@AEHAAVCStructureSaver@@@Z
??ICDumbUnitServer@NWorld@@UAEHAAVCStructureSaver@@@Z
??ICDynamicConvexHull@NAI@@UAEHAAVCStructureSaver@@@Z
??ICDynamicGeometryPart@NGScene@@EAEHAAVCStructureSaver@@@Z
??ICDynamicLightCache@NGScene@@QAEHAAVCStructureSaver@@@Z
??ICDynamicPart@NGScene@@EAEHAAVCStructureSaver@@@Z
??ICDynamicPointLight@NGScene@@EAEHAAVCStructureSaver@@@Z
??ICDynamicSkill@NRPG@@EAEHAAVCStructureSaver@@@Z
??ICEdit@NUI@@UAEHAAVCStructureSaver@@@Z
??ICEmptyOptionsUI@NUI@@UAEHAAVCStructureSaver@@@Z
??ICEnemyIcon@NUI@@EAEHAAVCStructureSaver@@@Z
??ICEnemyTurnProgressBar@NUI@@EAEHAAVCStructureSaver@@@Z
??ICExecArrangeInventory@NWorld@@EAEHAAVCStructureSaver@@@Z
??ICExecAttack@NWorld@@UAEHAAVCStructureSaver@@@Z
??ICExecCannon@NWorld@@EAEHAAVCStructureSaver@@@Z
??ICExecCollectSnipeAP@NWorld@@EAEHAAVCStructureSaver@@@Z
??ICExecCorpse@NWorld@@EAEHAAVCStructureSaver@@@Z
??ICExecCreateInventoryItem@NWorld@@EAEHAAVCStructureSaver@@@Z
??ICExecCriticalLostWeapon@NWorld@@EAEHAAVCStructureSaver@@@Z
??ICExecDisarmMine@NWorld@@EAEHAAVCStructureSaver@@@Z
??ICExecDisarmTrap@NWorld@@EAEHAAVCStructureSaver@@@Z
??ICExecGrenadeMode@NWorld@@EAEHAAVCStructureSaver@@@Z
??ICExecHeal@NWorld@@EAEHAAVCStructureSaver@@@Z
??ICExecHide@NWorld@@EAEHAAVCStructureSaver@@@Z
??ICExecImpossibleToPerformAction@NWorld@@EAEHAAVCStructureSaver@@@Z
??ICExecLaunchRocket@NWorld@@EAEHAAVCStructureSaver@@@Z
??ICExecLoadWeapon@NWorld@@EAEHAAVCStructureSaver@@@Z
??ICExecMelee@NWorld@@UAEHAAVCStructureSaver@@@Z
??ICExecMeleeUnit@NWorld@@EAEHAAVCStructureSaver@@@Z
??ICExecMove@NWorld@@EAEHAAVCStructureSaver@@@Z
??ICExecMoveInventoryItem@NWorld@@EAEHAAVCStructureSaver@@@Z
??ICExecNeedReload@NWorld@@EAEHAAVCStructureSaver@@@Z
??ICExecOpenClose@NWorld@@EAEHAAVCStructureSaver@@@Z
??ICExecOrderConfirmation@NWorld@@EAEHAAVCStructureSaver@@@Z
??ICExecPanzerklein@NWorld@@EAEHAAVCStructureSaver@@@Z
??ICExecPlayAnimation@NWorld@@EAEHAAVCStructureSaver@@@Z
??ICExecQueue@NWorld@@UAEHAAVCStructureSaver@@@Z
??ICExecReload@NWorld@@EAEHAAVCStructureSaver@@@Z
??ICExecSetActiveItem@NWorld@@EAEHAAVCStructureSaver@@@Z
??ICExecSetMine@NWorld@@EAEHAAVCStructureSaver@@@Z
??ICExecSetStrafe@NWorld@@EAEHAAVCStructureSaver@@@Z
??ICExecSetTrap@NWorld@@EAEHAAVCStructureSaver@@@Z
??ICExecSetWishPose@NWorld@@EAEHAAVCStructureSaver@@@Z
??ICExecShoot@NWorld@@UAEHAAVCStructureSaver@@@Z
??ICExecShootMode@NWorld@@EAEHAAVCStructureSaver@@@Z
??ICExecShootTile@NWorld@@EAEHAAVCStructureSaver@@@Z
??ICExecShootUnit@NWorld@@EAEHAAVCStructureSaver@@@Z
??ICExecSnipeAim@NWorld@@EAEHAAVCStructureSaver@@@Z
??ICExecSpendAPAndRegister@NWorld@@EAEHAAVCStructureSaver@@@Z
??ICExecTakeCorpseOnDeploy@NWorld@@EAEHAAVCStructureSaver@@@Z
??ICExecTakePerk@NWorld@@EAEHAAVCStructureSaver@@@Z
??ICExecTalk@NWorld@@EAEHAAVCStructureSaver@@@Z
??ICExecTeleport@NWorld@@EAEHAAVCStructureSaver@@@Z
??ICExecThrowGrenade@NWorld@@EAEHAAVCStructureSaver@@@Z
??ICExecThrowKnife@NWorld@@EAEHAAVCStructureSaver@@@Z
??ICExecUnloadWeapon@NWorld@@EAEHAAVCStructureSaver@@@Z
??ICExecUsePassage@NWorld@@EAEHAAVCStructureSaver@@@Z
??ICExecWeaponJammed@NWorld@@EAEHAAVCStructureSaver@@@Z
??ICExitMenuInterface@NGame@@EAEHAAVCStructureSaver@@@Z
??ICExitMenuUI@NUI@@EAEHAAVCStructureSaver@@@Z
??ICExitZoneSector@NUI@@EAEHAAVCStructureSaver@@@Z
??ICExplCube@NWorld@@UAEHAAVCStructureSaver@@@Z
??ICExplosionAnimator@NGScene@@UAEHAAVCStructureSaver@@@Z
??ICExplosionDecalGeometry@NGScene@@UAEHAAVCStructureSaver@@@Z
??ICExplosionDecalMaterial@NGScene@@EAEHAAVCStructureSaver@@@Z
??ICExtractTranslation@NGScene@@EAEHAAVCStructureSaver@@@Z
??ICFBTransform@@UAEHAAVCStructureSaver@@@Z
??ICFONTHandler@NUI@@EAEHAAVCStructureSaver@@@Z
??ICFPCamera@@EAEHAAVCStructureSaver@@@Z
??ICFaceGenMenuInterface@NGame@@EAEHAAVCStructureSaver@@@Z
??ICFaceGenScroll@NUI@@EAEHAAVCStructureSaver@@@Z
??ICFaceGenUI@NUI@@EAEHAAVCStructureSaver@@@Z
??ICFakeParticleLMTexture@NGScene@@EAEHAAVCStructureSaver@@@Z
??ICFakeRPGUnit@NRender@@$0PPPPPPPM@A@AEHAAVCStructureSaver@@@Z
??ICFakeRPGUnit@NRender@@EAEHAAVCStructureSaver@@@Z
??ICFakeWorldUnit@NRender@@$0PPPPPPPM@A@AEHAAVCStructureSaver@@@Z
??ICFakeWorldUnit@NRender@@EAEHAAVCStructureSaver@@@Z
??ICFirstAidItem@NRPG@@$4PPPPPPPM@A@AEHAAVCStructureSaver@@@Z
??ICFirstAidItem@NRPG@@UAEHAAVCStructureSaver@@@Z
??ICFlashButton@NUI@@EAEHAAVCStructureSaver@@@Z
??ICFlashImage@NUI@@EAEHAAVCStructureSaver@@@Z
??ICFontFormatInfo@@UAEHAAVCStructureSaver@@@Z
??ICFontInfo@NGScene@@EAEHAAVCStructureSaver@@@Z
??ICForcedIconBarSet@NUI@@EAEHAAVCStructureSaver@@@Z
??ICGScene@NGScene@@$0PPPPPPPM@A@AEHAAVCStructureSaver@@@Z
??ICGScene@NGScene@@EAEHAAVCStructureSaver@@@Z
??ICGame@NRPG@@EAEHAAVCStructureSaver@@@Z
??ICGamePlayOptionsUI@NUI@@EAEHAAVCStructureSaver@@@Z
??ICGameView@NGScene@@EAEHAAVCStructureSaver@@@Z
??ICGenericDynamicPart@NGScene@@UAEHAAVCStructureSaver@@@Z
??ICGenericMaterial@NGScene@@UAEHAAVCStructureSaver@@@Z
??ICGlobalAck@NWorld@@$0PPPPPPPM@A@AEHAAVCStructureSaver@@@Z
??ICGlobalAck@NWorld@@EAEHAAVCStructureSaver@@@Z
??ICGlobalDiplomacy@NRPG@@EAEHAAVCStructureSaver@@@Z
??ICGlobalGame@NRPG@@UAEHAAVCStructureSaver@@@Z
??ICGlobalInfo@@UAEHAAVCStructureSaver@@@Z
??ICGlobalMap@NGame@@EAEHAAVCStructureSaver@@@Z
??ICGlobalMapUI@NUI@@EAEHAAVCStructureSaver@@@Z
??ICGlobalPlayer@NRPG@@UAEHAAVCStructureSaver@@@Z
??ICGlobalSector@NUI@@UAEHAAVCStructureSaver@@@Z
??ICGrass@NGScene@@EAEHAAVCStructureSaver@@@Z
??ICGrassAnimator@NGScene@@EAEHAAVCStructureSaver@@@Z
??ICGrassPosCalcer@NGScene@@EAEHAAVCStructureSaver@@@Z
??ICGrassPosition@NGScene@@UAEHAAVCStructureSaver@@@Z
??ICGrassTracker@NGScene@@EAEHAAVCStructureSaver@@@Z
??ICGrenadeItem@NRPG@@$4PPPPPPPM@A@AEHAAVCStructureSaver@@@Z
??ICGrenadeItem@NRPG@@UAEHAAVCStructureSaver@@@Z
??ICGrenadeModeIconBarSet@NUI@@EAEHAAVCStructureSaver@@@Z
??ICGrenadeServer@NWorld@@$0PPPPPPPM@A@AEHAAVCStructureSaver@@@Z
??ICGrenadeServer@NWorld@@EAEHAAVCStructureSaver@@@Z
??ICGrenadeToHitCalcer@NRPG@@UAEHAAVCStructureSaver@@@Z
??ICHead@NLSHead@@EAEHAAVCStructureSaver@@@Z
??ICHeadAnimator@NLSHead@@EAEHAAVCStructureSaver@@@Z
??ICHeadBound@NLSHead@@EAEHAAVCStructureSaver@@@Z
??ICHeadsController@NLSHead@@EAEHAAVCStructureSaver@@@Z
??ICHeightMapBlock@NWorld@@EAEHAAVCStructureSaver@@@Z
??ICHeroMenuInterface@NGame@@UAEHAAVCStructureSaver@@@Z
??ICHeroMenuUI@NUI@@EAEHAAVCStructureSaver@@@Z
??ICHitLocator@NWorld@@UAEHAAVCStructureSaver@@@Z
??ICHitTracker@NUI@@EAEHAAVCStructureSaver@@@Z
??ICHoleWallBuilder@NTerrain@@EAEHAAVCStructureSaver@@@Z
??ICHoverButton@NUI@@UAEHAAVCStructureSaver@@@Z
??ICIBCombiner@NGScene@@EAEHAAVCStructureSaver@@@Z
??ICIMAGEHandler@NUI@@EAEHAAVCStructureSaver@@@Z
??ICIconBarSet@NUI@@UAEHAAVCStructureSaver@@@Z
??ICIdleHandCritical@NRPG@@UAEHAAVCStructureSaver@@@Z
??ICImage@NUI@@UAEHAAVCStructureSaver@@@Z
??ICImageDraw@NUI@@MAEHAAVCStructureSaver@@@Z
??ICImageNumber@NUI@@EAEHAAVCStructureSaver@@@Z
??ICInGameMenuInterface@NGame@@EAEHAAVCStructureSaver@@@Z
??ICInGameMenuUI@NUI@@EAEHAAVCStructureSaver@@@Z
??ICInfoPanelCritical@NUI@@EAEHAAVCStructureSaver@@@Z
??ICInfoPanelMultipleUnits@NUI@@EAEHAAVCStructureSaver@@@Z
??ICInfoPanelSingleUnit@NUI@@EAEHAAVCStructureSaver@@@Z
??ICInfoPanelSlot@NUI@@UAEHAAVCStructureSaver@@@Z
??ICInfoPanelSpecialSlot@NUI@@UAEHAAVCStructureSaver@@@Z
??ICInterMissionInterface@@UAEHAAVCStructureSaver@@@Z
??ICInteractiveUnitView@NUI@@UAEHAAVCStructureSaver@@@Z
??ICInterface@NUI@@EAEHAAVCStructureSaver@@@Z
??ICInterfaceCommand@NMainLoop@@EAEHAAVCStructureSaver@@@Z
??ICInventory@NRPG@@EAEHAAVCStructureSaver@@@Z
??ICInventoryAnimator@NAnimation@@EAEHAAVCStructureSaver@@@Z
??ICInventoryItem@NRPG@@$4PPPPPPPM@A@AEHAAVCStructureSaver@@@Z
??ICInventoryItem@NRPG@@UAEHAAVCStructureSaver@@@Z
??ICInventoryPanel@NUI@@EAEHAAVCStructureSaver@@@Z
??ICItem@NRPG@@$4PPPPPPPM@A@AEHAAVCStructureSaver@@@Z
??ICItem@NRPG@@UAEHAAVCStructureSaver@@@Z
??ICItemModel@NUI@@EAEHAAVCStructureSaver@@@Z
??ICItemText@NUI@@EAEHAAVCStructureSaver@@@Z
??ICJUSTIFYHandler@NUI@@EAEHAAVCStructureSaver@@@Z
??ICKnifeAnimator@NWorld@@EAEHAAVCStructureSaver@@@Z
??ICKnifeServer@NWorld@@$0PPPPPPPM@A@AEHAAVCStructureSaver@@@Z
??ICKnifeServer@NWorld@@EAEHAAVCStructureSaver@@@Z
??ICLEFTHandler@NUI@@EAEHAAVCStructureSaver@@@Z
??ICLODCalcer@NGScene@@EAEHAAVCStructureSaver@@@Z
??ICLUACallParam@NScript@@UAEHAAVCStructureSaver@@@Z
??ICLUAObjectPosition@NScript@@UAEHAAVCStructureSaver@@@Z
??ICLadderTracker@NAI@@UAEHAAVCStructureSaver@@@Z
??ICLayersGroup@NAI@@UAEHAAVCStructureSaver@@@Z
??ICLayersSetTracker@NAI@@UAEHAAVCStructureSaver@@@Z
??ICLevelSwitchBar@NUI@@EAEHAAVCStructureSaver@@@Z
??ICLightAnimator@NGScene@@UAEHAAVCStructureSaver@@@Z
??ICLightCalcer@NGScene@@UAEHAAVCStructureSaver@@@Z
??ICLightGroup@NGScene@@UAEHAAVCStructureSaver@@@Z
??ICLightState@NGScene@@QAEHAAVCStructureSaver@@@Z
??ICLightmapTracker@NGScene@@UAEHAAVCStructureSaver@@@Z
??ICLineBar@NUI@@EAEHAAVCStructureSaver@@@Z
??ICListView@NUI@@UAEHAAVCStructureSaver@@@Z
??ICLoadView@NUI@@EAEHAAVCStructureSaver@@@Z
??ICLocalAmbientCalcer@NGScene@@UAEHAAVCStructureSaver@@@Z
??ICLogPanel@NUI@@UAEHAAVCStructureSaver@@@Z
??ICLoseMenuInterface@NGame@@EAEHAAVCStructureSaver@@@Z
??ICLoseMenuUI@NUI@@EAEHAAVCStructureSaver@@@Z
??ICMETerrainInfo@@UAEHAAVCStructureSaver@@@Z
??ICMIDDLEHandler@NUI@@EAEHAAVCStructureSaver@@@Z
??ICML@NUI@@EAEHAAVCStructureSaver@@@Z
??ICMLImageObject@NUI@@EAEHAAVCStructureSaver@@@Z
??ICMLLayout@NUI@@EAEHAAVCStructureSaver@@@Z
??ICMLText@NUI@@UAEHAAVCStructureSaver@@@Z
??ICMLTextObject@NUI@@EAEHAAVCStructureSaver@@@Z
??ICMMXAnimationMatrices@NGScene@@EAEHAAVCStructureSaver@@@Z
??ICMNode@NGScene@@EAEHAAVCStructureSaver@@@Z
??ICMSRConvert@NGScene@@UAEHAAVCStructureSaver@@@Z
??ICMSRNode@NGScene@@UAEHAAVCStructureSaver@@@Z
??ICMainIconBarSet@NUI@@EAEHAAVCStructureSaver@@@Z
??ICMainMenuInterface@NGame@@UAEHAAVCStructureSaver@@@Z
??ICMainMenuUI@NUI@@EAEHAAVCStructureSaver@@@Z
??ICMapColourer@NAI@@EAEHAAVCStructureSaver@@@Z
??ICMaterialShare@NGScene@@EAEHAAVCStructureSaver@@@Z
??ICMayaCamera@@EAEHAAVCStructureSaver@@@Z
??ICMeleeToHitCalcer@NRPG@@EAEHAAVCStructureSaver@@@Z
??ICMeleeWeaponItem@NRPG@@$4PPPPPPPM@A@AEHAAVCStructureSaver@@@Z
??ICMeleeWeaponItem@NRPG@@UAEHAAVCStructureSaver@@@Z
??ICMemGeometry@NGScene@@EAEHAAVCStructureSaver@@@Z
??ICMemObjectInfo@NGScene@@EAEHAAVCStructureSaver@@@Z
??ICMeshBound@NGScene@@UAEHAAVCStructureSaver@@@Z
??ICMine@NWorld@@$0PPPPPPPM@A@AEHAAVCStructureSaver@@@Z
??ICMine@NWorld@@EAEHAAVCStructureSaver@@@Z
??ICMineTracker@NWorld@@EAEHAAVCStructureSaver@@@Z
??ICMission@NGame@@UAEHAAVCStructureSaver@@@Z
??ICMissionDlgUI@NUI@@EAEHAAVCStructureSaver@@@Z
??ICMissionMovieUI@NUI@@EAEHAAVCStructureSaver@@@Z
??ICMissionTrailerUI@NUI@@EAEHAAVCStructureSaver@@@Z
??ICMissionUI@NUI@@EAEHAAVCStructureSaver@@@Z
??ICMixedMaterial@NBuilding@@UAEHAAVCStructureSaver@@@Z
??ICModel@NUI@@UAEHAAVCStructureSaver@@@Z
??ICModelDraw@NUI@@MAEHAAVCStructureSaver@@@Z
??ICMotionlessCritical@NRPG@@UAEHAAVCStructureSaver@@@Z
??ICMouseCaptureHandler@NUI@@EAEHAAVCStructureSaver@@@Z
??ICMoveAnimator@NAnimation@@UAEHAAVCStructureSaver@@@Z
??ICMultiMovesTable@NAI@@QAEHAAVCStructureSaver@@@Z
??ICMusic@NSound@@UAEHAAVCStructureSaver@@@Z
??ICNodesLayer@NAI@@UAEHAAVCStructureSaver@@@Z
??ICNodesLayerProxy@NAI@@EAEHAAVCStructureSaver@@@Z
??ICNonePart@NGScene@@UAEHAAVCStructureSaver@@@Z
??ICObject@NRPG@@$4PPPPPPPM@A@AEHAAVCStructureSaver@@@Z
??ICObject@NRPG@@UAEHAAVCStructureSaver@@@Z
??ICObjectBase@@UAEHAAVCStructureSaver@@@Z
??ICObjectServer@NWorld@@$0PPPPPPPM@A@AEHAAVCStructureSaver@@@Z
??ICObjectServer@NWorld@@EAEHAAVCStructureSaver@@@Z
??ICObjectServerBase@NWorld@@$4PPPPPPPM@A@AEHAAVCStructureSaver@@@Z
??ICObjectServerBase@NWorld@@UAEHAAVCStructureSaver@@@Z
??ICObjectSet@NGScene@@UAEHAAVCStructureSaver@@@Z
??ICObjectToHitCalcer@NRPG@@UAEHAAVCStructureSaver@@@Z
??ICOptionsInterface@NGame@@EAEHAAVCStructureSaver@@@Z
??ICOptionsUI@NUI@@EAEHAAVCStructureSaver@@@Z
??ICPanzerkleinCritical@NRPG@@UAEHAAVCStructureSaver@@@Z
??ICPartBuilder@NTerrain@@EAEHAAVCStructureSaver@@@Z
??ICParticleAnimator@NGScene@@UAEHAAVCStructureSaver@@@Z
??ICParticleSkeleton@NAnimation@@EAEHAAVCStructureSaver@@@Z
??ICParticleWaveTexture@NGScene@@QAEHAAVCStructureSaver@@@Z
??ICParticles@NGScene@@EAEHAAVCStructureSaver@@@Z
??ICParticlesTriList@NGScene@@EAEHAAVCStructureSaver@@@Z
??ICPassCalcerJob@NAI@@UAEHAAVCStructureSaver@@@Z
??ICPassageObject@NWorld@@$0PPPPPPPM@A@AEHAAVCStructureSaver@@@Z
??ICPassageObject@NWorld@@EAEHAAVCStructureSaver@@@Z
??ICPassageObjectBase@NWorld@@$4PPPPPPPM@A@AEHAAVCStructureSaver@@@Z
??ICPassageObjectBase@NWorld@@UAEHAAVCStructureSaver@@@Z
??ICPath@NAI@@UAEHAAVCStructureSaver@@@Z
??ICPathInterpolator@NAnimation@@UAEHAAVCStructureSaver@@@Z
??ICPathNetwork@NAI@@EAEHAAVCStructureSaver@@@Z
??ICPathViewer@NWorld@@EAEHAAVCStructureSaver@@@Z
??ICPatientCritical@NRPG@@UAEHAAVCStructureSaver@@@Z
??ICPerMaterialCombiner@NGScene@@UAEHAAVCStructureSaver@@@Z
??ICPerPolyDecal@NGScene@@UAEHAAVCStructureSaver@@@Z
??ICPerPolyDecalGeometry@NGScene@@UAEHAAVCStructureSaver@@@Z
??ICPerk@NRPG@@UAEHAAVCStructureSaver@@@Z
??ICPerkButton@NUI@@EAEHAAVCStructureSaver@@@Z
??ICPerksPanel@NUI@@EAEHAAVCStructureSaver@@@Z
??ICPerksPanelView@NUI@@EAEHAAVCStructureSaver@@@Z
??ICPerksTree@NRPG@@EAEHAAVCStructureSaver@@@Z
??ICPlayer@NWorld@@EAEHAAVCStructureSaver@@@Z
??ICPlayerTracker@NGame@@EAEHAAVCStructureSaver@@@Z
??ICPointGlowAnimator@NGScene@@EAEHAAVCStructureSaver@@@Z
??ICPointLight@NGScene@@EAEHAAVCStructureSaver@@@Z
??ICPolyline@NGScene@@UAEHAAVCStructureSaver@@@Z
??ICPosNode@NGScene@@UAEHAAVCStructureSaver@@@Z
??ICPoseIconBarSet@NUI@@EAEHAAVCStructureSaver@@@Z
??ICPostColorer@NGScene@@EAEHAAVCStructureSaver@@@Z
??ICPostProcessBinder@NGScene@@EAEHAAVCStructureSaver@@@Z
??ICPotionContainer@NRPG@@$4PPPPPPPM@A@AEHAAVCStructureSaver@@@Z
??ICPotionContainer@NRPG@@UAEHAAVCStructureSaver@@@Z
??ICPotionItem@NRPG@@$4PPPPPPPM@A@AEHAAVCStructureSaver@@@Z
??ICPotionItem@NRPG@@UAEHAAVCStructureSaver@@@Z
??ICProgressBar@NUI@@UAEHAAVCStructureSaver@@@Z
??ICProjectedText@NUI@@EAEHAAVCStructureSaver@@@Z
??ICPushButton@NUI@@UAEHAAVCStructureSaver@@@Z
??ICRIGHTHandler@NUI@@EAEHAAVCStructureSaver@@@Z
??ICRLauncherToHitCalcer@NRPG@@UAEHAAVCStructureSaver@@@Z
??ICRandomSector@NUI@@EAEHAAVCStructureSaver@@@Z
??ICRecognitionAttribute@NAI@@EAEHAAVCStructureSaver@@@Z
??ICRecognitionClass@NAI@@EAEHAAVCStructureSaver@@@Z
??ICRecognizer@NAI@@EAEHAAVCStructureSaver@@@Z
??ICRecountColourerJob@NAI@@UAEHAAVCStructureSaver@@@Z
??ICRectLayout@@QAEHAAVCStructureSaver@@@Z
??ICRects@NGScene@@UAEHAAVCStructureSaver@@@Z
??ICRenderBaseInterface@NGame@@UAEHAAVCStructureSaver@@@Z
??ICRenderGame@NRender@@EAEHAAVCStructureSaver@@@Z
??ICRenderSound@NRender@@UAEHAAVCStructureSaver@@@Z
??ICRocketAnimator@NWorld@@EAEHAAVCStructureSaver@@@Z
??ICRocketServer@NWorld@@$0PPPPPPPM@A@AEHAAVCStructureSaver@@@Z
??ICRocketServer@NWorld@@EAEHAAVCStructureSaver@@@Z
??ICSW2DScene@NGScene@@EAEHAAVCStructureSaver@@@Z
??ICSWRectLayout@NGScene@@QAEHAAVCStructureSaver@@@Z
??ICSWRects@NGScene@@UAEHAAVCStructureSaver@@@Z
??ICSWSpot@NGScene@@UAEHAAVCStructureSaver@@@Z
??ICSaveLoadItem@NUI@@EAEHAAVCStructureSaver@@@Z
??ICSaveLoadMenuInterface@NGame@@EAEHAAVCStructureSaver@@@Z
??ICSaveLoadUI@NUI@@EAEHAAVCStructureSaver@@@Z
??ICSaveView@NUI@@EAEHAAVCStructureSaver@@@Z
??ICScaleConverter@NAI@@EAEHAAVCStructureSaver@@@Z
??ICScaleConverterPoint@NAI@@UAEHAAVCStructureSaver@@@Z
??ICScaleNode@NGScene@@UAEHAAVCStructureSaver@@@Z
??ICScenarioClue@NScenario@@EAEHAAVCStructureSaver@@@Z
??ICScenarioFlowChart@NScenario@@EAEHAAVCStructureSaver@@@Z
??ICScenarioFlowChartBase@NScenario@@UAEHAAVCStructureSaver@@@Z
??ICScenarioFlowChartPathFinder@NScenario@@EAEHAAVCStructureSaver@@@Z
??ICScenarioFlowChartState@NScenario@@EAEHAAVCStructureSaver@@@Z
??ICScenarioObjective@NScenario@@EAEHAAVCStructureSaver@@@Z
??ICScenarioTracker@NScenario@@EAEHAAVCStructureSaver@@@Z
??ICScenarioZone@NScenario@@EAEHAAVCStructureSaver@@@Z
??ICScreenShot@NUI@@EAEHAAVCStructureSaver@@@Z
??ICScreenshotTexture@NGScene@@EAEHAAVCStructureSaver@@@Z
??ICScript@NScript@@UAEHAAVCStructureSaver@@@Z
??ICScriptButton@NUI@@EAEHAAVCStructureSaver@@@Z
??ICScriptHoverButton@NUI@@EAEHAAVCStructureSaver@@@Z
??ICScroll@NUI@@UAEHAAVCStructureSaver@@@Z
??ICScrollWindowBase@NUI@@UAEHAAVCStructureSaver@@@Z
??ICSelection@NGScene@@EAEHAAVCStructureSaver@@@Z
??ICSelection@NRender@@UAEHAAVCStructureSaver@@@Z
??ICSelectionNode@NGScene@@UAEHAAVCStructureSaver@@@Z
??ICSelectionWindow@NUI@@EAEHAAVCStructureSaver@@@Z
??ICSetRender@NRender@@QAEHAAVCStructureSaver@@@Z
??ICShaderParticlesGeometry@NGScene@@EAEHAAVCStructureSaver@@@Z
??ICShadowCastMaterial@NGScene@@UAEHAAVCStructureSaver@@@Z
??ICShowClueInterface@NGame@@EAEHAAVCStructureSaver@@@Z
??ICShowClueUI@NUI@@EAEHAAVCStructureSaver@@@Z
??ICShowClueView@NUI@@EAEHAAVCStructureSaver@@@Z
??ICShowItemModel@NUI@@UAEHAAVCStructureSaver@@@Z
??ICShowRPGUnit@NRender@@EAEHAAVCStructureSaver@@@Z
??ICShowUnitHead@NRender@@EAEHAAVCStructureSaver@@@Z
??ICShowWorldUnit@NRender@@EAEHAAVCStructureSaver@@@Z
??ICShrinkButton@NUI@@UAEHAAVCStructureSaver@@@Z
??ICSideMenuInterface@NGame@@UAEHAAVCStructureSaver@@@Z
??ICSideMenuUI@NUI@@EAEHAAVCStructureSaver@@@Z
??ICSimpleExecQueue@NWorld@@UAEHAAVCStructureSaver@@@Z
??ICSimplePart@NGScene@@EAEHAAVCStructureSaver@@@Z
??ICSinus@NGScene@@UAEHAAVCStructureSaver@@@Z
??ICSkeletonAnimator@NAnimation@@EAEHAAVCStructureSaver@@@Z
??ICSkeletonState@NAnimation@@UAEHAAVCStructureSaver@@@Z
??ICSkillModifier@NRPG@@UAEHAAVCStructureSaver@@@Z
??ICSkinner@NAI@@EAEHAAVCStructureSaver@@@Z
??ICSkyAdapter@NGScene@@EAEHAAVCStructureSaver@@@Z
??ICSlider@NUI@@UAEHAAVCStructureSaver@@@Z
??ICSlot@NUI@@UAEHAAVCStructureSaver@@@Z
??ICSlotReloadButton@NUI@@UAEHAAVCStructureSaver@@@Z
??ICSlotScroll@NUI@@EAEHAAVCStructureSaver@@@Z
??ICSolidAndWallMap@NBuilding@@EAEHAAVCStructureSaver@@@Z
??ICSolidObjectInfoClipper@NGScene@@EAEHAAVCStructureSaver@@@Z
??ICSound2D@NSound@@UAEHAAVCStructureSaver@@@Z
??ICSound@NSound@@UAEHAAVCStructureSaver@@@Z
??ICSoundEffect@NSound@@EAEHAAVCStructureSaver@@@Z
??ICSoundInstance@NSound@@UAEHAAVCStructureSaver@@@Z
??ICSoundScene@NSound@@UAEHAAVCStructureSaver@@@Z
??ICSquareMapCosts@NAI@@QAEHAAVCStructureSaver@@@Z
??ICStandAnimator@NAnimation@@UAEHAAVCStructureSaver@@@Z
??ICStatChange@NUI@@EAEHAAVCStructureSaver@@@Z
??ICStatPoints@NUI@@EAEHAAVCStructureSaver@@@Z
??ICStateAttack@NGame@@EAEHAAVCStructureSaver@@@Z
??ICStateBase@NGame@@UAEHAAVCStructureSaver@@@Z
??ICStateDragItem@NGame@@EAEHAAVCStructureSaver@@@Z
??ICStateDropCorpse@NGame@@EAEHAAVCStructureSaver@@@Z
??ICStateEmpty@NGame@@EAEHAAVCStructureSaver@@@Z
??ICStateFirstAid@NGame@@EAEHAAVCStructureSaver@@@Z
??ICStateFriend@NGame@@EAEHAAVCStructureSaver@@@Z
??ICStateMove@NGame@@EAEHAAVCStructureSaver@@@Z
??ICStateMoveItem@NGame@@EAEHAAVCStructureSaver@@@Z
??ICStatePickItem@NGame@@EAEHAAVCStructureSaver@@@Z
??ICStatePose@NGame@@EAEHAAVCStructureSaver@@@Z
??ICStateRotate@NGame@@EAEHAAVCStructureSaver@@@Z
??ICStateSelection@NGame@@EAEHAAVCStructureSaver@@@Z
??ICStateSetMine@NGame@@EAEHAAVCStructureSaver@@@Z
??ICStateSetTrap@NGame@@EAEHAAVCStructureSaver@@@Z
??ICStateTeam@NGame@@EAEHAAVCStructureSaver@@@Z
??ICStateUnloadItem@NGame@@EAEHAAVCStructureSaver@@@Z
??ICStateUntrap@NGame@@EAEHAAVCStructureSaver@@@Z
??ICStateUse@NGame@@EAEHAAVCStructureSaver@@@Z
??ICStateWait@NGame@@EAEHAAVCStructureSaver@@@Z
??ICStorePanel@NUI@@EAEHAAVCStructureSaver@@@Z
??ICStoreSlot@NUI@@EAEHAAVCStructureSaver@@@Z
??ICStunCritical@NRPG@@UAEHAAVCStructureSaver@@@Z
??ICTOPHandler@NUI@@EAEHAAVCStructureSaver@@@Z
??ICTask@NAI@@EAEHAAVCStructureSaver@@@Z
??ICTaskCommand@NAI@@$4PPPPPPPM@A@AEHAAVCStructureSaver@@@Z
??ICTaskCommand@NAI@@UAEHAAVCStructureSaver@@@Z
??ICTaskCommandChangeDirection@NAI@@$0PPPPPPPM@A@AEHAAVCStructureSaver@@@Z
??ICTaskCommandChangeDirection@NAI@@EAEHAAVCStructureSaver@@@Z
??ICTaskCommandChangePose@NAI@@$0PPPPPPPM@A@AEHAAVCStructureSaver@@@Z
??ICTaskCommandChangePose@NAI@@EAEHAAVCStructureSaver@@@Z
??ICTaskCommandCustomIdleAnimation@NAI@@$0PPPPPPPM@A@AEHAAVCStructureSaver@@@Z
??ICTaskCommandCustomIdleAnimation@NAI@@EAEHAAVCStructureSaver@@@Z
??ICTaskCommandGoto@NAI@@$0PPPPPPPM@A@AEHAAVCStructureSaver@@@Z
??ICTaskCommandGoto@NAI@@EAEHAAVCStructureSaver@@@Z
??ICTaskCommandRoaming@NAI@@$0PPPPPPPM@A@AEHAAVCStructureSaver@@@Z
??ICTaskCommandRoaming@NAI@@EAEHAAVCStructureSaver@@@Z
??ICTaskCommandSync@NAI@@$0PPPPPPPM@A@AEHAAVCStructureSaver@@@Z
??ICTaskCommandSync@NAI@@EAEHAAVCStructureSaver@@@Z
??ICTaskCommandWait@NAI@@$0PPPPPPPM@A@AEHAAVCStructureSaver@@@Z
??ICTaskCommandWait@NAI@@EAEHAAVCStructureSaver@@@Z
??ICTaskSyncObject@NAI@@EAEHAAVCStructureSaver@@@Z
??ICTeamMarker@NUI@@EAEHAAVCStructureSaver@@@Z
??ICTeamMngMenuInterface@NGame@@EAEHAAVCStructureSaver@@@Z
??ICTeamMngUI@NUI@@EAEHAAVCStructureSaver@@@Z
??ICTerrain@NWorld@@$2PPPPPPPM@A@AEHAAVCStructureSaver@@@Z
??ICTerrain@NWorld@@MAEHAAVCStructureSaver@@@Z
??ICTerrainGeometry@NAI@@EAEHAAVCStructureSaver@@@Z
??ICTerrainInfoHolder@@UAEHAAVCStructureSaver@@@Z
??ICTerrainModelPart@NGScene@@UAEHAAVCStructureSaver@@@Z
??ICTerrainModelWallPart@NGScene@@UAEHAAVCStructureSaver@@@Z
??ICTerrainPart@@UAEHAAVCStructureSaver@@@Z
??ICTerrainRegion@NWorld@@$2PPPPPPPM@A@AEHAAVCStructureSaver@@@Z
??ICTerrainRegion@NWorld@@MAEHAAVCStructureSaver@@@Z
??ICTerrainTexture@NGScene@@EAEHAAVCStructureSaver@@@Z
??ICTerrainWallBuilder@NTerrain@@EAEHAAVCStructureSaver@@@Z
??ICText@NUI@@UAEHAAVCStructureSaver@@@Z
??ICTextDraw@NUI@@MAEHAAVCStructureSaver@@@Z
??ICTextFormater@NGScene@@UAEHAAVCStructureSaver@@@Z
??ICTextLocaleInfo@NGScene@@EAEHAAVCStructureSaver@@@Z
??ICTextView@NUI@@UAEHAAVCStructureSaver@@@Z
??ICThrowKnifeTileToHitCalcer@NRPG@@UAEHAAVCStructureSaver@@@Z
??ICThrowKnifeToHitCalcer@NRPG@@UAEHAAVCStructureSaver@@@Z
??ICTileToHitCalcer@NRPG@@UAEHAAVCStructureSaver@@@Z
??ICTimeCounter@@QAEHAAVCStructureSaver@@@Z
??ICTimedObject@NWorld@@$4PPPPPPPM@A@AEHAAVCStructureSaver@@@Z
??ICTimedObject@NWorld@@UAEHAAVCStructureSaver@@@Z
??ICToHitCalcer@NRPG@@UAEHAAVCStructureSaver@@@Z
??ICToolItem@NRPG@@$0PPPPPPPM@A@AEHAAVCStructureSaver@@@Z
??ICToolItem@NRPG@@EAEHAAVCStructureSaver@@@Z
??ICToolTip@NUI@@UAEHAAVCStructureSaver@@@Z
??ICTopBar@NUI@@EAEHAAVCStructureSaver@@@Z
??ICTrajectoryAnimator@NAnimation@@UAEHAAVCStructureSaver@@@Z
??ICTransparentMaterial@NGScene@@EAEHAAVCStructureSaver@@@Z
??ICTransparentRenderer@NGScene@@UAEHAAVCStructureSaver@@@Z
??ICUICmd@NWorld@@UAEHAAVCStructureSaver@@@Z
??ICUICmdBeginSequence@NWorld@@UAEHAAVCStructureSaver@@@Z
??ICUICmdContinueChapter@NWorld@@UAEHAAVCStructureSaver@@@Z
??ICUICmdEndSequence@NWorld@@UAEHAAVCStructureSaver@@@Z
??ICUICmdExec@NGame@@UAEHAAVCStructureSaver@@@Z
??ICUICmdExecContainer@NGame@@EAEHAAVCStructureSaver@@@Z
??ICUICmdExecContinueChapter@NGame@@EAEHAAVCStructureSaver@@@Z
??ICUICmdExecLoadTemplate@NGame@@EAEHAAVCStructureSaver@@@Z
??ICUICmdExecPlayDialog@NGame@@EAEHAAVCStructureSaver@@@Z
??ICUICmdExecShowStore@NGame@@EAEHAAVCStructureSaver@@@Z
??ICUICmdExecShowTeamMng@NGame@@EAEHAAVCStructureSaver@@@Z
??ICUICmdFollowCameraExec@NGame@@UAEHAAVCStructureSaver@@@Z
??ICUICmdLoadTemplate@NWorld@@UAEHAAVCStructureSaver@@@Z
??ICUICmdMoveCamera@NWorld@@UAEHAAVCStructureSaver@@@Z
??ICUICmdMoveCameraExec@NGame@@UAEHAAVCStructureSaver@@@Z
??ICUICmdPartFinished@NWorld@@UAEHAAVCStructureSaver@@@Z
??ICUICmdPlayAck@NWorld@@UAEHAAVCStructureSaver@@@Z
??ICUICmdPlayDialog@NWorld@@UAEHAAVCStructureSaver@@@Z
??ICUICmdRestoreCameraExec@NGame@@UAEHAAVCStructureSaver@@@Z
??ICUICmdSetFloor@NWorld@@UAEHAAVCStructureSaver@@@Z
??ICUICmdShowClue@NWorld@@UAEHAAVCStructureSaver@@@Z
??ICUICmdShowStore@NWorld@@UAEHAAVCStructureSaver@@@Z
??ICUICmdShowTeamMng@NWorld@@UAEHAAVCStructureSaver@@@Z
??ICUICmdTurn@NWorld@@UAEHAAVCStructureSaver@@@Z
??ICUICmdUnit@NWorld@@UAEHAAVCStructureSaver@@@Z
??ICUnit@NRPG@@UAEHAAVCStructureSaver@@@Z
??ICUnitAIInfo@NAI@@UAEHAAVCStructureSaver@@@Z
??ICUnitAnimator@NWorld@@QAEHAAVCStructureSaver@@@Z
??ICUnitCharacterPanel@NUI@@EAEHAAVCStructureSaver@@@Z
??ICUnitFace@NUI@@EAEHAAVCStructureSaver@@@Z
??ICUnitGroup@NWorld@@UAEHAAVCStructureSaver@@@Z
??ICUnitHead@NUI@@UAEHAAVCStructureSaver@@@Z
??ICUnitIconsBar@NUI@@EAEHAAVCStructureSaver@@@Z
??ICUnitInventoryPanel@NUI@@EAEHAAVCStructureSaver@@@Z
??ICUnitInventoryPanelItem@NUI@@EAEHAAVCStructureSaver@@@Z
??ICUnitMission@NRPG@@$4PPPPPPPM@A@AEHAAVCStructureSaver@@@Z
??ICUnitMission@NRPG@@UAEHAAVCStructureSaver@@@Z
??ICUnitModelShow@NUI@@EAEHAAVCStructureSaver@@@Z
??ICUnitPanel@NUI@@UAEHAAVCStructureSaver@@@Z
??ICUnitPortraitState@NUI@@EAEHAAVCStructureSaver@@@Z
??ICUnitPortraitView@NUI@@EAEHAAVCStructureSaver@@@Z
??ICUnitServer@NWorld@@$0PPPPPPPM@A@AEHAAVCStructureSaver@@@Z
??ICUnitServer@NWorld@@EAEHAAVCStructureSaver@@@Z
??ICUnitState@NWorld@@UAEHAAVCStructureSaver@@@Z
??ICUnitStateCorpseCarrier@NWorld@@UAEHAAVCStructureSaver@@@Z
??ICUnitStateDeath@NWorld@@EAEHAAVCStructureSaver@@@Z
??ICUnitStateEngineering@NWorld@@EAEHAAVCStructureSaver@@@Z
??ICUnitStateHealer@NWorld@@EAEHAAVCStructureSaver@@@Z
??ICUnitStateInPocket@NWorld@@EAEHAAVCStructureSaver@@@Z
??ICUnitStateNormal@NWorld@@EAEHAAVCStructureSaver@@@Z
??ICUnitStateSniping@NWorld@@EAEHAAVCStructureSaver@@@Z
??ICUnitStateStun@NWorld@@EAEHAAVCStructureSaver@@@Z
??ICUnitStateUnconscious@NWorld@@EAEHAAVCStructureSaver@@@Z
??ICUnitStateUsingCannon@NWorld@@EAEHAAVCStructureSaver@@@Z
??ICUnitTab@NUI@@EAEHAAVCStructureSaver@@@Z
??ICUnitTerrain@NWorld@@UAEHAAVCStructureSaver@@@Z
??ICUnitToHitCalcer@NRPG@@UAEHAAVCStructureSaver@@@Z
??ICUnitTracker@NGame@@EAEHAAVCStructureSaver@@@Z
??ICUnitView@NUI@@UAEHAAVCStructureSaver@@@Z
??ICUnitsTabBar@NUI@@EAEHAAVCStructureSaver@@@Z
??ICVALUEHandler@NUI@@EAEHAAVCStructureSaver@@@Z
??ICVBCombiner@NGScene@@EAEHAAVCStructureSaver@@@Z
??ICVec3Convert@NGScene@@UAEHAAVCStructureSaver@@@Z
??ICVideoOptionsUI@NUI@@EAEHAAVCStructureSaver@@@Z
??ICVisibleTracker@NGame@@EAEHAAVCStructureSaver@@@Z
??ICVisionCube@NRPG@@UAEHAAVCStructureSaver@@@Z
??ICVisionTracker@NRPG@@UAEHAAVCStructureSaver@@@Z
??ICVolumeNode@NAI@@UAEHAAVCStructureSaver@@@Z
??ICVolumeNode@NGScene@@UAEHAAVCStructureSaver@@@Z
??ICVoxelExpl@NWorld@@UAEHAAVCStructureSaver@@@Z
??ICVoxelExplTracker@NWorld@@$0PPPPPPPM@A@AEHAAVCStructureSaver@@@Z
??ICVoxelExplTracker@NWorld@@EAEHAAVCStructureSaver@@@Z
??ICWRAPLEFTHandler@NUI@@EAEHAAVCStructureSaver@@@Z
??ICWRAPRIGHTHandler@NUI@@EAEHAAVCStructureSaver@@@Z
??ICWallObjectInfoClipper@NGScene@@EAEHAAVCStructureSaver@@@Z
??ICWaypoint@NAI@@UAEHAAVCStructureSaver@@@Z
??ICWeaponItem@NRPG@@$4PPPPPPPM@A@AEHAAVCStructureSaver@@@Z
??ICWeaponItem@NRPG@@UAEHAAVCStructureSaver@@@Z
??ICWeaponModeIconBarSet@NUI@@EAEHAAVCStructureSaver@@@Z
??ICWindow@NUI@@UAEHAAVCStructureSaver@@@Z
??ICWindowDoor@NWorld@@$0PPPPPPPM@A@AEHAAVCStructureSaver@@@Z
??ICWindowDoor@NWorld@@EAEHAAVCStructureSaver@@@Z
??ICWorld@NWorld@@EAEHAAVCStructureSaver@@@Z
??ICZoneGlobalSector@NUI@@EAEHAAVCStructureSaver@@@Z
??ICZoneSector@NUI@@EAEHAAVCStructureSaver@@@Z
??IIInterfaceBase@NMainLoop@@UAEHAAVCStructureSaver@@@Z
??IIPart@NGScene@@UAEHAAVCStructureSaver@@@Z
??IIVBCombiner@NGScene@@UAEHAAVCStructureSaver@@@Z
??ISAISoundConstants@NDb@@QAEHAAVCStructureSaver@@@Z
??ISAIUnitGroup@NAI@@QAEHAAVCStructureSaver@@@Z
??ISASegment@NAnimation@@QAEHAAVCStructureSaver@@@Z
??ISAnimationHeader@NAnimation@@QAEHAAVCStructureSaver@@@Z
??ISAttachedGrenade@CWindowDoor@NWorld@@QAEHAAVCStructureSaver@@@Z
??ISBackPackItem@NRPG@@QAEHAAVCStructureSaver@@@Z
??ISBombSelection@CRenderGame@NRender@@QAEHAAVCStructureSaver@@@Z
??ISBone@NAnimation@@QAEHAAVCStructureSaver@@@Z
??ISBuildFragment@NBuilding@@QAEHAAVCStructureSaver@@@Z
??ISChapterSector@@QAEHAAVCStructureSaver@@@Z
??ISChunk@NGScene@@QAEHAAVCStructureSaver@@@Z
??ISCmdPair@CMLLayout@NUI@@QAEHAAVCStructureSaver@@@Z
??ISColorInfo@SMaterialInfo@NGScene@@QAEHAAVCStructureSaver@@@Z
??ISCombinedKey@NGScene@@QAEHAAVCStructureSaver@@@Z
??ISCommand@NAI@@QAEHAAVCStructureSaver@@@Z
??ISCriticalsHolder@NRPG@@QAEHAAVCStructureSaver@@@Z
??ISCursorInfo@NUI@@QAEHAAVCStructureSaver@@@Z
??ISData@CObjectInfo@NGScene@@QAEHAAVCStructureSaver@@@Z
??ISDecalTargetPart@NGScene@@QAEHAAVCStructureSaver@@@Z
??ISDeployData@NRPG@@QAEHAAVCStructureSaver@@@Z
??ISDiscretePos@@QAEHAAVCStructureSaver@@@Z
??ISDynLockInfo@CPathNetwork@NAI@@QAEHAAVCStructureSaver@@@Z
??ISEffectInfo@CBaseParticlesGeometry@NGScene@@QAEHAAVCStructureSaver@@@Z
??ISElement@?$CGatheringCache@VCShortPtrAllocator@NCache@@VCFibElement@2@VCUserGeometry@NGfx@@@NCache@@QAEHAAVCStructureSaver@@@Z
??ISElement@?$CGatheringCache@VCShortPtrAllocator@NCache@@VCQuadTreeElement@2@VCTexture@NGfx@@@NCache@@QAEHAAVCStructureSaver@@@Z
??ISElementInfo@CVolumeNode@NAI@@QAEHAAVCStructureSaver@@@Z
??ISExplObject@CExplVoxelRenderer@NAI@@QAEHAAVCStructureSaver@@@Z
??ISExplVoxelCoords@CExplCube@NWorld@@QAEHAAVCStructureSaver@@@Z
??ISFacesVector@NGScene@@QAEHAAVCStructureSaver@@@Z
??ISFlipper@CPathNetwork@NAI@@QAEHAAVCStructureSaver@@@Z
??ISFont@NGScene@@QAEHAAVCStructureSaver@@@Z
??ISFontInfo@NGScene@@QAEHAAVCStructureSaver@@@Z
??ISFullGroupInfo@NGScene@@QAEHAAVCStructureSaver@@@Z
??ISGlobalIlluminationInfo@NGScene@@QAEHAAVCStructureSaver@@@Z
??ISGlobalSector@@QAEHAAVCStructureSaver@@@Z
??ISGrassLayer@@QAEHAAVCStructureSaver@@@Z
??ISGrassLayerInfo@CGrassTracker@NGScene@@QAEHAAVCStructureSaver@@@Z
??ISGroup@NTerrain@@QAEHAAVCStructureSaver@@@Z
??ISGroupUpdate@CTerrainRegion@NWorld@@QAEHAAVCStructureSaver@@@Z
??ISHilight@CSlot@NUI@@QAEHAAVCStructureSaver@@@Z
??ISIconButton@CIconBarSet@NUI@@QAEHAAVCStructureSaver@@@Z
??ISInfo@CComboBox@NUI@@QAEHAAVCStructureSaver@@@Z
??ISInterrupt@?$CTBSWorld@VCUnitServer@NWorld@@VCPlayer@2@VCCommander@2@@NWorld@@QAEHAAVCStructureSaver@@@Z
??ISInterruptsConstants@NDb@@QAEHAAVCStructureSaver@@@Z
??ISItem@CListView@NUI@@QAEHAAVCStructureSaver@@@Z
??ISItem@CSlot@NUI@@QAEHAAVCStructureSaver@@@Z
??ISItem@NWorld@@QAEHAAVCStructureSaver@@@Z
??ISItemRenderInfo@NWorld@@QAEHAAVCStructureSaver@@@Z
??ISLadder@CNodesLayer@NAI@@QAEHAAVCStructureSaver@@@Z
??ISLadder@NBuilding@@QAEHAAVCStructureSaver@@@Z
??ISLockInfo@CPathNetwork@NAI@@QAEHAAVCStructureSaver@@@Z
??ISMapBuilding@@QAEHAAVCStructureSaver@@@Z
??ISMapHole@@QAEHAAVCStructureSaver@@@Z
??ISMapWall@@QAEHAAVCStructureSaver@@@Z
??ISMaterialApply@NBuilding@@QAEHAAVCStructureSaver@@@Z
??ISMaterialInfo@NGScene@@QAEHAAVCStructureSaver@@@Z
??ISNet@NAI@@QAEHAAVCStructureSaver@@@Z
??ISNetNode@NAI@@QAEHAAVCStructureSaver@@@Z
??ISObject@?$CSyncSrc@UIVisObj@NWorld@@@@QAEHAAVCStructureSaver@@@Z
??ISObjectPosition@NAI@@QAEHAAVCStructureSaver@@@Z
??ISPart@NTerrain@@QAEHAAVCStructureSaver@@@Z
??ISPartInfo@CCombinedPart@NGScene@@QAEHAAVCStructureSaver@@@Z
??ISParticleBorn@NGScene@@QAEHAAVCStructureSaver@@@Z
??ISPartsGroup@NTerrain@@QAEHAAVCStructureSaver@@@Z
??ISPathAction@CPath@NAI@@QAEHAAVCStructureSaver@@@Z
??ISPerMaterialHolder@CVolumeNode@NGScene@@QAEHAAVCStructureSaver@@@Z
??ISPlaceWithAP@NAI@@QAEHAAVCStructureSaver@@@Z
??ISPolygonIndices@NGScene@@QAEHAAVCStructureSaver@@@Z
??ISPosition@NAI@@QAEHAAVCStructureSaver@@@Z
??ISProjectedSpot@NBuilding@@QAEHAAVCStructureSaver@@@Z
??ISRawMaterialApply@NBuilding@@QAEHAAVCStructureSaver@@@Z
??ISRawMixedMaterial@NBuilding@@QAEHAAVCStructureSaver@@@Z
??ISRect@CRectLayout@@QAEHAAVCStructureSaver@@@Z
??ISRoute@NAI@@QAEHAAVCStructureSaver@@@Z
??ISSkeletonState@NAnimation@@QAEHAAVCStructureSaver@@@Z
??ISSnipeAP@NRPG@@QAEHAAVCStructureSaver@@@Z
??ISSourceInfo@NAI@@QAEHAAVCStructureSaver@@@Z
??ISSrcPosInfo@NGScene@@QAEHAAVCStructureSaver@@@Z
??ISState@NGScene@@QAEHAAVCStructureSaver@@@Z
??ISState@NUI@@QAEHAAVCStructureSaver@@@Z
??ISStaticTrackers@NGScene@@QAEHAAVCStructureSaver@@@Z
??ISStepSound@@QAEHAAVCStructureSaver@@@Z
??ISStoreItem@NRPG@@QAEHAAVCStructureSaver@@@Z
??ISStoredPiece@NAI@@QAEHAAVCStructureSaver@@@Z
??ISStoredSkin@NAI@@QAEHAAVCStructureSaver@@@Z
??ISTemplate@CScenarioZone@NScenario@@QAEHAAVCStructureSaver@@@Z
??ISTerrainHole@@QAEHAAVCStructureSaver@@@Z
??ISTerrainInfo@@QAEHAAVCStructureSaver@@@Z
??ISTerrainSpot@@QAEHAAVCStructureSaver@@@Z
??ISTextLine@NUI@@QAEHAAVCStructureSaver@@@Z
??ISTexturedPart@NWorld@@QAEHAAVCStructureSaver@@@Z
??ISToHitConstants@NDb@@QAEHAAVCStructureSaver@@@Z
??ISTrackItem@CDebrisController@NWorld@@QAEHAAVCStructureSaver@@@Z
??ISTrackerDescr@CVolumeNode@NAI@@QAEHAAVCStructureSaver@@@Z
??ISTrailPoint@CATrailPath@NAnimation@@QAEHAAVCStructureSaver@@@Z
??ISTrailPoint@NRPG@@QAEHAAVCStructureSaver@@@Z
??ISTransparentMaterialInfo@NGScene@@QAEHAAVCStructureSaver@@@Z
??ISUnitDeployData@NRPG@@QAEHAAVCStructureSaver@@@Z
??ISUnitHeadAnimator@NLSHead@@QAEHAAVCStructureSaver@@@Z
??ISUnitPosition@NAI@@QAEHAAVCStructureSaver@@@Z
??ISUnitPtrHolder@CWorld@NWorld@@QAEHAAVCStructureSaver@@@Z
??K@YI?BVCQuat@@ABV0@0@Z
??K@YI?BVCVec2@@ABV0@M@Z
??K@YI?BVCVec3@@ABV0@M@Z
??K@YI?BVCVec4@@ABV0@M@Z
??R?$CShortPtrAllocator@USElement@?$CGatheringCache@VCShortPtrAllocator@NCache@@VCFibElement@2@VCUserGeometry@NGfx@@@NCache@@@NCache@@QAEAAUSElement@?$CGatheringCache@VCShortPtrAllocator@NCache@@VCFibElement@2@VCUserGeometry@NGfx@@@1@K@Z
??R?$CShortPtrAllocator@USElement@?$CGatheringCache@VCShortPtrAllocator@NCache@@VCQuadTreeElement@2@VCTexture@NGfx@@@NCache@@@NCache@@QAEAAUSElement@?$CGatheringCache@VCShortPtrAllocator@NCache@@VCQuadTreeElement@2@VCTexture@NGfx@@@1@K@Z
??R?$CWaveCountCosts@VCNodesLayerProxy@NAI@@V?$CTPoint@E@@GU?$SRectColorConstraint@E@2@VCSquareMapCosts@2@$0PK@$0BA@@NAI@@QAEXABV?$CTPoint@E@@G@Z
??R?$CWaveCountCostsMajor@VCMovesEnumerator@NAI@@USPathPlace@2@GUSAlways@2@VCMultiMovesTable@2@$0BA@@NAI@@QAEXABUSPathPlace@1@G@Z
??R?$CWaveCountCostsMajor@VCMovesEnumerator@NAI@@USPathPlace@2@GVCLayerColorConstraints@2@VCPathPlaceTable@2@$0BA@@NAI@@QAEXABUSPathPlace@1@G@Z
??R?$SGetSelf@VCVec3@@@@QBEABVCVec3@@ABV1@@Z
??R?$SRangeTest@VCDFrozenItem@NWorld@@@NWorld@@QBE_NPAVCDFrozenItem@1@@Z
??R?$SRectColorConstraint@E@NAI@@QBE_NABV?$CTPoint@E@@@Z
??R?$SReplaceBlend@K@@QBEXPAKMM@Z
??R?$SReplaceBlend@USStepSound@@@@QBEXPAUSStepSound@@MM@Z
??R?$STestSphere@VCExplVoxelRenderer@NAI@@@NAI@@QBE_NABVCVec3@@M@Z
??R?$STestSphere@VCFastRenderer@NAI@@@NAI@@QBE_NABVCVec3@@M@Z
??R?$STestSphere@VCTracer@NAI@@@NAI@@QBE_NABVCVec3@@M@Z
??R?$STestSphere@VCVisionVoxelRenderer@NAI@@@NAI@@QBE_NABVCVec3@@M@Z
??R?$_Eq_char_bound@U?$char_traits@D@std@@@_STL@@QBE_NABD@Z
??R?$_Eq_char_bound@U?$char_traits@G@std@@@_STL@@QBE_NABG@Z
??R?$_Not_within_traits@U?$char_traits@D@std@@@_STL@@QBE_NABD@Z
??R?$_Select1st@U?$pair@$$CBGUSTFCharacter@@@_STL@@@_STL@@QBEABGABU?$pair@$$CBGUSTFCharacter@@@1@@Z
??R?$_Select1st@U?$pair@$$CBHH@_STL@@@_STL@@QBEABHABU?$pair@$$CBHH@1@@Z
??R?$_Select1st@U?$pair@$$CBHP6IPAVCObjectBase@@XZ@_STL@@@_STL@@QBEABHABU?$pair@$$CBHP6IPAVCObjectBase@@XZ@1@@Z
??R?$_Select1st@U?$pair@$$CBHUSBodypart@CFileSkinPoints@NAI@@@_STL@@@_STL@@QBEABHABU?$pair@$$CBHUSBodypart@CFileSkinPoints@NAI@@@1@@Z
??R?$_Select1st@U?$pair@$$CBHUSFacesVector@NGScene@@@_STL@@@_STL@@QBEABHABU?$pair@$$CBHUSFacesVector@NGScene@@@1@@Z
??R?$_Select1st@U?$pair@$$CBHUSFloor@NBuilding@@@_STL@@@_STL@@QBEABHABU?$pair@$$CBHUSFloor@NBuilding@@@1@@Z
??R?$_Select1st@U?$pair@$$CBHUSFloorGroup@NBuilding@@@_STL@@@_STL@@QBEABHABU?$pair@$$CBHUSFloorGroup@NBuilding@@@1@@Z
??R?$_Select1st@U?$pair@$$CBHUSPiece@CGeometryInfo@NAI@@@_STL@@@_STL@@QBEABHABU?$pair@$$CBHUSPiece@CGeometryInfo@NAI@@@1@@Z
??R?$_Select1st@U?$pair@$$CBHUSPieceLinks@NDb@@@_STL@@@_STL@@QBEABHABU?$pair@$$CBHUSPieceLinks@NDb@@@1@@Z
??R?$_Select1st@U?$pair@$$CBHUSStoredPiece@NAI@@@_STL@@@_STL@@QBEABHABU?$pair@$$CBHUSStoredPiece@NAI@@@1@@Z
??R?$_Select1st@U?$pair@$$CBHUSStoredSkin@NAI@@@_STL@@@_STL@@QBEABHABU?$pair@$$CBHUSStoredSkin@NAI@@@1@@Z
??R?$_Select1st@U?$pair@$$CBHUSTemplate@CScenarioZone@NScenario@@@_STL@@@_STL@@QBEABHABU?$pair@$$CBHUSTemplate@CScenarioZone@NScenario@@@1@@Z
??R?$_Select1st@U?$pair@$$CBHUSUnitGroup@@@_STL@@@_STL@@QBEABHABU?$pair@$$CBHUSUnitGroup@@@1@@Z
??R?$_Select1st@U?$pair@$$CBHV?$CNodeMap@USSolidElement@NBuilding@@@NBuilding@@@_STL@@@_STL@@QBEABHABU?$pair@$$CBHV?$CNodeMap@USSolidElement@NBuilding@@@NBuilding@@@1@@Z
??R?$_Select1st@U?$pair@$$CBHV?$CObj@VCBuildingPart@NWorld@@@@@_STL@@@_STL@@QBEABHABU?$pair@$$CBHV?$CObj@VCBuildingPart@NWorld@@@@@1@@Z
??R?$_Select1st@U?$pair@$$CBHV?$CObj@VCDBRecord@@@@@_STL@@@_STL@@QBEABHABU?$pair@$$CBHV?$CObj@VCDBRecord@@@@@1@@Z
??R?$_Select1st@U?$pair@$$CBHV?$CObj@VCMapWaypoint@@@@@_STL@@@_STL@@QBEABHABU?$pair@$$CBHV?$CObj@VCMapWaypoint@@@@@1@@Z
??R?$_Select1st@U?$pair@$$CBHV?$CObj@VCPerk@NRPG@@@@@_STL@@@_STL@@QBEABHABU?$pair@$$CBHV?$CObj@VCPerk@NRPG@@@@@1@@Z
??R?$_Select1st@U?$pair@$$CBHV?$CObj@VCWindow@NUI@@@@@_STL@@@_STL@@QBEABHABU?$pair@$$CBHV?$CObj@VCWindow@NUI@@@@@1@@Z
??R?$_Select1st@U?$pair@$$CBHV?$CObj@VIMaterial@NGScene@@@@@_STL@@@_STL@@QBEABHABU?$pair@$$CBHV?$CObj@VIMaterial@NGScene@@@@@1@@Z
??R?$_Select1st@U?$pair@$$CBHV?$CPtr@VCAIGeometryConverter@NGScene@@@@@_STL@@@_STL@@QBEABHABU?$pair@$$CBHV?$CPtr@VCAIGeometryConverter@NGScene@@@@@1@@Z
??R?$_Select1st@U?$pair@$$CBHV?$CPtr@VCAISkinObjectConverter@NGScene@@@@@_STL@@@_STL@@QBEABHABU?$pair@$$CBHV?$CPtr@VCAISkinObjectConverter@NGScene@@@@@1@@Z
??R?$_Select1st@U?$pair@$$CBHV?$CPtr@VCBSPTree@NAI@@@@@_STL@@@_STL@@QBEABHABU?$pair@$$CBHV?$CPtr@VCBSPTree@NAI@@@@@1@@Z
??R?$_Select1st@U?$pair@$$CBHV?$CPtr@VCBuildInfoLoader@NBuilding@@@@@_STL@@@_STL@@QBEABHABU?$pair@$$CBHV?$CPtr@VCBuildInfoLoader@NBuilding@@@@@1@@Z
??R?$_Select1st@U?$pair@$$CBHV?$CPtr@VCChapterInfoLoader@@@@@_STL@@@_STL@@QBEABHABU?$pair@$$CBHV?$CPtr@VCChapterInfoLoader@@@@@1@@Z
??R?$_Select1st@U?$pair@$$CBHV?$CPtr@VCFileAIBind@NGScene@@@@@_STL@@@_STL@@QBEABHABU?$pair@$$CBHV?$CPtr@VCFileAIBind@NGScene@@@@@1@@Z
??R?$_Select1st@U?$pair@$$CBHV?$CPtr@VCFileAnimation@NAnimation@@@@@_STL@@@_STL@@QBEABHABU?$pair@$$CBHV?$CPtr@VCFileAnimation@NAnimation@@@@@1@@Z
??R?$_Select1st@U?$pair@$$CBHV?$CPtr@VCFileBind@NGScene@@@@@_STL@@@_STL@@QBEABHABU?$pair@$$CBHV?$CPtr@VCFileBind@NGScene@@@@@1@@Z
??R?$_Select1st@U?$pair@$$CBHV?$CPtr@VCFileCubeTexture@NGScene@@@@@_STL@@@_STL@@QBEABHABU?$pair@$$CBHV?$CPtr@VCFileCubeTexture@NGScene@@@@@1@@Z
??R?$_Select1st@U?$pair@$$CBHV?$CPtr@VCFileFont@NGScene@@@@@_STL@@@_STL@@QBEABHABU?$pair@$$CBHV?$CPtr@VCFileFont@NGScene@@@@@1@@Z
??R?$_Select1st@U?$pair@$$CBHV?$CPtr@VCFileLocators@NAnimation@@@@@_STL@@@_STL@@QBEABHABU?$pair@$$CBHV?$CPtr@VCFileLocators@NAnimation@@@@@1@@Z
??R?$_Select1st@U?$pair@$$CBHV?$CPtr@VCFileSample2D@NSound@@@@@_STL@@@_STL@@QBEABHABU?$pair@$$CBHV?$CPtr@VCFileSample2D@NSound@@@@@1@@Z
??R?$_Select1st@U?$pair@$$CBHV?$CPtr@VCFileSample3D@NSound@@@@@_STL@@@_STL@@QBEABHABU?$pair@$$CBHV?$CPtr@VCFileSample3D@NSound@@@@@1@@Z
??R?$_Select1st@U?$pair@$$CBHV?$CPtr@VCFileSkeleton@NAnimation@@@@@_STL@@@_STL@@QBEABHABU?$pair@$$CBHV?$CPtr@VCFileSkeleton@NAnimation@@@@@1@@Z
??R?$_Select1st@U?$pair@$$CBHV?$CPtr@VCFileSkinPointsLoad@NAI@@@@@_STL@@@_STL@@QBEABHABU?$pair@$$CBHV?$CPtr@VCFileSkinPointsLoad@NAI@@@@@1@@Z
??R?$_Select1st@U?$pair@$$CBHV?$CPtr@VCGlobalInfoLoader@@@@@_STL@@@_STL@@QBEABHABU?$pair@$$CBHV?$CPtr@VCGlobalInfoLoader@@@@@1@@Z
??R?$_Select1st@U?$pair@$$CBHV?$CPtr@VCHeadMeshLoader@NLSHead@@@@@_STL@@@_STL@@QBEABHABU?$pair@$$CBHV?$CPtr@VCHeadMeshLoader@NLSHead@@@@@1@@Z
??R?$_Select1st@U?$pair@$$CBHV?$CPtr@VCHeadSequenceLoader@NLSHead@@@@@_STL@@@_STL@@QBEABHABU?$pair@$$CBHV?$CPtr@VCHeadSequenceLoader@NLSHead@@@@@1@@Z
??R?$_Select1st@U?$pair@$$CBHV?$CPtr@VCLightLoader@NGScene@@@@@_STL@@@_STL@@QBEABHABU?$pair@$$CBHV?$CPtr@VCLightLoader@NGScene@@@@@1@@Z
??R?$_Select1st@U?$pair@$$CBHV?$CPtr@VCLoadGeometryInfo@NAI@@@@@_STL@@@_STL@@QBEABHABU?$pair@$$CBHV?$CPtr@VCLoadGeometryInfo@NAI@@@@@1@@Z
??R?$_Select1st@U?$pair@$$CBHV?$CPtr@VCLoadTwoBSPTrees@NAI@@@@@_STL@@@_STL@@QBEABHABU?$pair@$$CBHV?$CPtr@VCLoadTwoBSPTrees@NAI@@@@@1@@Z
??R?$_Select1st@U?$pair@$$CBHV?$CPtr@VCLocalAmbientCalcer@NGScene@@@@@_STL@@@_STL@@QBEABHABU?$pair@$$CBHV?$CPtr@VCLocalAmbientCalcer@NGScene@@@@@1@@Z
??R?$_Select1st@U?$pair@$$CBHV?$CPtr@VCMETerrainLoader@@@@@_STL@@@_STL@@QBEABHABU?$pair@$$CBHV?$CPtr@VCMETerrainLoader@@@@@1@@Z
??R?$_Select1st@U?$pair@$$CBHV?$CPtr@VCMapWaypoint@@@@@_STL@@@_STL@@QBEABHABU?$pair@$$CBHV?$CPtr@VCMapWaypoint@@@@@1@@Z
??R?$_Select1st@U?$pair@$$CBHV?$CPtr@VCParticlesLoader@NGScene@@@@@_STL@@@_STL@@QBEABHABU?$pair@$$CBHV?$CPtr@VCParticlesLoader@NGScene@@@@@1@@Z
??R?$_Select1st@U?$pair@$$CBHV?$CPtr@VCSWTexture@NGScene@@@@@_STL@@@_STL@@QBEABHABU?$pair@$$CBHV?$CPtr@VCSWTexture@NGScene@@@@@1@@Z
??R?$_Select1st@U?$pair@$$CBHV?$CPtr@VCUnitAIInfoLoader@NAI@@@@@_STL@@@_STL@@QBEABHABU?$pair@$$CBHV?$CPtr@VCUnitAIInfoLoader@NAI@@@@@1@@Z
??R?$_Select1st@U?$pair@$$CBHV?$CPtr@VCUnitGroupAIInfoLoader@NAI@@@@@_STL@@@_STL@@QBEABHABU?$pair@$$CBHV?$CPtr@VCUnitGroupAIInfoLoader@NAI@@@@@1@@Z
??R?$_Select1st@U?$pair@$$CBHV?$CPtr@VCUnitServer@NWorld@@@@@_STL@@@_STL@@QBEABHABU?$pair@$$CBHV?$CPtr@VCUnitServer@NWorld@@@@@1@@Z
??R?$_Select1st@U?$pair@$$CBHV?$CPtr@VCWaypointLoader@NAI@@@@@_STL@@@_STL@@QBEABHABU?$pair@$$CBHV?$CPtr@VCWaypointLoader@NAI@@@@@1@@Z
??R?$_Select1st@U?$pair@$$CBHV?$com_ptr@UIDirect3DSurface9@@@NWin32Helper@@@_STL@@@_STL@@QBEABHABU?$pair@$$CBHV?$com_ptr@UIDirect3DSurface9@@@NWin32Helper@@@1@@Z
??R?$_Select1st@U?$pair@$$CBHV?$hash_map@HV?$list@W4ECritical@NDb@@V?$allocator@W4ECritical@NDb@@@_STL@@@_STL@@U?$hash@H@2@U?$equal_to@H@2@V?$allocator@U?$pair@$$CBHV?$list@W4ECritical@NDb@@V?$allocator@W4ECritical@NDb@@@_STL@@@_STL@@@_STL@@@2@@_STL@@@_STL@@@_STL@@QBEABHABU?$pair@$$CBHV?$hash_map@HV?$list@W4ECritical@NDb@@V?$allocator@W4ECritical@NDb@@@_STL@@@_STL@@U?$hash@H@2@U?$equal_to@H@2@V?$allocator@U?$pair@$$CBHV?$list@W4ECritical@NDb@@V?$allocator@W4ECritical@NDb@@@_STL@@@_STL@@@_STL@@@2@@_STL@@@1@@Z
??R?$_Select1st@U?$pair@$$CBHV?$list@V?$CObj@VCScenarioFlowChartState@NScenario@@@@V?$allocator@V?$CObj@VCScenarioFlowChartState@NScenario@@@@@_STL@@@_STL@@@_STL@@@_STL@@QBEABHABU?$pair@$$CBHV?$list@V?$CObj@VCScenarioFlowChartState@NScenario@@@@V?$allocator@V?$CObj@VCScenarioFlowChartState@NScenario@@@@@_STL@@@_STL@@@1@@Z
??R?$_Select1st@U?$pair@$$CBHV?$list@W4ECritical@NDb@@V?$allocator@W4ECritical@NDb@@@_STL@@@_STL@@@_STL@@@_STL@@QBEABHABU?$pair@$$CBHV?$list@W4ECritical@NDb@@V?$allocator@W4ECritical@NDb@@@_STL@@@_STL@@@1@@Z
??R?$_Select1st@U?$pair@$$CBHVCCubemapBufferSet@NGfx@@@_STL@@@_STL@@QBEABHABU?$pair@$$CBHVCCubemapBufferSet@NGfx@@@1@@Z
??R?$_Select1st@U?$pair@$$CBHVCTextureBuffersSet@NGfx@@@_STL@@@_STL@@QBEABHABU?$pair@$$CBHVCTextureBuffersSet@NGfx@@@1@@Z
??R?$_Select1st@U?$pair@$$CBH_N@_STL@@@_STL@@QBEABHABU?$pair@$$CBH_N@1@@Z
??R?$_Select1st@U?$pair@$$CBKH@_STL@@@_STL@@QBEABKABU?$pair@$$CBKH@1@@Z
??R?$_Select1st@U?$pair@$$CBUCIVec3@NBuilding@@VCJunctionID@2@@_STL@@@_STL@@QBEABUCIVec3@NBuilding@@ABU?$pair@$$CBUCIVec3@NBuilding@@VCJunctionID@2@@1@@Z
??R?$_Select1st@U?$pair@$$CBUSClipShare@NGScene@@V?$CPtr@VCSolidObjectInfoClipper@NGScene@@@@@_STL@@@_STL@@QBEABUSClipShare@NGScene@@ABU?$pair@$$CBUSClipShare@NGScene@@V?$CPtr@VCSolidObjectInfoClipper@NGScene@@@@@1@@Z
??R?$_Select1st@U?$pair@$$CBUSClipShare@NGScene@@V?$CPtr@VCWallObjectInfoClipper@NGScene@@@@@_STL@@@_STL@@QBEABUSClipShare@NGScene@@ABU?$pair@$$CBUSClipShare@NGScene@@V?$CPtr@VCWallObjectInfoClipper@NGScene@@@@@1@@Z
??R?$_Select1st@U?$pair@$$CBUSCompoundPosKey@NGScene@@H@_STL@@@_STL@@QBEABUSCompoundPosKey@NGScene@@ABU?$pair@$$CBUSCompoundPosKey@NGScene@@H@1@@Z
??R?$_Select1st@U?$pair@$$CBUSDecalTargetPart@NGScene@@V?$vector@V?$CPtr@VCDecal@NGScene@@@@V?$allocator@V?$CPtr@VCDecal@NGScene@@@@@_STL@@@_STL@@@_STL@@@_STL@@QBEABUSDecalTargetPart@NGScene@@ABU?$pair@$$CBUSDecalTargetPart@NGScene@@V?$vector@V?$CPtr@VCDecal@NGScene@@@@V?$allocator@V?$CPtr@VCDecal@NGScene@@@@@_STL@@@_STL@@@1@@Z
??R?$_Select1st@U?$pair@$$CBUSEdge@NGScene@@H@_STL@@@_STL@@QBEABUSEdge@NGScene@@ABU?$pair@$$CBUSEdge@NGScene@@H@1@@Z
??R?$_Select1st@U?$pair@$$CBUSEdgeInfo@NGScene@@H@_STL@@@_STL@@QBEABUSEdgeInfo@NGScene@@ABU?$pair@$$CBUSEdgeInfo@NGScene@@H@1@@Z
??R?$_Select1st@U?$pair@$$CBUSGeometryType@NGfx@@V?$CObj@V?$CLinearBuffer@VCVB@NGfx@@VCUserGeometry@2@@NGfx@@@@@_STL@@@_STL@@QBEABUSGeometryType@NGfx@@ABU?$pair@$$CBUSGeometryType@NGfx@@V?$CObj@V?$CLinearBuffer@VCVB@NGfx@@VCUserGeometry@2@@NGfx@@@@@1@@Z
??R?$_Select1st@U?$pair@$$CBUSLoadVertex@NGScene@@H@_STL@@@_STL@@QBEABUSLoadVertex@NGScene@@ABU?$pair@$$CBUSLoadVertex@NGScene@@H@1@@Z
??R?$_Select1st@U?$pair@$$CBUSMemBuilderVertex@@H@_STL@@@_STL@@QBEABUSMemBuilderVertex@@ABU?$pair@$$CBUSMemBuilderVertex@@H@1@@Z
??R?$_Select1st@U?$pair@$$CBUSPart@NBuilding@@USStoreyInfo@2@@_STL@@@_STL@@QBEABUSPart@NBuilding@@ABU?$pair@$$CBUSPart@NBuilding@@USStoreyInfo@2@@1@@Z
??R?$_Select1st@U?$pair@$$CBUSPart@NBuilding@@_N@_STL@@@_STL@@QBEABUSPart@NBuilding@@ABU?$pair@$$CBUSPart@NBuilding@@_N@1@@Z
??R?$_Select1st@U?$pair@$$CBUSPartKey@NGScene@@V?$CPtr@VCObjectInfoLoader@NGScene@@@@@_STL@@@_STL@@QBEABUSPartKey@NGScene@@ABU?$pair@$$CBUSPartKey@NGScene@@V?$CPtr@VCObjectInfoLoader@NGScene@@@@@1@@Z
??R?$_Select1st@U?$pair@$$CBUSPartKey@NGScene@@V?$CPtr@VCObjectInfoPiecesLoader@NGScene@@@@@_STL@@@_STL@@QBEABUSPartKey@NGScene@@ABU?$pair@$$CBUSPartKey@NGScene@@V?$CPtr@VCObjectInfoPiecesLoader@NGScene@@@@@1@@Z
??R?$_Select1st@U?$pair@$$CBUSPartKey@NGScene@@_N@_STL@@@_STL@@QBEABUSPartKey@NGScene@@ABU?$pair@$$CBUSPartKey@NGScene@@_N@1@@Z
??R?$_Select1st@U?$pair@$$CBUSPathPlace@NAI@@U12@@_STL@@@_STL@@QBEABUSPathPlace@NAI@@ABU?$pair@$$CBUSPathPlace@NAI@@U12@@1@@Z
??R?$_Select1st@U?$pair@$$CBUSPathPlace@NAI@@U?$SMoveInfo@USPathPlace@NAI@@G@2@@_STL@@@_STL@@QBEABUSPathPlace@NAI@@ABU?$pair@$$CBUSPathPlace@NAI@@U?$SMoveInfo@USPathPlace@NAI@@G@2@@1@@Z
??R?$_Select1st@U?$pair@$$CBUSPathPlace@NAI@@USLadderTransition@CNodesLayer@2@@_STL@@@_STL@@QBEABUSPathPlace@NAI@@ABU?$pair@$$CBUSPathPlace@NAI@@USLadderTransition@CNodesLayer@2@@1@@Z
??R?$_Select1st@U?$pair@$$CBUSPathPlace@NAI@@USTile@2@@_STL@@@_STL@@QBEABUSPathPlace@NAI@@ABU?$pair@$$CBUSPathPlace@NAI@@USTile@2@@1@@Z
??R?$_Select1st@U?$pair@$$CBUSPathPlace@NAI@@USTransitionSet@CNodesLayer@2@@_STL@@@_STL@@QBEABUSPathPlace@NAI@@ABU?$pair@$$CBUSPathPlace@NAI@@USTransitionSet@CNodesLayer@2@@1@@Z
??R?$_Select1st@U?$pair@$$CBUSPlane@@USPolygonIndices@NGScene@@@_STL@@@_STL@@QBEABUSPlane@@ABU?$pair@$$CBUSPlane@@USPolygonIndices@NGScene@@@1@@Z
??R?$_Select1st@U?$pair@$$CBUSPointLightPos@CLightmapTracker@NGScene@@V?$CObj@VCCubeTexture@NGfx@@@@@_STL@@@_STL@@QBEABUSPointLightPos@CLightmapTracker@NGScene@@ABU?$pair@$$CBUSPointLightPos@CLightmapTracker@NGScene@@V?$CObj@VCCubeTexture@NGfx@@@@@1@@Z
??R?$_Select1st@U?$pair@$$CBUSRenderFragmentKey@NGScene@@H@_STL@@@_STL@@QBEABUSRenderFragmentKey@NGScene@@ABU?$pair@$$CBUSRenderFragmentKey@NGScene@@H@1@@Z
??R?$_Select1st@U?$pair@$$CBUSRenderStateKey@NGfx@@K@_STL@@@_STL@@QBEABUSRenderStateKey@NGfx@@ABU?$pair@$$CBUSRenderStateKey@NGfx@@K@1@@Z
??R?$_Select1st@U?$pair@$$CBUSSrcPosInfo@NGScene@@V?$vector@VCVec3@@V?$allocator@VCVec3@@@_STL@@@_STL@@@_STL@@@_STL@@QBEABUSSrcPosInfo@NGScene@@ABU?$pair@$$CBUSSrcPosInfo@NGScene@@V?$vector@VCVec3@@V?$allocator@VCVec3@@@_STL@@@_STL@@@1@@Z
??R?$_Select1st@U?$pair@$$CBUSTextureKey@NGScene@@V?$CPtr@VCFileTexture@NGScene@@@@@_STL@@@_STL@@QBEABUSTextureKey@NGScene@@ABU?$pair@$$CBUSTextureKey@NGScene@@V?$CPtr@VCFileTexture@NGScene@@@@@1@@Z
??R?$_Select1st@U?$pair@$$CBUSVisionQuery@NRPG@@_N@_STL@@@_STL@@QBEABUSVisionQuery@NRPG@@ABU?$pair@$$CBUSVisionQuery@NRPG@@_N@1@@Z
??R?$_Select1st@U?$pair@$$CBUSVoxelObjectKey@NAI@@USExplObject@CExplVoxelRenderer@2@@_STL@@@_STL@@QBEABUSVoxelObjectKey@NAI@@ABU?$pair@$$CBUSVoxelObjectKey@NAI@@USExplObject@CExplVoxelRenderer@2@@1@@Z
??R?$_Select1st@U?$pair@$$CBUSZone@NAI@@USDistanceInfo@2@@_STL@@@_STL@@QBEABUSZone@NAI@@ABU?$pair@$$CBUSZone@NAI@@USDistanceInfo@2@@1@@Z
??R?$_Select1st@U?$pair@$$CBUSZone@NAI@@_N@_STL@@@_STL@@QBEABUSZone@NAI@@ABU?$pair@$$CBUSZone@NAI@@_N@1@@Z
??R?$_Select1st@U?$pair@$$CBV?$CPtr@UIVisObj@NWorld@@@@H@_STL@@@_STL@@QBEABV?$CPtr@UIVisObj@NWorld@@@@ABU?$pair@$$CBV?$CPtr@UIVisObj@NWorld@@@@H@1@@Z
??R?$_Select1st@U?$pair@$$CBV?$CPtr@V?$CFuncBase@USTerrainInfo@@@@@@V?$CObj@VCGrassTracker@NGScene@@@@@_STL@@@_STL@@QBEABV?$CPtr@V?$CFuncBase@USTerrainInfo@@@@@@ABU?$pair@$$CBV?$CPtr@V?$CFuncBase@USTerrainInfo@@@@@@V?$CObj@VCGrassTracker@NGScene@@@@@1@@Z
??R?$_Select1st@U?$pair@$$CBV?$CPtr@VCAIAction@NAI@@@@H@_STL@@@_STL@@QBEABV?$CPtr@VCAIAction@NAI@@@@ABU?$pair@$$CBV?$CPtr@VCAIAction@NAI@@@@H@1@@Z
??R?$_Select1st@U?$pair@$$CBV?$CPtr@VCAIAction@NAI@@@@_N@_STL@@@_STL@@QBEABV?$CPtr@VCAIAction@NAI@@@@ABU?$pair@$$CBV?$CPtr@VCAIAction@NAI@@@@_N@1@@Z
??R?$_Select1st@U?$pair@$$CBV?$CPtr@VCObjectBase@@@@H@_STL@@@_STL@@QBEABV?$CPtr@VCObjectBase@@@@ABU?$pair@$$CBV?$CPtr@VCObjectBase@@@@H@1@@Z
??R?$_Select1st@U?$pair@$$CBV?$CPtr@VCObjectBase@@@@USDynLockInfo@CPathNetwork@NAI@@@_STL@@@_STL@@QBEABV?$CPtr@VCObjectBase@@@@ABU?$pair@$$CBV?$CPtr@VCObjectBase@@@@USDynLockInfo@CPathNetwork@NAI@@@1@@Z
??R?$_Select1st@U?$pair@$$CBV?$CPtr@VCObjectBase@@@@USLockInfo@CPathNetwork@NAI@@@_STL@@@_STL@@QBEABV?$CPtr@VCObjectBase@@@@ABU?$pair@$$CBV?$CPtr@VCObjectBase@@@@USLockInfo@CPathNetwork@NAI@@@1@@Z
??R?$_Select1st@U?$pair@$$CBV?$CPtr@VCObjectBase@@@@V?$CPtr@VCSelection@NRender@@@@@_STL@@@_STL@@QBEABV?$CPtr@VCObjectBase@@@@ABU?$pair@$$CBV?$CPtr@VCObjectBase@@@@V?$CPtr@VCSelection@NRender@@@@@1@@Z
??R?$_Select1st@U?$pair@$$CBV?$CPtr@VCObjectBase@@@@V?$list@HV?$allocator@H@_STL@@@_STL@@@_STL@@@_STL@@QBEABV?$CPtr@VCObjectBase@@@@ABU?$pair@$$CBV?$CPtr@VCObjectBase@@@@V?$list@HV?$allocator@H@_STL@@@_STL@@@1@@Z
??R?$_Select1st@U?$pair@$$CBV?$CPtr@VCObjectBase@@@@VCPartFlags@NGScene@@@_STL@@@_STL@@QBEABV?$CPtr@VCObjectBase@@@@ABU?$pair@$$CBV?$CPtr@VCObjectBase@@@@VCPartFlags@NGScene@@@1@@Z
??R?$_Select1st@U?$pair@$$CBV?$CPtr@VCObjectBase@@@@_N@_STL@@@_STL@@QBEABV?$CPtr@VCObjectBase@@@@ABU?$pair@$$CBV?$CPtr@VCObjectBase@@@@_N@1@@Z
??R?$_Select1st@U?$pair@$$CBV?$CPtr@VCScenarioClue@NScenario@@@@H@_STL@@@_STL@@QBEABV?$CPtr@VCScenarioClue@NScenario@@@@ABU?$pair@$$CBV?$CPtr@VCScenarioClue@NScenario@@@@H@1@@Z
??R?$_Select1st@U?$pair@$$CBV?$CPtr@VCScenarioClue@NScenario@@@@USClueSlot@@@_STL@@@_STL@@QBEABV?$CPtr@VCScenarioClue@NScenario@@@@ABU?$pair@$$CBV?$CPtr@VCScenarioClue@NScenario@@@@USClueSlot@@@1@@Z
??R?$_Select1st@U?$pair@$$CBV?$CPtr@VCTB@NGfx@@@@V?$CObj@VCTexture@NGfx@@@@@_STL@@@_STL@@QBEABV?$CPtr@VCTB@NGfx@@@@ABU?$pair@$$CBV?$CPtr@VCTB@NGfx@@@@V?$CObj@VCTexture@NGfx@@@@@1@@Z
??R?$_Select1st@U?$pair@$$CBV?$CPtr@VCUnit@NRPG@@@@USUnitDeployData@NRPG@@@_STL@@@_STL@@QBEABV?$CPtr@VCUnit@NRPG@@@@ABU?$pair@$$CBV?$CPtr@VCUnit@NRPG@@@@USUnitDeployData@NRPG@@@1@@Z
??R?$_Select1st@U?$pair@$$CBV?$CPtr@VCUnit@NWorld@@@@_N@_STL@@@_STL@@QBEABV?$CPtr@VCUnit@NWorld@@@@ABU?$pair@$$CBV?$CPtr@VCUnit@NWorld@@@@_N@1@@Z
??R?$_Select1st@U?$pair@$$CBV?$CPtr@VCUnitServer@NWorld@@@@V?$CPtr@VIPassageObject@NWorld@@@@@_STL@@@_STL@@QBEABV?$CPtr@VCUnitServer@NWorld@@@@ABU?$pair@$$CBV?$CPtr@VCUnitServer@NWorld@@@@V?$CPtr@VIPassageObject@NWorld@@@@@1@@Z
??R?$_Select1st@U?$pair@$$CBV?$CPtr@VIAIJob@NAI@@@@V?$list@V?$CPtr@VIAIJob@NAI@@@@V?$allocator@V?$CPtr@VIAIJob@NAI@@@@@_STL@@@_STL@@@_STL@@@_STL@@QBEABV?$CPtr@VIAIJob@NAI@@@@ABU?$pair@$$CBV?$CPtr@VIAIJob@NAI@@@@V?$list@V?$CPtr@VIAIJob@NAI@@@@V?$allocator@V?$CPtr@VIAIJob@NAI@@@@@_STL@@@_STL@@@1@@Z
??R?$_Select1st@U?$pair@$$CBV?$CPtr@VIInventoryItem@NRPG@@@@V?$CPtr@VCItemText@NUI@@@@@_STL@@@_STL@@QBEABV?$CPtr@VIInventoryItem@NRPG@@@@ABU?$pair@$$CBV?$CPtr@VIInventoryItem@NRPG@@@@V?$CPtr@VCItemText@NUI@@@@@1@@Z
??R?$_Select1st@U?$pair@$$CBV?$CPtr@VIPostProcess@NGScene@@@@V?$vector@USObject@IPostProcess@NGScene@@V?$allocator@USObject@IPostProcess@NGScene@@@_STL@@@_STL@@@_STL@@@_STL@@QBEABV?$CPtr@VIPostProcess@NGScene@@@@ABU?$pair@$$CBV?$CPtr@VIPostProcess@NGScene@@@@V?$vector@USObject@IPostProcess@NGScene@@V?$allocator@USObject@IPostProcess@NGScene@@@_STL@@@_STL@@@1@@Z
??R?$_Select1st@U?$pair@$$CBV?$CTPoint@H@@VCJunctionID@NBuilding@@@_STL@@@_STL@@QBEABV?$CTPoint@H@@ABU?$pair@$$CBV?$CTPoint@H@@VCJunctionID@NBuilding@@@1@@Z
??R?$_Select1st@U?$pair@$$CBV?$basic_string@DU?$char_traits@D@std@@V?$allocator@D@_STL@@@_STL@@H@_STL@@@_STL@@QBEABV?$basic_string@DU?$char_traits@D@std@@V?$allocator@D@_STL@@@1@ABU?$pair@$$CBV?$basic_string@DU?$char_traits@D@std@@V?$allocator@D@_STL@@@_STL@@H@1@@Z
??R?$_Select1st@U?$pair@$$CBV?$basic_string@DU?$char_traits@D@std@@V?$allocator@D@_STL@@@_STL@@V?$CObj@VCAIRouteWaypoint@NAI@@@@@_STL@@@_STL@@QBEABV?$basic_string@DU?$char_traits@D@std@@V?$allocator@D@_STL@@@1@ABU?$pair@$$CBV?$basic_string@DU?$char_traits@D@std@@V?$allocator@D@_STL@@@_STL@@V?$CObj@VCAIRouteWaypoint@NAI@@@@@1@@Z
??R?$_Select1st@U?$pair@$$CBV?$basic_string@DU?$char_traits@D@std@@V?$allocator@D@_STL@@@_STL@@V?$CPtr@VCObjectBase@@@@@_STL@@@_STL@@QBEABV?$basic_string@DU?$char_traits@D@std@@V?$allocator@D@_STL@@@1@ABU?$pair@$$CBV?$basic_string@DU?$char_traits@D@std@@V?$allocator@D@_STL@@@_STL@@V?$CPtr@VCObjectBase@@@@@1@@Z
??R?$_Select1st@U?$pair@$$CBV?$basic_string@DU?$char_traits@D@std@@V?$allocator@D@_STL@@@_STL@@V?$CPtr@VIFilesPackage@@@@@_STL@@@_STL@@QBEABV?$basic_string@DU?$char_traits@D@std@@V?$allocator@D@_STL@@@1@ABU?$pair@$$CBV?$basic_string@DU?$char_traits@D@std@@V?$allocator@D@_STL@@@_STL@@V?$CPtr@VIFilesPackage@@@@@1@@Z
??R?$_Select1st@U?$pair@$$CBV?$basic_string@GU?$char_traits@G@std@@V?$allocator@G@_STL@@@_STL@@V12@@_STL@@@_STL@@QBEABV?$basic_string@GU?$char_traits@G@std@@V?$allocator@G@_STL@@@1@ABU?$pair@$$CBV?$basic_string@GU?$char_traits@G@std@@V?$allocator@G@_STL@@@_STL@@V12@@1@@Z
??R?$_Select1st@U?$pair@$$CBV?$basic_string@GU?$char_traits@G@std@@V?$allocator@G@_STL@@@_STL@@V?$CObj@VIMLHandler@NUI@@@@@_STL@@@_STL@@QBEABV?$basic_string@GU?$char_traits@G@std@@V?$allocator@G@_STL@@@1@ABU?$pair@$$CBV?$basic_string@GU?$char_traits@G@std@@V?$allocator@G@_STL@@@_STL@@V?$CObj@VIMLHandler@NUI@@@@@1@@Z
??R?$_Select1st@U?$pair@$$CBVCVec3@@H@_STL@@@_STL@@QBEABVCVec3@@ABU?$pair@$$CBVCVec3@@H@1@@Z
??R?$_Select1st@U?$pair@$$CBVCVec3@@USDynamicAmbientInfo@NGScene@@@_STL@@@_STL@@QBEABVCVec3@@ABU?$pair@$$CBVCVec3@@USDynamicAmbientInfo@NGScene@@@1@@Z
??R?$_Select1st@U?$pair@$$CBVCVec3@@V?$CObj@VIMaterial@NGScene@@@@@_STL@@@_STL@@QBEABVCVec3@@ABU?$pair@$$CBVCVec3@@V?$CObj@VIMaterial@NGScene@@@@@1@@Z
??R?$_Select1st@U?$pair@$$CBVCVec3@@V?$list@PAVCPolyline@NGScene@@V?$allocator@PAVCPolyline@NGScene@@@_STL@@@_STL@@@_STL@@@_STL@@QBEABVCVec3@@ABU?$pair@$$CBVCVec3@@V?$list@PAVCPolyline@NGScene@@V?$allocator@PAVCPolyline@NGScene@@@_STL@@@_STL@@@1@@Z
??R?$_Select1st@U?$pair@$$CBVCVec3@@V?$vector@V?$CObj@VCMine@NWorld@@@@V?$allocator@V?$CObj@VCMine@NWorld@@@@@_STL@@@_STL@@@_STL@@@_STL@@QBEABVCVec3@@ABU?$pair@$$CBVCVec3@@V?$vector@V?$CObj@VCMine@NWorld@@@@V?$allocator@V?$CObj@VCMine@NWorld@@@@@_STL@@@_STL@@@1@@Z
??R?$_Select1st@U?$pair@$$CBVCVec4@@V?$CObj@VIMaterial@NGScene@@@@@_STL@@@_STL@@QBEABVCVec4@@ABU?$pair@$$CBVCVec4@@V?$CObj@VIMaterial@NGScene@@@@@1@@Z
??R?$_Select1st@U?$pair@$$CBVCVec4@@V?$list@V?$CPtr@VCSelection@NGScene@@@@V?$allocator@V?$CPtr@VCSelection@NGScene@@@@@_STL@@@_STL@@@_STL@@@_STL@@QBEABVCVec4@@ABU?$pair@$$CBVCVec4@@V?$list@V?$CPtr@VCSelection@NGScene@@@@V?$allocator@V?$CPtr@VCSelection@NGScene@@@@@_STL@@@_STL@@@1@@Z
??R?$_Select1st@U?$pair@$$CBW4_D3DFORMAT@@V?$CPtr@VCSurfaceRing@NGfx@@@@@_STL@@@_STL@@QBEABW4_D3DFORMAT@@ABU?$pair@$$CBW4_D3DFORMAT@@V?$CPtr@VCSurfaceRing@NGfx@@@@@1@@Z
??R?$_Select1st@U?$pair@QBVtype_info@@H@_STL@@@_STL@@QBEABQBVtype_info@@ABU?$pair@QBVtype_info@@H@1@@Z
??R?$equal_to@G@_STL@@QBE_NABG0@Z
??R?$equal_to@H@_STL@@QBE_NABH0@Z
??R?$equal_to@K@_STL@@QBE_NABK0@Z
??R?$equal_to@PBVtype_info@@@_STL@@QBE_NABQBVtype_info@@0@Z
??R?$equal_to@UCIVec3@NBuilding@@@_STL@@QBE_NABUCIVec3@NBuilding@@0@Z
??R?$equal_to@USClipShare@NGScene@@@_STL@@QBE_NABUSClipShare@NGScene@@0@Z
??R?$equal_to@USCompoundPosKey@NGScene@@@_STL@@QBE_NABUSCompoundPosKey@NGScene@@0@Z
??R?$equal_to@USDecalTargetPart@NGScene@@@_STL@@QBE_NABUSDecalTargetPart@NGScene@@0@Z
??R?$equal_to@USEdge@NGScene@@@_STL@@QBE_NABUSEdge@NGScene@@0@Z
??R?$equal_to@USEdgeInfo@NGScene@@@_STL@@QBE_NABUSEdgeInfo@NGScene@@0@Z
??R?$equal_to@USGeometryType@NGfx@@@_STL@@QBE_NABUSGeometryType@NGfx@@0@Z
??R?$equal_to@USLoadVertex@NGScene@@@_STL@@QBE_NABUSLoadVertex@NGScene@@0@Z
??R?$equal_to@USMemBuilderVertex@@@_STL@@QBE_NABUSMemBuilderVertex@@0@Z
??R?$equal_to@USPart@NBuilding@@@_STL@@QBE_NABUSPart@NBuilding@@0@Z
??R?$equal_to@USPartKey@NGScene@@@_STL@@QBE_NABUSPartKey@NGScene@@0@Z
??R?$equal_to@USPathPlace@NAI@@@_STL@@QBE_NABUSPathPlace@NAI@@0@Z
??R?$equal_to@USPlane@@@_STL@@QBE_NABUSPlane@@0@Z
??R?$equal_to@USPointLightPos@CLightmapTracker@NGScene@@@_STL@@QBE_NABUSPointLightPos@CLightmapTracker@NGScene@@0@Z
??R?$equal_to@USRenderFragmentKey@NGScene@@@_STL@@QBE_NABUSRenderFragmentKey@NGScene@@0@Z
??R?$equal_to@USRenderStateKey@NGfx@@@_STL@@QBE_NABUSRenderStateKey@NGfx@@0@Z
??R?$equal_to@USSrcPosInfo@NGScene@@@_STL@@QBE_NABUSSrcPosInfo@NGScene@@0@Z
??R?$equal_to@USTextureKey@NGScene@@@_STL@@QBE_NABUSTextureKey@NGScene@@0@Z
??R?$equal_to@USVisionQuery@NRPG@@@_STL@@QBE_NABUSVisionQuery@NRPG@@0@Z
??R?$equal_to@USVoxelObjectKey@NAI@@@_STL@@QBE_NABUSVoxelObjectKey@NAI@@0@Z
??R?$equal_to@USZone@NAI@@@_STL@@QBE_NABUSZone@NAI@@0@Z
??R?$equal_to@V?$CPtr@UIVisObj@NWorld@@@@@_STL@@QBE_NABV?$CPtr@UIVisObj@NWorld@@@@0@Z
??R?$equal_to@V?$CPtr@V?$CFuncBase@USTerrainInfo@@@@@@@_STL@@QBE_NABV?$CPtr@V?$CFuncBase@USTerrainInfo@@@@@@0@Z
??R?$equal_to@V?$CPtr@VCAIAction@NAI@@@@@_STL@@QBE_NABV?$CPtr@VCAIAction@NAI@@@@0@Z
??R?$equal_to@V?$CPtr@VCObjectBase@@@@@_STL@@QBE_NABV?$CPtr@VCObjectBase@@@@0@Z
??R?$equal_to@V?$CPtr@VCScenarioClue@NScenario@@@@@_STL@@QBE_NABV?$CPtr@VCScenarioClue@NScenario@@@@0@Z
??R?$equal_to@V?$CPtr@VCTB@NGfx@@@@@_STL@@QBE_NABV?$CPtr@VCTB@NGfx@@@@0@Z
??R?$equal_to@V?$CPtr@VCUnit@NRPG@@@@@_STL@@QBE_NABV?$CPtr@VCUnit@NRPG@@@@0@Z
??R?$equal_to@V?$CPtr@VCUnit@NWorld@@@@@_STL@@QBE_NABV?$CPtr@VCUnit@NWorld@@@@0@Z
??R?$equal_to@V?$CPtr@VCUnitServer@NWorld@@@@@_STL@@QBE_NABV?$CPtr@VCUnitServer@NWorld@@@@0@Z
??R?$equal_to@V?$CPtr@VIAIJob@NAI@@@@@_STL@@QBE_NABV?$CPtr@VIAIJob@NAI@@@@0@Z
??R?$equal_to@V?$CPtr@VIInventoryItem@NRPG@@@@@_STL@@QBE_NABV?$CPtr@VIInventoryItem@NRPG@@@@0@Z
??R?$equal_to@V?$CPtr@VIPostProcess@NGScene@@@@@_STL@@QBE_NABV?$CPtr@VIPostProcess@NGScene@@@@0@Z
??R?$equal_to@V?$CTPoint@H@@@_STL@@QBE_NABV?$CTPoint@H@@0@Z
??R?$equal_to@V?$basic_string@DU?$char_traits@D@std@@V?$allocator@D@_STL@@@_STL@@@_STL@@QBE_NABV?$basic_string@DU?$char_traits@D@std@@V?$allocator@D@_STL@@@1@0@Z
??R?$equal_to@V?$basic_string@GU?$char_traits@G@std@@V?$allocator@G@_STL@@@_STL@@@_STL@@QBE_NABV?$basic_string@GU?$char_traits@G@std@@V?$allocator@G@_STL@@@1@0@Z
??R?$equal_to@VCVec3@@@_STL@@QBE_NABVCVec3@@0@Z
??R?$equal_to@VCVec4@@@_STL@@QBE_NABVCVec4@@0@Z
??R?$equal_to@W4_D3DFORMAT@@@_STL@@QBE_NABW4_D3DFORMAT@@0@Z
??R?$hash@G@_STL@@QBEIG@Z
??R?$hash@H@_STL@@QBEIH@Z
??R?$hash@K@_STL@@QBEIK@Z
??R?$hash@V?$basic_string@DU?$char_traits@D@std@@V?$allocator@D@_STL@@@_STL@@@_STL@@QBEIABV?$basic_string@DU?$char_traits@D@std@@V?$allocator@D@_STL@@@1@@Z
??R?$hash@V?$basic_string@GU?$char_traits@G@std@@V?$allocator@G@_STL@@@_STL@@@_STL@@QBEIABV?$basic_string@GU?$char_traits@G@std@@V?$allocator@G@_STL@@@1@@Z
??R?$less@H@_STL@@QBE_NABH0@Z
??R?$less@I@_STL@@QBE_NABI0@Z
??R?$less@K@_STL@@QBE_NABK0@Z
??R?$less@M@_STL@@QBE_NABM0@Z
??R?$less@USRay@CCoverInfo@NRPG@@@_STL@@QBE_NABUSRay@CCoverInfo@NRPG@@0@Z
??R?$less@V?$basic_string@DU?$char_traits@D@std@@V?$allocator@D@_STL@@@_STL@@@_STL@@QBE_NABV?$basic_string@DU?$char_traits@D@std@@V?$allocator@D@_STL@@@1@0@Z
??R?$pointer_to_unary_function@HH@_STL@@QBEHH@Z
??RCInterpolateColor@NGfx@@QBEKKKM@Z
??RCLayerColorConstraints@NAI@@QBE_NABUSPathPlace@1@0@Z
??RCalcCompoundKeyHash@NGScene@@QBEHABUSCompoundPosKey@1@@Z
??RJuncsSort@NBuilding@@QAE_NHABH@Z
??RSAddHeightBlend@@QBEXPAGMM@Z
??RSAlways@NAI@@QBE_NABUSPathPlace@1@0@Z
??RSAlwaysTrue@NAI@@QBE_NABVCVec3@@M@Z
??RSBoolCollider@NAI@@QAE_NABUSColliderUserInfo@1@@Z
??RSBoundIntersectFilter@NGScene@@QBE?AW4EFragmentsSplit@1@PAUSRenderStaticInfo@1@PAUSRenderGeometryInfo@1@PAVCPartFlags@1@@Z
??RSClipInfoHash@NGScene@@QBEHABUSClipShare@1@@Z
??RSCluesSort@NUI@@QBE_NPAVCScenarioClue@NScenario@@0@Z
??RSCmpFragments@NGScene@@QAE_NHH@Z
??RSCollisionFunctional@NAnimation@@QBE_NABUSCollision@1@0@Z
??RSColorBlend@@QBEXPAKMM@Z
??RSColorHash@NGScene@@QBEHABVCVec3@@@Z
??RSCompareInterruptStrength@NWorld@@QBE_NABUSNotice@SInterruptInfo@1@0@Z
??RSCompareOps@NGScene@@QAE_NPBUSOperation@CRenderCmdList@1@0@Z
??RSControlsSort@NUI@@QBE_NPAVCUIControl@NDb@@0@Z
??RSCrossSort@@QAE_NABVCVec2@@0@Z
??RSD3DFormatHash@NGfx@@QBEHW4_D3DFORMAT@@@Z
??RSDecalTargetPartHash@NGScene@@QBEHABUSDecalTargetPart@1@@Z
??RSDefaultPtrHash@@QBEHPBX@Z
??RSDoorColliderAnalyzer@NAI@@QAE_NABUSColliderUserInfo@1@@Z
??RSEdgeHash@NGScene@@QBEHABUSEdge@1@@Z
??RSEdgeInfoHash@NGScene@@QBEHABUSEdgeInfo@1@@Z
??RSFrictionCollider@NAI@@QAE_NMABVCVec3@@ABUSPlane@@ABUSColliderUserInfo@1@@Z
??RSFrustrumFilter@NGScene@@QBE?AW4EFragmentsSplit@1@PAUSRenderStaticInfo@1@PAUSRenderGeometryInfo@1@PAVCPartFlags@1@@Z
??RSGeometryTypeHash@NGfx@@QBEHABUSGeometryType@1@@Z
??RSGrassBlend@@QBEXPAEMM@Z
??RSGroundHash@NBuilding@@QBEHABV?$CTPoint@H@@@Z
??RSHeightBlend@@QBEXPAGMM@Z
??RSInfoCollider@NAI@@QAE_NMABVCVec3@@ABUSPlane@@ABUSColliderUserInfo@1@@Z
??RSInvItemSort@NUI@@QBE_NPAVCItemText@1@0@Z
??RSItemsSort@NRPG@@QBE_NABUSBackPackItem@1@0@Z
??RSJunctionHash@NBuilding@@QBEHABUCIVec3@1@@Z
??RSLightmappedFilter@NGScene@@QBE_NPAUSRenderFragmentInfo@1@@Z
??RSLoadVertexHash@NGScene@@QBEHABUSLoadVertex@1@@Z
??RSMemBuilderVertexHash@@QBEHABUSMemBuilderVertex@@@Z
??RSNonLightmappedFilter@NGScene@@QBE_NPAUSRenderFragmentInfo@1@@Z
??RSPart@NBuilding@@QBEHABU01@@Z
??RSPartHash@NGScene@@QBEHABUSPartKey@1@@Z
??RSPathPlaceHash@NAI@@QBEHABUSPathPlace@1@@Z
??RSPlaneHash@NGScene@@QBEHABUSPlane@@@Z
??RSPointLightPosHash@CLightmapTracker@NGScene@@QBEHABUSPointLightPos@12@@Z
??RSPtrHash@@QBEHABV?$CPtrBase@UIVisObj@NWorld@@USRef@CObjectBase@@@@@Z
??RSPtrHash@@QBEHABV?$CPtrBase@V?$CFuncBase@USTerrainInfo@@@@USRef@CObjectBase@@@@@Z
??RSPtrHash@@QBEHABV?$CPtrBase@VCAIAction@NAI@@USRef@CObjectBase@@@@@Z
??RSPtrHash@@QBEHABV?$CPtrBase@VCObjectBase@@USRef@1@@@@Z
??RSPtrHash@@QBEHABV?$CPtrBase@VCScenarioClue@NScenario@@USRef@CObjectBase@@@@@Z
??RSPtrHash@@QBEHABV?$CPtrBase@VCTB@NGfx@@USRef@CObjectBase@@@@@Z
??RSPtrHash@@QBEHABV?$CPtrBase@VCUnit@NRPG@@USRef@CObjectBase@@@@@Z
??RSPtrHash@@QBEHABV?$CPtrBase@VCUnit@NWorld@@USRef@CObjectBase@@@@@Z
??RSPtrHash@@QBEHABV?$CPtrBase@VCUnitServer@NWorld@@USRef@CObjectBase@@@@@Z
??RSPtrHash@@QBEHABV?$CPtrBase@VIAIJob@NAI@@USRef@CObjectBase@@@@@Z
??RSPtrHash@@QBEHABV?$CPtrBase@VIInventoryItem@NRPG@@USRef@CObjectBase@@@@@Z
??RSPtrHash@@QBEHABV?$CPtrBase@VIPostProcess@NGScene@@USRef@CObjectBase@@@@@Z
??RSPtrTest@@QBE_NABV?$CPtrBase@VCUnit@NWorld@@USRef@CObjectBase@@@@@Z
??RSRectOrder@NRectPacker@@QAEHHH@Z
??RSRenderFragmentHash@NGScene@@QBEHABUSRenderFragmentKey@1@@Z
??RSRenderStateKeyHash@NGfx@@QBEHABUSRenderStateKey@1@@Z
??RSSkipColliderAnalyzer@NCollider@@QBE_NABUSColliderUserInfo@NAI@@@Z
??RSSortLightGroups@NGScene@@QBE_NPBVILight@1@0@Z
??RSSortLinks@CPolyClipper@@QBE_NABUSLink@1@0@Z
??RSSphereFilter@NGScene@@QBE?AW4EFragmentsSplit@1@PAUSRenderStaticInfo@1@PAUSRenderGeometryInfo@1@PAVCPartFlags@1@@Z
??RSSphereSphere@NAI@@QBE_NABVCVec3@@M@Z
??RSSplitter@?$CGatheringCache@VCShortPtrAllocator@NCache@@VCFibElement@2@VCUserGeometry@NGfx@@@NCache@@QAEXABVCFibElement@2@W4ESplitType@32@@Z
??RSSplitter@?$CGatheringCache@VCShortPtrAllocator@NCache@@VCQuadTreeElement@2@VCTexture@NGfx@@@NCache@@QAEXABVCQuadTreeElement@2@W4ESplitType@32@@Z
??RSSrcPosInfoHash@NGScene@@QBEHABUSSrcPosInfo@1@@Z
??RSSubtractHeightBlend@@QBEXPAGMM@Z
??RSTerrainBlend@@QBEXPAEMM@Z
??RSTerrainTileSort@NGScene@@QBE_NPBVCTerrainTile@NDb@@PAV23@@Z
??RSTextureKeyHash@NGScene@@QBEHABUSTextureKey@1@@Z
??RSTransparentHash@NGScene@@QBEHABVCVec4@@@Z
??RSVec3Hash@@QBEHABVCVec3@@@Z
??RSVec4Hash@NGScene@@QBEHABVCVec4@@@Z
??RSVisionQueryHash@NRPG@@QBEHABUSVisionQuery@1@@Z
??RSVoxelObjectHash@NAI@@QBEHABUSVoxelObjectKey@1@@Z
??RSZoneHash@NAI@@QBEHABUSZone@1@@Z
??RSZoneSort@NUI@@QBE_NPAVCScenarioZone@NScenario@@0@Z
??RTLinearInterpolate@@QBEMEEM@Z
??RTLinearInterpolate@@QBEMGGM@Z
??T@YI?BVCVec3@@ABV0@0@Z
??XCVec3@@QAEAAV0@M@Z
??XCVec4@@QAEAAV0@M@Z
??YCScenarioFlowChartState@NScenario@@QAEXPAVCScenarioZone@1@@Z
??YCVec2@@QAEAAV0@ABV0@@Z
??YCVec3@@QAEAAV0@ABV0@@Z
??YCVec4@@QAEAAV0@ABV0@@Z
??YSScenarioFlowChartPassage@NScenario@@QAEXAAU01@@Z
??ZCDynamicSkill@NRPG@@QAEABV01@H@Z
??ZCVec3@@QAEAAV0@ABV0@@Z
??_0CVec3@@QAEAAV0@M@Z
??_0CVec4@@QAEAAV0@M@Z
??_5CPartFlags@NGScene@@QAEAAV01@ABV01@@Z
??_E?$CGatherElementBase@VCShortPtrAllocator@NCache@@VCFibElement@2@VCUserGeometry@NGfx@@@NCache@@$2PPPPPPPM@A@AEPAXI@Z
??_E?$CGatherElementBase@VCShortPtrAllocator@NCache@@VCQuadTreeElement@2@VCTexture@NGfx@@@NCache@@$2PPPPPPPM@A@AEPAXI@Z
??_E?$CItemContainer@VCAmmoItem@NRPG@@@NRPG@@$4PPPPPPPM@A@AEPAXI@Z
??_E?$CItemContainer@VCPotionItem@NRPG@@@NRPG@@$4PPPPPPPM@A@AEPAXI@Z
??_E?$CLinearBufferElement@V?$CLinearBuffer@VCVB@NGfx@@VCUserGeometry@2@@NGfx@@VCVB@2@VCUserGeometry@2@@NGfx@@$4PPPPPPPM@A@AEPAXI@Z
??_E?$CObj@V?$CPtrFuncBase@VCGrassPosition@NGScene@@@@@@QAEPAXI@Z
??_E?$CObj@VCLayersSetTracker@NAI@@@@QAEPAXI@Z
??_E?$CObj@VCVersioningBase@@@@QAEPAXI@Z
??_E?$CSomeItem@VCRPGKey@NDb@@VIKeyItem@NRPG@@@NRPG@@$2PPPPPPPM@A@AEPAXI@Z
??_E?$CSomeItem@VCRPGMine@NDb@@VIMineItem@NRPG@@@NRPG@@$2PPPPPPPM@A@AEPAXI@Z
??_E?$CSomeItem@VCRPGMineDetector@NDb@@VIMineDetectorItem@NRPG@@@NRPG@@$2PPPPPPPM@A@AEPAXI@Z
??_EC3DSound@NWorld@@$4PPPPPPPM@A@AEPAXI@Z
??_ECAckAccidentallyWoundFriend@NWorld@@$2PPPPPPPM@A@AEPAXI@Z
??_ECAckBase@NWorld@@$4PPPPPPPM@A@AEPAXI@Z
??_ECAckCannotFinishHeal@NWorld@@$2PPPPPPPM@A@AEPAXI@Z
??_ECAckCertainTypeEnemyBecomesVisible@NWorld@@$2PPPPPPPM@A@AEPAXI@Z
??_ECAckEnemyBecomesVisible@NWorld@@$2PPPPPPPM@A@AEPAXI@Z
??_ECAckEnemyBecomesVisibleInRealtime@NWorld@@$2PPPPPPPM@A@AEPAXI@Z
??_ECAckEnemyBecomesVisibleInTurnbased@NWorld@@$2PPPPPPPM@A@AEPAXI@Z
??_ECAckEnemyHasBeenInfictedCritical@NWorld@@$2PPPPPPPM@A@AEPAXI@Z
??_ECAckEnemyMissedTarget@NWorld@@$2PPPPPPPM@A@AEPAXI@Z
??_ECAckFriendDies@NWorld@@$2PPPPPPPM@A@AEPAXI@Z
??_ECAckFriendGrenadeDestroysALotOfObjects@NWorld@@$2PPPPPPPM@A@AEPAXI@Z
??_ECAckFriendGrenadeKillsMoreThanOneEnemy@NWorld@@$2PPPPPPPM@A@AEPAXI@Z
??_ECAckFriendInflictsCriticalDamageToEnemy@NWorld@@$2PPPPPPPM@A@AEPAXI@Z
??_ECAckFriendTargetMissed@NWorld@@$2PPPPPPPM@A@AEPAXI@Z
??_ECAckGrenadeDestroysALotOfObjects@NWorld@@$2PPPPPPPM@A@AEPAXI@Z
??_ECAckGrenadeKillsMoreThanOneEnemy@NWorld@@$2PPPPPPPM@A@AEPAXI@Z
??_ECAckHardTargetHit@NWorld@@$2PPPPPPPM@A@AEPAXI@Z
??_ECAckHealOfFriendFinished@NWorld@@$2PPPPPPPM@A@AEPAXI@Z
??_ECAckImpossibleToPerformAction@NWorld@@$2PPPPPPPM@A@AEPAXI@Z
??_ECAckInflictCriticalDamageToEnemy@NWorld@@$2PPPPPPPM@A@AEPAXI@Z
??_ECAckInterruptedEnemy@NWorld@@$2PPPPPPPM@A@AEPAXI@Z
??_ECAckKilledAnEnemy@NWorld@@$2PPPPPPPM@A@AEPAXI@Z
??_ECAckKilledCertainTypeEnemy@NWorld@@$2PPPPPPPM@A@AEPAXI@Z
??_ECAckKillingNthEnemyInARow@NWorld@@$2PPPPPPPM@A@AEPAXI@Z
??_ECAckLastPieceOfAmmo@NWorld@@$2PPPPPPPM@A@AEPAXI@Z
??_ECAckLongBurst@NWorld@@$2PPPPPPPM@A@AEPAXI@Z
??_ECAckNthUnitWasKilled@NWorld@@$2PPPPPPPM@A@AEPAXI@Z
??_ECAckOrderConfirmation@NWorld@@$2PPPPPPPM@A@AEPAXI@Z
??_ECAckPCSufferCriticalDamage@NWorld@@$2PPPPPPPM@A@AEPAXI@Z
??_ECAckSelfHealFinished@NWorld@@$2PPPPPPPM@A@AEPAXI@Z
??_ECAckSkillIncreased@NWorld@@$2PPPPPPPM@A@AEPAXI@Z
??_ECAckStrongEnemyBecomesVisible@NWorld@@$2PPPPPPPM@A@AEPAXI@Z
??_ECAckSuffersHardDamage@NWorld@@$2PPPPPPPM@A@AEPAXI@Z
??_ECAckSuffersLightDamage@NWorld@@$2PPPPPPPM@A@AEPAXI@Z
??_ECAckTargetHit@NWorld@@$2PPPPPPPM@A@AEPAXI@Z
??_ECAckTargetMissed@NWorld@@$2PPPPPPPM@A@AEPAXI@Z
??_ECAckUnhide@NWorld@@$2PPPPPPPM@A@AEPAXI@Z
??_ECAckUnitDied@NWorld@@$2PPPPPPPM@A@AEPAXI@Z
??_ECAckWeakEnemyBecomesVisible@NWorld@@$2PPPPPPPM@A@AEPAXI@Z
??_ECAckWeaponJammed@NWorld@@$2PPPPPPPM@A@AEPAXI@Z
??_ECAmmoItem@NRPG@@$2PPPPPPPM@A@AEPAXI@Z
??_ECAnimObjectServer@NWorld@@$4PPPPPPPM@A@AEPAXI@Z
??_ECAnimObjectServerBase@NWorld@@$4PPPPPPPM@A@AEPAXI@Z
??_ECAnimPassageObject@NWorld@@$4PPPPPPPM@A@AEPAXI@Z
??_ECBuilding@NWorld@@$4PPPPPPPM@A@AEPAXI@Z
??_ECBuildingPart@NWorld@@$4PPPPPPPM@A@AEPAXI@Z
??_ECBulletServer@NWorld@@$4PPPPPPPM@A@AEPAXI@Z
??_ECCannon@NWorld@@$4PPPPPPPM@A@AEPAXI@Z
??_ECClickOfDeath@NWorld@@$4PPPPPPPM@A@AEPAXI@Z
??_ECClipItem@NRPG@@$2PPPPPPPM@A@AEPAXI@Z
??_ECClueItem@NRPG@@$2PPPPPPPM@A@AEPAXI@Z
??_ECDFrozenItem@NWorld@@$4PPPPPPPM@A@AEPAXI@Z
??_ECDGrassEvent@NWorld@@$4PPPPPPPM@A@AEPAXI@Z
??_ECDItem@NWorld@@$4PPPPPPPM@A@AEPAXI@Z
??_ECDParticles@NWorld@@$4PPPPPPPM@A@AEPAXI@Z
??_ECDecal@NWorld@@$4PPPPPPPM@A@AEPAXI@Z
??_ECDumbUnitServer@NWorld@@$4PPPPPPPM@A@AEPAXI@Z
??_ECFakeRPGUnit@NRender@@$4PPPPPPPM@A@AEPAXI@Z
??_ECFakeWorldUnit@NRender@@$4PPPPPPPM@A@AEPAXI@Z
??_ECFirstAidItem@NRPG@@$2PPPPPPPM@A@AEPAXI@Z
??_ECGScene@NGScene@@$2PPPPPPPM@A@AEPAXI@Z
??_ECGlobalAck@NWorld@@$2PPPPPPPM@A@AEPAXI@Z
??_ECGrenadeItem@NRPG@@$2PPPPPPPM@A@AEPAXI@Z
??_ECGrenadeServer@NWorld@@$4PPPPPPPM@A@AEPAXI@Z
??_ECInventoryItem@NRPG@@$4PPPPPPPM@A@AEPAXI@Z
??_ECItem@NRPG@@$4PPPPPPPM@A@AEPAXI@Z
??_ECKnifeServer@NWorld@@$4PPPPPPPM@A@AEPAXI@Z
??_ECMeleeWeaponItem@NRPG@@$2PPPPPPPM@A@AEPAXI@Z
??_ECMine@NWorld@@$4PPPPPPPM@A@AEPAXI@Z
??_ECObject@NRPG@@$2PPPPPPPM@A@AEPAXI@Z
??_ECObjectServer@NWorld@@$4PPPPPPPM@A@AEPAXI@Z
??_ECObjectServerBase@NWorld@@$4PPPPPPPM@A@AEPAXI@Z
??_ECPassageObject@NWorld@@$4PPPPPPPM@A@AEPAXI@Z
??_ECPassageObjectBase@NWorld@@$4PPPPPPPM@A@AEPAXI@Z
??_ECPotionContainer@NRPG@@$2PPPPPPPM@A@AEPAXI@Z
??_ECPotionItem@NRPG@@$2PPPPPPPM@A@AEPAXI@Z
??_ECRocketServer@NWorld@@$4PPPPPPPM@A@AEPAXI@Z
??_ECScript@NScript@@WM@AEPAXI@Z
??_ECTaskCommand@NAI@@$4PPPPPPPM@A@AEPAXI@Z
??_ECTaskCommandChangeDirection@NAI@@$2PPPPPPPM@A@AEPAXI@Z
??_ECTaskCommandChangePose@NAI@@$2PPPPPPPM@A@AEPAXI@Z
??_ECTaskCommandCustomIdleAnimation@NAI@@$2PPPPPPPM@A@AEPAXI@Z
??_ECTaskCommandGoto@NAI@@$2PPPPPPPM@A@AEPAXI@Z
??_ECTaskCommandRoaming@NAI@@$2PPPPPPPM@A@AEPAXI@Z
??_ECTaskCommandSync@NAI@@$2PPPPPPPM@A@AEPAXI@Z
??_ECTaskCommandWait@NAI@@$2PPPPPPPM@A@AEPAXI@Z
??_ECTerrain@NWorld@@$4PPPPPPPM@A@AEPAXI@Z
??_ECTerrainRegion@NWorld@@$4PPPPPPPM@A@AEPAXI@Z
??_ECTexture@NGfx@@$2PPPPPPPM@A@AEPAXI@Z
??_ECTimedObject@NWorld@@$4PPPPPPPM@A@AEPAXI@Z
??_ECToolItem@NRPG@@$2PPPPPPPM@A@AEPAXI@Z
??_ECTriListCore@NGfx@@$4PPPPPPPM@A@AEPAXI@Z
??_ECTriListWrapper@NGfx@@$2PPPPPPPM@A@AEPAXI@Z
??_ECUnitMission@NRPG@@$2PPPPPPPM@A@AEPAXI@Z
??_ECUnitServer@NWorld@@$4PPPPPPPM@A@AEPAXI@Z
??_ECUserGeometry@NGfx@@$4PPPPPPPM@A@AEPAXI@Z
??_ECVoxelExplTracker@NWorld@@$2PPPPPPPM@A@AEPAXI@Z
??_ECWeaponItem@NRPG@@$2PPPPPPPM@A@AEPAXI@Z
??_ECWindowDoor@NWorld@@$4PPPPPPPM@A@AEPAXI@Z
??_ESDoorColliderAnalyzer@NAI@@QAEPAXI@Z
??_ESHilight@CSlot@NUI@@QAEPAXI@Z
??_ESStepSound@@QAEPAXI@Z
??_F?$CArray2D@D@@QAEXXZ
??_F?$com_ptr@UIDirect3DPixelShader9@@@NWin32Helper@@QAEXXZ
??_F?$com_ptr@UIDirect3DVertexDeclaration9@@@NWin32Helper@@QAEXXZ
??_F?$com_ptr@UIDirect3DVertexShader9@@@NWin32Helper@@QAEXXZ
??_F?$list@USNotice@SInterruptInfo@NWorld@@V?$allocator@USNotice@SInterruptInfo@NWorld@@@_STL@@@_STL@@QAEXXZ
??_F?$list@V?$CObj@VCItemText@NUI@@@@V?$allocator@V?$CObj@VCItemText@NUI@@@@@_STL@@@_STL@@QAEXXZ
??_F?$list@V?$CPtr@VCScenarioClue@NScenario@@@@V?$allocator@V?$CPtr@VCScenarioClue@NScenario@@@@@_STL@@@_STL@@QAEXXZ
??_F?$list@V?$CPtr@VCScenarioZone@NScenario@@@@V?$allocator@V?$CPtr@VCScenarioZone@NScenario@@@@@_STL@@@_STL@@QAEXXZ
??_F?$list@V?$CPtr@VILight@NGScene@@@@V?$allocator@V?$CPtr@VILight@NGScene@@@@@_STL@@@_STL@@QAEXXZ
??_F?$vector@USGridElement@NBuilding@@V?$allocator@USGridElement@NBuilding@@@_STL@@@_STL@@QAEXXZ
??_F?$vector@USPathPlace@NAI@@V?$allocator@USPathPlace@NAI@@@_STL@@@_STL@@QAEXXZ
??_F?$vector@V?$CObj@VCObjectBase@@@@V?$allocator@V?$CObj@VCObjectBase@@@@@_STL@@@_STL@@QAEXXZ
??_G?$CActionDecorator@VCImage@NUI@@@NUI@@UAEPAXI@Z
??_G?$CActionDecorator@VCInteractiveUnitView@NUI@@@NUI@@UAEPAXI@Z
??_G?$CActionDecorator@VCShowItemModel@NUI@@@NUI@@UAEPAXI@Z
??_G?$CActionDecorator@VCUnitView@NUI@@@NUI@@UAEPAXI@Z
??_G?$CActionDecorator@VCWindow@NUI@@@NUI@@UAEPAXI@Z
??_G?$CArray2D@E@@QAEPAXI@Z
??_G?$CArray2D@M@@QAEPAXI@Z
??_G?$CArray2D@USBumpPixel@NGScene@@@@QAEPAXI@Z
??_G?$CArray2D@USPixel8888@NGfx@@@@QAEPAXI@Z
??_G?$CArray2D@_N@@QAEPAXI@Z
??_G?$CBoolSyncSrc@UIVisObj@NWorld@@VCIntersectionFunc@@@@MAEPAXI@Z
??_G?$CBoolSyncSrc@UIVisObj@NWorld@@VCUnionFunc@@@@MAEPAXI@Z
??_G?$CDBPtr@VCComplexHead@NDb@@@@QAEPAXI@Z
??_G?$CDBPtr@VCDBAck@NDb@@@@QAEPAXI@Z
??_G?$CDBPtr@VCDBAckInfo@NDb@@@@QAEPAXI@Z
??_G?$CDBPtr@VCDBDialogSeq@NDb@@@@QAEPAXI@Z
??_G?$CDBPtr@VCScript@NDb@@@@QAEPAXI@Z
??_G?$CDBPtrWrapper@VCDBCamera@NDb@@@NScript@@MAEPAXI@Z
??_G?$CDGPtr@V?$CFuncBase@VCVec3@@@@V?$CObj@V?$CFuncBase@VCVec3@@@@@@@@QAEPAXI@Z
??_G?$CDGPtr@V?$CFuncBase@_N@@V?$CObj@V?$CFuncBase@_N@@@@@@QAEPAXI@Z
??_G?$CFuncBase@H@@UAEPAXI@Z
??_G?$CFuncBase@K@@UAEPAXI@Z
??_G?$CFuncBase@M@@UAEPAXI@Z
??_G?$CFuncBase@USBound@@@@UAEPAXI@Z
??_G?$CFuncBase@USFBTransform@@@@UAEPAXI@Z
??_G?$CFuncBase@USHMatrix@@@@UAEPAXI@Z
??_G?$CFuncBase@USHeadFrame@NLSHead@@@@UAEPAXI@Z
??_G?$CFuncBase@USSkeletonState@NAnimation@@@@UAEPAXI@Z
??_G?$CFuncBase@USTerrainGeometry@NTerrain@@@@UAEPAXI@Z
??_G?$CFuncBase@USTerrainInfo@@@@UAEPAXI@Z
??_G?$CFuncBase@USText@NGScene@@@@UAEPAXI@Z
??_G?$CFuncBase@V?$CTPoint@H@@@@UAEPAXI@Z
??_G?$CFuncBase@V?$CTRect@H@@@@UAEPAXI@Z
??_G?$CFuncBase@V?$basic_string@GU?$char_traits@G@std@@V?$allocator@G@_STL@@@_STL@@@@UAEPAXI@Z
??_G?$CFuncBase@V?$vector@USBonePose@NAnimation@@V?$allocator@USBonePose@NAnimation@@@_STL@@@_STL@@@@UAEPAXI@Z
??_G?$CFuncBase@V?$vector@USCompactTransformer@NGfx@@V?$allocator@USCompactTransformer@NGfx@@@_STL@@@_STL@@@@UAEPAXI@Z
??_G?$CFuncBase@V?$vector@USHMatrix@@V?$allocator@USHMatrix@@@_STL@@@_STL@@@@UAEPAXI@Z
??_G?$CFuncBase@V?$vector@USTriangleList@NGfx@@V?$allocator@USTriangleList@NGfx@@@_STL@@@_STL@@@@UAEPAXI@Z
??_G?$CFuncBase@V?$vector@V?$CPtr@VIPart@NGScene@@@@V?$allocator@V?$CPtr@VIPart@NGScene@@@@@_STL@@@_STL@@@@UAEPAXI@Z
??_G?$CFuncBase@VCRectLayout@@@@UAEPAXI@Z
??_G?$CFuncBase@VCSWRectLayout@NGScene@@@@UAEPAXI@Z
??_G?$CFuncBase@VCVec2@@@@UAEPAXI@Z
??_G?$CFuncBase@VCVec3@@@@UAEPAXI@Z
??_G?$CFuncBase@VCVec4@@@@UAEPAXI@Z
??_G?$CFuncBase@_N@@UAEPAXI@Z
??_G?$CGatherElementBase@VCShortPtrAllocator@NCache@@VCFibElement@2@VCUserGeometry@NGfx@@@NCache@@MAEPAXI@Z
??_G?$CGatherElementBase@VCShortPtrAllocator@NCache@@VCQuadTreeElement@2@VCTexture@NGfx@@@NCache@@MAEPAXI@Z
??_G?$CGatheringCache@VCShortPtrAllocator@NCache@@VCFibElement@2@VCUserGeometry@NGfx@@@NCache@@UAEPAXI@Z
??_G?$CGatheringCache@VCShortPtrAllocator@NCache@@VCQuadTreeElement@2@VCTexture@NGfx@@@NCache@@UAEPAXI@Z
??_G?$CHoldedPtrFuncBase@VCAnimLightInfo@NGScene@@@@UAEPAXI@Z
??_G?$CHoldedPtrFuncBase@VCBuildInfo@NBuilding@@@@UAEPAXI@Z
??_G?$CHoldedPtrFuncBase@VCChapterInfo@@@@UAEPAXI@Z
??_G?$CHoldedPtrFuncBase@VCCubeTexture@NGfx@@@@UAEPAXI@Z
??_G?$CHoldedPtrFuncBase@VCFileAnimationInfo@NAnimation@@@@UAEPAXI@Z
??_G?$CHoldedPtrFuncBase@VCFileBindInfo@NGScene@@@@UAEPAXI@Z
??_G?$CHoldedPtrFuncBase@VCFileSkeletonInfo@NAnimation@@@@UAEPAXI@Z
??_G?$CHoldedPtrFuncBase@VCFileSkinPoints@NAI@@@@UAEPAXI@Z
??_G?$CHoldedPtrFuncBase@VCFontFormatInfo@@@@UAEPAXI@Z
??_G?$CHoldedPtrFuncBase@VCGeometryInfo@NAI@@@@UAEPAXI@Z
??_G?$CHoldedPtrFuncBase@VCGlobalInfo@@@@UAEPAXI@Z
??_G?$CHoldedPtrFuncBase@VCHeadMeshInfo@NLSHead@@@@UAEPAXI@Z
??_G?$CHoldedPtrFuncBase@VCHeadSequenceInfo@NLSHead@@@@UAEPAXI@Z
??_G?$CHoldedPtrFuncBase@VCMETerrainInfo@@@@UAEPAXI@Z
??_G?$CHoldedPtrFuncBase@VCObjectInfo@NGScene@@@@UAEPAXI@Z
??_G?$CHoldedPtrFuncBase@VCObjectInfoPieces@NGScene@@@@UAEPAXI@Z
??_G?$CHoldedPtrFuncBase@VCParticlesInfo@NGScene@@@@UAEPAXI@Z
??_G?$CHoldedPtrFuncBase@VCSWTextureData@NGScene@@@@UAEPAXI@Z
??_G?$CHoldedPtrFuncBase@VCSample2D@NFMSound@@@@UAEPAXI@Z
??_G?$CHoldedPtrFuncBase@VCSample3D@NFMSound@@@@UAEPAXI@Z
??_G?$CHoldedPtrFuncBase@VCTexture@NGfx@@@@UAEPAXI@Z
??_G?$CHoldedPtrFuncBase@VCTwoBSPTrees@NAI@@@@UAEPAXI@Z
??_G?$CHoldedPtrFuncBase@VCUnitAIInfo@NAI@@@@UAEPAXI@Z
??_G?$CHoldedPtrFuncBase@VCWaypoint@NAI@@@@UAEPAXI@Z
??_G?$CIBFast@$0GF@@NGfx@@UAEPAXI@Z
??_G?$CIBFast@$0GG@@NGfx@@UAEPAXI@Z
??_G?$CItemContainer@VCAmmoItem@NRPG@@@NRPG@@UAEPAXI@Z
??_G?$CItemContainer@VCPotionItem@NRPG@@@NRPG@@UAEPAXI@Z
??_G?$CLSPtr@UIAnimator@LifeStudioHeadAPI@@@NLSHead@@QAEPAXI@Z
??_G?$CLazyResourceLoader@HVCAnimLightInfo@NGScene@@@NGScene@@UAEPAXI@Z
??_G?$CLazyResourceLoader@HVCParticlesInfo@NGScene@@@NGScene@@UAEPAXI@Z
??_G?$CLazyResourceLoader@HVCSample3D@NFMSound@@@NGScene@@UAEPAXI@Z
??_G?$CLazyResourceLoader@USPartKey@NGScene@@VCObjectInfo@2@@NGScene@@UAEPAXI@Z
??_G?$CLazyResourceLoader@USPartKey@NGScene@@VCObjectInfoPieces@2@@NGScene@@UAEPAXI@Z
??_G?$CLinearBuffer@VCVB@NGfx@@VCUserGeometry@2@@NGfx@@UAEPAXI@Z
??_G?$CLinearBufferElement@V?$CLinearBuffer@VCVB@NGfx@@VCUserGeometry@2@@NGfx@@VCVB@2@VCUserGeometry@2@@NGfx@@UAEPAXI@Z
??_G?$CMObj@VCObjectBase@@@@QAEPAXI@Z
??_G?$CMObj@VCTriListWrapper@NGfx@@@@QAEPAXI@Z
??_G?$CMObj@VCUnitServer@NWorld@@@@QAEPAXI@Z
??_G?$CMObj@VCWindow@NUI@@@@QAEPAXI@Z
??_G?$CObj@V?$CPtrFuncBase@VCTexture@NGfx@@@@@@QAEPAXI@Z
??_G?$CObj@VCAIFireArmsWeapon@NAI@@@@QAEPAXI@Z
??_G?$CObj@VCAIFireArmsWeaponClip@NAI@@@@QAEPAXI@Z
??_G?$CObj@VCAIGrenadeWeapon@NAI@@@@QAEPAXI@Z
??_G?$CObj@VCAnimUnitView@NUI@@@@QAEPAXI@Z
??_G?$CObj@VCBuilding@NWorld@@@@QAEPAXI@Z
??_G?$CObj@VCChapterSector@NUI@@@@QAEPAXI@Z
??_G?$CObj@VCCombinedPart@NGScene@@@@QAEPAXI@Z
??_G?$CObj@VCCommand@NWorld@@@@QAEPAXI@Z
??_G?$CObj@VCCommandExecute@NWorld@@@@QAEPAXI@Z
??_G?$CObj@VCComplexButton@NUI@@@@QAEPAXI@Z
??_G?$CObj@VCDFrozenItem@NWorld@@@@QAEPAXI@Z
??_G?$CObj@VCDItem@NWorld@@@@QAEPAXI@Z
??_G?$CObj@VCDesktopWindow@NUI@@@@QAEPAXI@Z
??_G?$CObj@VCDynamicSkill@NRPG@@@@QAEPAXI@Z
??_G?$CObj@VCEnemyIcon@NUI@@@@QAEPAXI@Z
??_G?$CObj@VCExplCube@NWorld@@@@QAEPAXI@Z
??_G?$CObj@VCFontInfo@NGScene@@@@QAEPAXI@Z
??_G?$CObj@VCGlobalPlayer@NRPG@@@@QAEPAXI@Z
??_G?$CObj@VCGlobalSector@NUI@@@@QAEPAXI@Z
??_G?$CObj@VCHitTracker@NUI@@@@QAEPAXI@Z
??_G?$CObj@VCImage@NUI@@@@QAEPAXI@Z
??_G?$CObj@VCInfoPanelCritical@NUI@@@@QAEPAXI@Z
??_G?$CObj@VCItemText@NUI@@@@QAEPAXI@Z
??_G?$CObj@VCLUACallParam@NScript@@@@QAEPAXI@Z
??_G?$CObj@VCLightGroup@NGScene@@@@QAEPAXI@Z
??_G?$CObj@VCMapWaypoint@@@@QAEPAXI@Z
??_G?$CObj@VCMine@NWorld@@@@QAEPAXI@Z
??_G?$CObj@VCNodesLayer@NAI@@@@QAEPAXI@Z
??_G?$CObj@VCObjectBase@@@@QAEPAXI@Z
??_G?$CObj@VCObjectServerBase@NWorld@@@@QAEPAXI@Z
??_G?$CObj@VCPlayer@NWorld@@@@QAEPAXI@Z
??_G?$CObj@VCPolyline@NGScene@@@@QAEPAXI@Z
??_G?$CObj@VCScaleConverterPoint@NAI@@@@QAEPAXI@Z
??_G?$CObj@VCScenarioClue@NScenario@@@@QAEPAXI@Z
??_G?$CObj@VCScenarioFlowChartState@NScenario@@@@QAEPAXI@Z
??_G?$CObj@VCScenarioObjective@NScenario@@@@QAEPAXI@Z
??_G?$CObj@VCScenarioZone@NScenario@@@@QAEPAXI@Z
??_G?$CObj@VCSysTexture@NGfx@@@@QAEPAXI@Z
??_G?$CObj@VCTask@NAI@@@@QAEPAXI@Z
??_G?$CObj@VCTaskCommand@NAI@@@@QAEPAXI@Z
??_G?$CObj@VCTerrainRegion@NWorld@@@@QAEPAXI@Z
??_G?$CObj@VCText@NGScene@@@@QAEPAXI@Z
??_G?$CObj@VCTextDraw@NUI@@@@QAEPAXI@Z
??_G?$CObj@VCTimedObject@NWorld@@@@QAEPAXI@Z
??_G?$CObj@VCUnit@NRPG@@@@QAEPAXI@Z
??_G?$CObj@VCUnit@NWorld@@@@QAEPAXI@Z
??_G?$CObj@VCUnitFace@NUI@@@@QAEPAXI@Z
??_G?$CObj@VCUnitGroup@NWorld@@@@QAEPAXI@Z
??_G?$CObj@VCUnitPortraitState@NUI@@@@QAEPAXI@Z
??_G?$CObj@VCUnitPortraitView@NUI@@@@QAEPAXI@Z
??_G?$CObj@VCUnitServer@NWorld@@@@QAEPAXI@Z
??_G?$CObj@VCUnitTracker@NGame@@@@QAEPAXI@Z
??_G?$CObj@VCUserGeometry@NGfx@@@@QAEPAXI@Z
??_G?$CObj@VCVisionCube@NRPG@@@@QAEPAXI@Z
??_G?$CObj@VCWindow@NUI@@@@QAEPAXI@Z
??_G?$CObj@VIAIControl@NAI@@@@QAEPAXI@Z
??_G?$CObj@VIAILogRecord@NAI@@@@QAEPAXI@Z
??_G?$CObj@VIAISignal@NAI@@@@QAEPAXI@Z
??_G?$CObj@VIAIUnit@NAI@@@@QAEPAXI@Z
??_G?$CObj@VIAck@NWorld@@@@QAEPAXI@Z
??_G?$CObj@VIDynamicObject@NWorld@@@@QAEPAXI@Z
??_G?$CObj@VIInterfaceBase@NMainLoop@@@@QAEPAXI@Z
??_G?$CObj@VIInventoryItem@NRPG@@@@QAEPAXI@Z
??_G?$CObj@VIPlayerTracker@NGame@@@@QAEPAXI@Z
??_G?$CObj@VIRecognitionAttribute@NAI@@@@QAEPAXI@Z
??_G?$CObj@VIRecognitionClass@NAI@@@@QAEPAXI@Z
??_G?$CObj@VIState@NGame@@@@QAEPAXI@Z
??_G?$COcTreeNode@VCVolumeNode@NAI@@$03@@UAEPAXI@Z
??_G?$COcTreeNode@VCVolumeNode@NGScene@@$07@@UAEPAXI@Z
??_G?$CParticlesGeometry@USGeomVecFull@NGfx@@@NGScene@@UAEPAXI@Z
??_G?$CParticlesGeometry@USGeomVecT1C1@NGfx@@@NGScene@@UAEPAXI@Z
??_G?$CPtr@UIVisObj@NWorld@@@@QAEPAXI@Z
??_G?$CPtr@VCAIAction@NAI@@@@QAEPAXI@Z
??_G?$CPtr@VCAIJob@NAI@@@@QAEPAXI@Z
??_G?$CPtr@VCAIRouteWaypoint@NAI@@@@QAEPAXI@Z
??_G?$CPtr@VCAckEvent@NWorld@@@@QAEPAXI@Z
??_G?$CPtr@VCAnimatedPart@NGScene@@@@QAEPAXI@Z
??_G?$CPtr@VCBSPTree@NAI@@@@QAEPAXI@Z
??_G?$CPtr@VCBuilding@NGScene@@@@QAEPAXI@Z
??_G?$CPtr@VCButton@NUI@@@@QAEPAXI@Z
??_G?$CPtr@VCCmd@NWorld@@@@QAEPAXI@Z
??_G?$CPtr@VCCombinedPart@NGScene@@@@QAEPAXI@Z
??_G?$CPtr@VCCommand@NWorld@@@@QAEPAXI@Z
??_G?$CPtr@VCComplexButton@NUI@@@@QAEPAXI@Z
??_G?$CPtr@VCCritical@NRPG@@@@QAEPAXI@Z
??_G?$CPtr@VCDFrozenItem@NWorld@@@@QAEPAXI@Z
??_G?$CPtr@VCDecal@NGScene@@@@QAEPAXI@Z
??_G?$CPtr@VCDynamicConvexHull@NAI@@@@QAEPAXI@Z
??_G?$CPtr@VCDynamicGeometryPart@NGScene@@@@QAEPAXI@Z
??_G?$CPtr@VCDynamicPart@NGScene@@@@QAEPAXI@Z
??_G?$CPtr@VCExplCube@NWorld@@@@QAEPAXI@Z
??_G?$CPtr@VCFileRequest@NGScene@@@@QAEPAXI@Z
??_G?$CPtr@VCFontInfo@NGScene@@@@QAEPAXI@Z
??_G?$CPtr@VCGrassTracker@NGScene@@@@QAEPAXI@Z
??_G?$CPtr@VCHitLocator@NWorld@@@@QAEPAXI@Z
??_G?$CPtr@VCImage@NUI@@@@QAEPAXI@Z
??_G?$CPtr@VCInterfaceCommand@NMainLoop@@@@QAEPAXI@Z
??_G?$CPtr@VCLayersGroup@NAI@@@@QAEPAXI@Z
??_G?$CPtr@VCLightGroup@NGScene@@@@QAEPAXI@Z
??_G?$CPtr@VCLockable@NGfx@@@@QAEPAXI@Z
??_G?$CPtr@VCMapWaypoint@@@@QAEPAXI@Z
??_G?$CPtr@VCMine@NWorld@@@@QAEPAXI@Z
??_G?$CPtr@VCModel@NDb@@@@QAEPAXI@Z
??_G?$CPtr@VCNodesLayer@NAI@@@@QAEPAXI@Z
??_G?$CPtr@VCNonePart@NGScene@@@@QAEPAXI@Z
??_G?$CPtr@VCObjectBase@@@@QAEPAXI@Z
??_G?$CPtr@VCObjectServerBase@NWorld@@@@QAEPAXI@Z
??_G?$CPtr@VCParticles@NGScene@@@@QAEPAXI@Z
??_G?$CPtr@VCPerk@NRPG@@@@QAEPAXI@Z
??_G?$CPtr@VCPerkButton@NUI@@@@QAEPAXI@Z
??_G?$CPtr@VCPlayer@NWorld@@@@QAEPAXI@Z
??_G?$CPtr@VCPolyline@NGScene@@@@QAEPAXI@Z
??_G?$CPtr@VCPostProcessBinder@NGScene@@@@QAEPAXI@Z
??_G?$CPtr@VCRPGPers@NDb@@@@QAEPAXI@Z
??_G?$CPtr@VCRects@NGScene@@@@QAEPAXI@Z
??_G?$CPtr@VCRenderNode@NGScene@@@@QAEPAXI@Z
??_G?$CPtr@VCRndTerrainSpot@NDb@@@@QAEPAXI@Z
??_G?$CPtr@VCScenarioClue@NScenario@@@@QAEPAXI@Z
??_G?$CPtr@VCScenarioFlowChartState@NScenario@@@@QAEPAXI@Z
??_G?$CPtr@VCScenarioObjective@NScenario@@@@QAEPAXI@Z
??_G?$CPtr@VCScenarioZone@NScenario@@@@QAEPAXI@Z
??_G?$CPtr@VCSelection@NGScene@@@@QAEPAXI@Z
??_G?$CPtr@VCSkillModifier@NRPG@@@@QAEPAXI@Z
??_G?$CPtr@VCSound2D@NSound@@@@QAEPAXI@Z
??_G?$CPtr@VCSound@NSound@@@@QAEPAXI@Z
??_G?$CPtr@VCSoundEffect@NSound@@@@QAEPAXI@Z
??_G?$CPtr@VCTaskSyncObject@NAI@@@@QAEPAXI@Z
??_G?$CPtr@VCTaskSyncObjectClient@NAI@@@@QAEPAXI@Z
??_G?$CPtr@VCTextDraw@NUI@@@@QAEPAXI@Z
??_G?$CPtr@VCUICmd@NWorld@@@@QAEPAXI@Z
??_G?$CPtr@VCUICmdExec@NGame@@@@QAEPAXI@Z
??_G?$CPtr@VCUIControl@NDb@@@@QAEPAXI@Z
??_G?$CPtr@VCUnit@NRPG@@@@QAEPAXI@Z
??_G?$CPtr@VCUnit@NWorld@@@@QAEPAXI@Z
??_G?$CPtr@VCUnitServer@NWorld@@@@QAEPAXI@Z
??_G?$CPtr@VCUnitTab@NUI@@@@QAEPAXI@Z
??_G?$CPtr@VCWindow@NUI@@@@QAEPAXI@Z
??_G?$CPtr@VIAIJob@NAI@@@@QAEPAXI@Z
??_G?$CPtr@VIAIUnit@NAI@@@@QAEPAXI@Z
??_G?$CPtr@VICriticalInfo@NRPG@@@@QAEPAXI@Z
??_G?$CPtr@VIInventoryItem@NRPG@@@@QAEPAXI@Z
??_G?$CPtr@VILight@NGScene@@@@QAEPAXI@Z
??_G?$CPtr@VIMLObject@NUI@@@@QAEPAXI@Z
??_G?$CPtr@VIMaterial@NGScene@@@@QAEPAXI@Z
??_G?$CPtr@VIMine@NWorld@@@@QAEPAXI@Z
??_G?$CPtr@VIPart@NGScene@@@@QAEPAXI@Z
??_G?$CPtr@VIPassageObject@NWorld@@@@QAEPAXI@Z
??_G?$CPtr@VIPlayerTracker@NGame@@@@QAEPAXI@Z
??_G?$CPtr@VIPrecache@NGScene@@@@QAEPAXI@Z
??_G?$CPtr@VISWRects@NGScene@@@@QAEPAXI@Z
??_G?$CPtr@VIUnitMission@NRPG@@@@QAEPAXI@Z
??_G?$CPtr@VIUnitMissionInfo@NRPG@@@@QAEPAXI@Z
??_G?$CPtr@VIUnitTracker@NGame@@@@QAEPAXI@Z
??_G?$CPtrFuncBase@VCAnimLight@NGScene@@@@UAEPAXI@Z
??_G?$CPtrFuncBase@VCAnimLightInfo@NGScene@@@@UAEPAXI@Z
??_G?$CPtrFuncBase@VCBuildInfo@NBuilding@@@@UAEPAXI@Z
??_G?$CPtrFuncBase@VCChapterInfo@@@@UAEPAXI@Z
??_G?$CPtrFuncBase@VCCubeTexture@NGfx@@@@UAEPAXI@Z
??_G?$CPtrFuncBase@VCFileAnimationInfo@NAnimation@@@@UAEPAXI@Z
??_G?$CPtrFuncBase@VCFileBindInfo@NGScene@@@@UAEPAXI@Z
??_G?$CPtrFuncBase@VCFileSkeletonInfo@NAnimation@@@@UAEPAXI@Z
??_G?$CPtrFuncBase@VCFileSkinPoints@NAI@@@@UAEPAXI@Z
??_G?$CPtrFuncBase@VCFontFormatInfo@@@@UAEPAXI@Z
??_G?$CPtrFuncBase@VCGeometry@NGfx@@@@UAEPAXI@Z
??_G?$CPtrFuncBase@VCGeometryInfo@NAI@@@@UAEPAXI@Z
??_G?$CPtrFuncBase@VCGlobalInfo@@@@UAEPAXI@Z
??_G?$CPtrFuncBase@VCGrassPosition@NGScene@@@@UAEPAXI@Z
??_G?$CPtrFuncBase@VCHeadMeshInfo@NLSHead@@@@UAEPAXI@Z
??_G?$CPtrFuncBase@VCHeadSequenceInfo@NLSHead@@@@UAEPAXI@Z
??_G?$CPtrFuncBase@VCHeightMapBlockInfo@NAI@@@@UAEPAXI@Z
??_G?$CPtrFuncBase@VCMETerrainInfo@@@@UAEPAXI@Z
??_G?$CPtrFuncBase@VCObjectInfo@NGScene@@@@UAEPAXI@Z
??_G?$CPtrFuncBase@VCObjectInfoPieces@NGScene@@@@UAEPAXI@Z
??_G?$CPtrFuncBase@VCParticleEffect@NGScene@@@@UAEPAXI@Z
??_G?$CPtrFuncBase@VCParticlesInfo@NGScene@@@@UAEPAXI@Z
??_G?$CPtrFuncBase@VCSWTextureData@NGScene@@@@UAEPAXI@Z
??_G?$CPtrFuncBase@VCSample2D@NFMSound@@@@UAEPAXI@Z
??_G?$CPtrFuncBase@VCSample3D@NFMSound@@@@UAEPAXI@Z
??_G?$CPtrFuncBase@VCTerrainPart@@@@UAEPAXI@Z
??_G?$CPtrFuncBase@VCTexture@NGfx@@@@UAEPAXI@Z
??_G?$CPtrFuncBase@VCTwoBSPTrees@NAI@@@@UAEPAXI@Z
??_G?$CPtrFuncBase@VCUnitAIInfo@NAI@@@@UAEPAXI@Z
??_G?$CPtrFuncBase@VCWaypoint@NAI@@@@UAEPAXI@Z
??_G?$CRBase@UIDirect3DVertexBuffer9@@@NGfx@@UAEPAXI@Z
??_G?$CResourceLoader@HVCAnimLightInfo@NGScene@@@NGScene@@UAEPAXI@Z
??_G?$CResourceLoader@HVCBuildInfo@NBuilding@@@NGScene@@UAEPAXI@Z
??_G?$CResourceLoader@HVCChapterInfo@@@NGScene@@UAEPAXI@Z
??_G?$CResourceLoader@HVCCubeTexture@NGfx@@@NGScene@@UAEPAXI@Z
??_G?$CResourceLoader@HVCFileAnimationInfo@NAnimation@@@NGScene@@UAEPAXI@Z
??_G?$CResourceLoader@HVCFileBindInfo@NGScene@@@NGScene@@UAEPAXI@Z
??_G?$CResourceLoader@HVCFileSkeletonInfo@NAnimation@@@NGScene@@UAEPAXI@Z
??_G?$CResourceLoader@HVCFileSkinPoints@NAI@@@NGScene@@UAEPAXI@Z
??_G?$CResourceLoader@HVCFontFormatInfo@@@NGScene@@UAEPAXI@Z
??_G?$CResourceLoader@HVCGeometryInfo@NAI@@@NGScene@@UAEPAXI@Z
??_G?$CResourceLoader@HVCGlobalInfo@@@NGScene@@UAEPAXI@Z
??_G?$CResourceLoader@HVCHeadMeshInfo@NLSHead@@@NGScene@@UAEPAXI@Z
??_G?$CResourceLoader@HVCHeadSequenceInfo@NLSHead@@@NGScene@@UAEPAXI@Z
??_G?$CResourceLoader@HVCMETerrainInfo@@@NGScene@@UAEPAXI@Z
??_G?$CResourceLoader@HVCParticlesInfo@NGScene@@@NGScene@@UAEPAXI@Z
??_G?$CResourceLoader@HVCSWTextureData@NGScene@@@NGScene@@UAEPAXI@Z
??_G?$CResourceLoader@HVCSample2D@NFMSound@@@NGScene@@UAEPAXI@Z
??_G?$CResourceLoader@HVCSample3D@NFMSound@@@NGScene@@UAEPAXI@Z
??_G?$CResourceLoader@HVCTwoBSPTrees@NAI@@@NGScene@@UAEPAXI@Z
??_G?$CResourceLoader@HVCUnitAIInfo@NAI@@@NGScene@@UAEPAXI@Z
??_G?$CResourceLoader@HVCWaypoint@NAI@@@NGScene@@UAEPAXI@Z
??_G?$CResourceLoader@USPartKey@NGScene@@VCObjectInfo@2@@NGScene@@UAEPAXI@Z
??_G?$CResourceLoader@USPartKey@NGScene@@VCObjectInfoPieces@2@@NGScene@@UAEPAXI@Z
??_G?$CResourceLoader@USTextureKey@NGScene@@VCTexture@NGfx@@@NGScene@@UAEPAXI@Z
??_G?$CResourcePrecache@VCBuildInfoLoader@NBuilding@@@NGScene@@UAEPAXI@Z
??_G?$CResourcePrecache@VCFileAIBind@NGScene@@@NGScene@@UAEPAXI@Z
??_G?$CResourcePrecache@VCFileAnimation@NAnimation@@@NGScene@@UAEPAXI@Z
??_G?$CResourcePrecache@VCFileBind@NGScene@@@NGScene@@UAEPAXI@Z
??_G?$CResourcePrecache@VCFileSkeleton@NAnimation@@@NGScene@@UAEPAXI@Z
??_G?$CResourcePrecache@VCFileSkinPointsLoad@NAI@@@NGScene@@UAEPAXI@Z
??_G?$CResourcePrecache@VCLoadGeometryInfo@NAI@@@NGScene@@UAEPAXI@Z
??_G?$CResourcePrecache@VCObjectInfoLoader@NGScene@@@NGScene@@UAEPAXI@Z
??_G?$CScenarioFlowChartItemsList@VCScenarioClue@NScenario@@@NScenario@@MAEPAXI@Z
??_G?$CScenarioFlowChartItemsList@VCScenarioZone@NScenario@@@NScenario@@MAEPAXI@Z
??_G?$CScrollWindow@VCListView@NUI@@@NUI@@MAEPAXI@Z
??_G?$CScrollWindow@VCMLText@NUI@@@NUI@@MAEPAXI@Z
??_G?$CSetSyncSrc@UIVisObj@NWorld@@@@MAEPAXI@Z
??_G?$CSomeItem@VCRPGKey@NDb@@VIKeyItem@NRPG@@@NRPG@@MAEPAXI@Z
??_G?$CSomeItem@VCRPGMine@NDb@@VIMineItem@NRPG@@@NRPG@@MAEPAXI@Z
??_G?$CSomeItem@VCRPGMineDetector@NDb@@VIMineDetectorItem@NRPG@@@NRPG@@MAEPAXI@Z
??_G?$CSyncSrc@UIVisObj@NWorld@@@@UAEPAXI@Z
??_G?$SAISound@VCUnitServer@NWorld@@@NWorld@@QAEPAXI@Z
??_G?$SRealRectInfoLock@USGeomVecFull@NGfx@@@NGfx@@UAEPAXI@Z
??_G?$SRealRectInfoLock@USGeomVecT1C1@NGfx@@@NGfx@@UAEPAXI@Z
??_G?$STempArray@D@NAI@@MAEPAXI@Z
??_G?$STempArray@G@NAI@@MAEPAXI@Z
??_G?$STempArray@USTile@NAI@@@NAI@@MAEPAXI@Z
??_G?$basic_string@DU?$char_traits@D@std@@V?$allocator@D@_STL@@@_STL@@QAEPAXI@Z
??_G?$basic_string@GU?$char_traits@G@std@@V?$allocator@G@_STL@@@_STL@@QAEPAXI@Z
??_G?$hash_map@HV?$CPtr@VCBSPTree@NAI@@@@U?$hash@H@_STL@@U?$equal_to@H@3@V?$allocator@U?$pair@$$CBHV?$CPtr@VCBSPTree@NAI@@@@@_STL@@@3@@_STL@@QAEPAXI@Z
??_G?$pair@$$CBHUSBodypart@CFileSkinPoints@NAI@@@_STL@@QAEPAXI@Z
??_G?$pair@$$CBHUSFacesVector@NGScene@@@_STL@@QAEPAXI@Z
??_G?$pair@$$CBHUSFloorGroup@NBuilding@@@_STL@@QAEPAXI@Z
??_G?$pair@$$CBHUSPiece@CGeometryInfo@NAI@@@_STL@@QAEPAXI@Z
??_G?$pair@$$CBHUSStoredPiece@NAI@@@_STL@@QAEPAXI@Z
??_G?$pair@$$CBHUSStoredSkin@NAI@@@_STL@@QAEPAXI@Z
??_G?$pair@$$CBHUSUnitGroup@@@_STL@@QAEPAXI@Z
??_G?$pair@$$CBHV?$CNodeMap@USSolidElement@NBuilding@@@NBuilding@@@_STL@@QAEPAXI@Z
??_G?$pair@$$CBHV?$CObj@VCBuildingPart@NWorld@@@@@_STL@@QAEPAXI@Z
??_G?$pair@$$CBHV?$CObj@VCMapWaypoint@@@@@_STL@@QAEPAXI@Z
??_G?$pair@$$CBHV?$CObj@VCPerk@NRPG@@@@@_STL@@QAEPAXI@Z
??_G?$pair@$$CBHV?$CObj@VCWindow@NUI@@@@@_STL@@QAEPAXI@Z
??_G?$pair@$$CBHV?$CObj@VIMaterial@NGScene@@@@@_STL@@QAEPAXI@Z
??_G?$pair@$$CBHV?$CPtr@VCAIGeometryConverter@NGScene@@@@@_STL@@QAEPAXI@Z
??_G?$pair@$$CBHV?$CPtr@VCAISkinObjectConverter@NGScene@@@@@_STL@@QAEPAXI@Z
??_G?$pair@$$CBHV?$CPtr@VCBSPTree@NAI@@@@@_STL@@QAEPAXI@Z
??_G?$pair@$$CBHV?$CPtr@VCBuildInfoLoader@NBuilding@@@@@_STL@@QAEPAXI@Z
??_G?$pair@$$CBHV?$CPtr@VCChapterInfoLoader@@@@@_STL@@QAEPAXI@Z
??_G?$pair@$$CBHV?$CPtr@VCFileAIBind@NGScene@@@@@_STL@@QAEPAXI@Z
??_G?$pair@$$CBHV?$CPtr@VCFileAnimation@NAnimation@@@@@_STL@@QAEPAXI@Z
??_G?$pair@$$CBHV?$CPtr@VCFileBind@NGScene@@@@@_STL@@QAEPAXI@Z
??_G?$pair@$$CBHV?$CPtr@VCFileCubeTexture@NGScene@@@@@_STL@@QAEPAXI@Z
??_G?$pair@$$CBHV?$CPtr@VCFileFont@NGScene@@@@@_STL@@QAEPAXI@Z
??_G?$pair@$$CBHV?$CPtr@VCFileLocators@NAnimation@@@@@_STL@@QAEPAXI@Z
??_G?$pair@$$CBHV?$CPtr@VCFileSample2D@NSound@@@@@_STL@@QAEPAXI@Z
??_G?$pair@$$CBHV?$CPtr@VCFileSample3D@NSound@@@@@_STL@@QAEPAXI@Z
??_G?$pair@$$CBHV?$CPtr@VCFileSkeleton@NAnimation@@@@@_STL@@QAEPAXI@Z
??_G?$pair@$$CBHV?$CPtr@VCFileSkinPointsLoad@NAI@@@@@_STL@@QAEPAXI@Z
??_G?$pair@$$CBHV?$CPtr@VCGlobalInfoLoader@@@@@_STL@@QAEPAXI@Z
??_G?$pair@$$CBHV?$CPtr@VCHeadMeshLoader@NLSHead@@@@@_STL@@QAEPAXI@Z
??_G?$pair@$$CBHV?$CPtr@VCHeadSequenceLoader@NLSHead@@@@@_STL@@QAEPAXI@Z
??_G?$pair@$$CBHV?$CPtr@VCLightLoader@NGScene@@@@@_STL@@QAEPAXI@Z
??_G?$pair@$$CBHV?$CPtr@VCLoadGeometryInfo@NAI@@@@@_STL@@QAEPAXI@Z
??_G?$pair@$$CBHV?$CPtr@VCLoadTwoBSPTrees@NAI@@@@@_STL@@QAEPAXI@Z
??_G?$pair@$$CBHV?$CPtr@VCLocalAmbientCalcer@NGScene@@@@@_STL@@QAEPAXI@Z
??_G?$pair@$$CBHV?$CPtr@VCMETerrainLoader@@@@@_STL@@QAEPAXI@Z
??_G?$pair@$$CBHV?$CPtr@VCMapWaypoint@@@@@_STL@@QAEPAXI@Z
??_G?$pair@$$CBHV?$CPtr@VCParticlesLoader@NGScene@@@@@_STL@@QAEPAXI@Z
??_G?$pair@$$CBHV?$CPtr@VCSWTexture@NGScene@@@@@_STL@@QAEPAXI@Z
??_G?$pair@$$CBHV?$CPtr@VCUnitAIInfoLoader@NAI@@@@@_STL@@QAEPAXI@Z
??_G?$pair@$$CBHV?$CPtr@VCUnitGroupAIInfoLoader@NAI@@@@@_STL@@QAEPAXI@Z
??_G?$pair@$$CBHV?$CPtr@VCUnitServer@NWorld@@@@@_STL@@QAEPAXI@Z
??_G?$pair@$$CBHV?$CPtr@VCWaypointLoader@NAI@@@@@_STL@@QAEPAXI@Z
??_G?$pair@$$CBHV?$com_ptr@UIDirect3DSurface9@@@NWin32Helper@@@_STL@@QAEPAXI@Z
??_G?$pair@$$CBHV?$hash_map@HV?$list@W4ECritical@NDb@@V?$allocator@W4ECritical@NDb@@@_STL@@@_STL@@U?$hash@H@2@U?$equal_to@H@2@V?$allocator@U?$pair@$$CBHV?$list@W4ECritical@NDb@@V?$allocator@W4ECritical@NDb@@@_STL@@@_STL@@@_STL@@@2@@_STL@@@_STL@@QAEPAXI@Z
??_G?$pair@$$CBHV?$list@V?$CObj@VCScenarioFlowChartState@NScenario@@@@V?$allocator@V?$CObj@VCScenarioFlowChartState@NScenario@@@@@_STL@@@_STL@@@_STL@@QAEPAXI@Z
??_G?$pair@$$CBHV?$list@W4ECritical@NDb@@V?$allocator@W4ECritical@NDb@@@_STL@@@_STL@@@_STL@@QAEPAXI@Z
??_G?$pair@$$CBHVCCubemapBufferSet@NGfx@@@_STL@@QAEPAXI@Z
??_G?$pair@$$CBHVCTextureBuffersSet@NGfx@@@_STL@@QAEPAXI@Z
??_G?$pair@$$CBUSClipShare@NGScene@@V?$CPtr@VCSolidObjectInfoClipper@NGScene@@@@@_STL@@QAEPAXI@Z
??_G?$pair@$$CBUSClipShare@NGScene@@V?$CPtr@VCWallObjectInfoClipper@NGScene@@@@@_STL@@QAEPAXI@Z
??_G?$pair@$$CBUSDecalTargetPart@NGScene@@V?$vector@V?$CPtr@VCDecal@NGScene@@@@V?$allocator@V?$CPtr@VCDecal@NGScene@@@@@_STL@@@_STL@@@_STL@@QAEPAXI@Z
??_G?$pair@$$CBUSGeometryType@NGfx@@V?$CObj@V?$CLinearBuffer@VCVB@NGfx@@VCUserGeometry@2@@NGfx@@@@@_STL@@QAEPAXI@Z
??_G?$pair@$$CBUSPart@NBuilding@@USStoreyInfo@2@@_STL@@QAEPAXI@Z
??_G?$pair@$$CBUSPartKey@NGScene@@V?$CPtr@VCObjectInfoLoader@NGScene@@@@@_STL@@QAEPAXI@Z
??_G?$pair@$$CBUSPartKey@NGScene@@V?$CPtr@VCObjectInfoPiecesLoader@NGScene@@@@@_STL@@QAEPAXI@Z
??_G?$pair@$$CBUSPathPlace@NAI@@USTransitionSet@CNodesLayer@2@@_STL@@QAEPAXI@Z
??_G?$pair@$$CBUSPlane@@USPolygonIndices@NGScene@@@_STL@@QAEPAXI@Z
??_G?$pair@$$CBUSPointLightPos@CLightmapTracker@NGScene@@V?$CObj@VCCubeTexture@NGfx@@@@@_STL@@QAEPAXI@Z
??_G?$pair@$$CBUSSrcPosInfo@NGScene@@V?$vector@VCVec3@@V?$allocator@VCVec3@@@_STL@@@_STL@@@_STL@@QAEPAXI@Z
??_G?$pair@$$CBUSTextureKey@NGScene@@V?$CPtr@VCFileTexture@NGScene@@@@@_STL@@QAEPAXI@Z
??_G?$pair@$$CBUSVoxelObjectKey@NAI@@USExplObject@CExplVoxelRenderer@2@@_STL@@QAEPAXI@Z
??_G?$pair@$$CBV?$CPtr@UIVisObj@NWorld@@@@H@_STL@@QAEPAXI@Z
??_G?$pair@$$CBV?$CPtr@UIVisObj@NWorld@@@@USObjectInfo@?$CBoolSyncSrc@UIVisObj@NWorld@@VCIntersectionFunc@@@@@_STL@@QAEPAXI@Z
??_G?$pair@$$CBV?$CPtr@UIVisObj@NWorld@@@@USObjectInfo@?$CBoolSyncSrc@UIVisObj@NWorld@@VCUnionFunc@@@@@_STL@@QAEPAXI@Z
??_G?$pair@$$CBV?$CPtr@V?$CFuncBase@USTerrainInfo@@@@@@V?$CObj@VCGrassTracker@NGScene@@@@@_STL@@QAEPAXI@Z
??_G?$pair@$$CBV?$CPtr@VCAIAction@NAI@@@@H@_STL@@QAEPAXI@Z
??_G?$pair@$$CBV?$CPtr@VCAIAction@NAI@@@@_N@_STL@@QAEPAXI@Z
??_G?$pair@$$CBV?$CPtr@VCObjectBase@@@@H@_STL@@QAEPAXI@Z
??_G?$pair@$$CBV?$CPtr@VCObjectBase@@@@USDynLockInfo@CPathNetwork@NAI@@@_STL@@QAEPAXI@Z
??_G?$pair@$$CBV?$CPtr@VCObjectBase@@@@USLockInfo@CPathNetwork@NAI@@@_STL@@QAEPAXI@Z
??_G?$pair@$$CBV?$CPtr@VCObjectBase@@@@V?$CPtr@VCSelection@NRender@@@@@_STL@@QAEPAXI@Z
??_G?$pair@$$CBV?$CPtr@VCObjectBase@@@@V?$list@HV?$allocator@H@_STL@@@_STL@@@_STL@@QAEPAXI@Z
??_G?$pair@$$CBV?$CPtr@VCObjectBase@@@@VCPartFlags@NGScene@@@_STL@@QAEPAXI@Z
??_G?$pair@$$CBV?$CPtr@VCObjectBase@@@@_N@_STL@@QAEPAXI@Z
??_G?$pair@$$CBV?$CPtr@VCScenarioClue@NScenario@@@@H@_STL@@QAEPAXI@Z
??_G?$pair@$$CBV?$CPtr@VCScenarioClue@NScenario@@@@USClueSlot@@@_STL@@QAEPAXI@Z
??_G?$pair@$$CBV?$CPtr@VCTB@NGfx@@@@V?$CObj@VCTexture@NGfx@@@@@_STL@@QAEPAXI@Z
??_G?$pair@$$CBV?$CPtr@VCUnit@NRPG@@@@USUnitDeployData@NRPG@@@_STL@@QAEPAXI@Z
??_G?$pair@$$CBV?$CPtr@VCUnit@NWorld@@@@_N@_STL@@QAEPAXI@Z
??_G?$pair@$$CBV?$CPtr@VCUnitServer@NWorld@@@@V?$CPtr@VIPassageObject@NWorld@@@@@_STL@@QAEPAXI@Z
??_G?$pair@$$CBV?$CPtr@VIAIJob@NAI@@@@V?$list@V?$CPtr@VIAIJob@NAI@@@@V?$allocator@V?$CPtr@VIAIJob@NAI@@@@@_STL@@@_STL@@@_STL@@QAEPAXI@Z
??_G?$pair@$$CBV?$CPtr@VIInventoryItem@NRPG@@@@V?$CPtr@VCItemText@NUI@@@@@_STL@@QAEPAXI@Z
??_G?$pair@$$CBV?$CPtr@VIPostProcess@NGScene@@@@V?$vector@USObject@IPostProcess@NGScene@@V?$allocator@USObject@IPostProcess@NGScene@@@_STL@@@_STL@@@_STL@@QAEPAXI@Z
??_G?$pair@$$CBV?$basic_string@DU?$char_traits@D@std@@V?$allocator@D@_STL@@@_STL@@H@_STL@@QAEPAXI@Z
??_G?$pair@$$CBV?$basic_string@DU?$char_traits@D@std@@V?$allocator@D@_STL@@@_STL@@V?$CObj@VCAIRouteWaypoint@NAI@@@@@_STL@@QAEPAXI@Z
??_G?$pair@$$CBV?$basic_string@DU?$char_traits@D@std@@V?$allocator@D@_STL@@@_STL@@V?$CPtr@VCObjectBase@@@@@_STL@@QAEPAXI@Z
??_G?$pair@$$CBV?$basic_string@DU?$char_traits@D@std@@V?$allocator@D@_STL@@@_STL@@V?$CPtr@VIFilesPackage@@@@@_STL@@QAEPAXI@Z
??_G?$pair@$$CBV?$basic_string@GU?$char_traits@G@std@@V?$allocator@G@_STL@@@_STL@@V12@@_STL@@QAEPAXI@Z
??_G?$pair@$$CBV?$basic_string@GU?$char_traits@G@std@@V?$allocator@G@_STL@@@_STL@@V?$CObj@VIMLHandler@NUI@@@@@_STL@@QAEPAXI@Z
??_G?$pair@$$CBVCVec3@@V?$CObj@VIMaterial@NGScene@@@@@_STL@@QAEPAXI@Z
??_G?$pair@$$CBVCVec3@@V?$list@PAVCPolyline@NGScene@@V?$allocator@PAVCPolyline@NGScene@@@_STL@@@_STL@@@_STL@@QAEPAXI@Z
??_G?$pair@$$CBVCVec3@@V?$vector@V?$CObj@VCMine@NWorld@@@@V?$allocator@V?$CObj@VCMine@NWorld@@@@@_STL@@@_STL@@@_STL@@QAEPAXI@Z
??_G?$pair@$$CBVCVec4@@V?$CObj@VIMaterial@NGScene@@@@@_STL@@QAEPAXI@Z
??_G?$pair@$$CBVCVec4@@V?$list@V?$CPtr@VCSelection@NGScene@@@@V?$allocator@V?$CPtr@VCSelection@NGScene@@@@@_STL@@@_STL@@@_STL@@QAEPAXI@Z
??_G?$pair@$$CBW4_D3DFORMAT@@V?$CPtr@VCSurfaceRing@NGfx@@@@@_STL@@QAEPAXI@Z
??_G?$pair@QAXV?$CPtr@VCObjectBase@@@@@_STL@@QAEPAXI@Z
??_G?$pair@V?$CPtr@VCWindow@NUI@@@@USWindow@CLoader@NUI@@@_STL@@QAEPAXI@Z
??_G?$vector@HV?$allocator@H@_STL@@@_STL@@QAEPAXI@Z
??_G?$vector@USCriticalType@NRPG@@V?$allocator@USCriticalType@NRPG@@@_STL@@@_STL@@QAEPAXI@Z
??_G?$vector@USHeightNodeRef@NAI@@V?$allocator@USHeightNodeRef@NAI@@@_STL@@@_STL@@QAEPAXI@Z
??_G?$vector@USTriangle@@V?$allocator@USTriangle@@@_STL@@@_STL@@QAEPAXI@Z
??_G?$vector@V?$CObj@VCObjectBase@@@@V?$allocator@V?$CObj@VCObjectBase@@@@@_STL@@@_STL@@QAEPAXI@Z
??_G?$vector@VCVec2@@V?$allocator@VCVec2@@@_STL@@@_STL@@QAEPAXI@Z
??_GC2DGameView@NGScene@@MAEPAXI@Z
??_GC2DScene@NGScene@@UAEPAXI@Z
??_GC3DSound@NWorld@@UAEPAXI@Z
??_GCAAdder@NAnimation@@MAEPAXI@Z
??_GCABoneFilter@NAnimation@@MAEPAXI@Z
??_GCAFunction@NAnimation@@UAEPAXI@Z
??_GCAFunctionConstant@NAnimation@@MAEPAXI@Z
??_GCAFunctionCos@NAnimation@@MAEPAXI@Z
??_GCAFunctionLinear@NAnimation@@MAEPAXI@Z
??_GCAFunctionParabola@NAnimation@@MAEPAXI@Z
??_GCAFunctionPathDirection@NAnimation@@MAEPAXI@Z
??_GCAFunctionSinus@NAnimation@@MAEPAXI@Z
??_GCAFunctionSum@NAnimation@@MAEPAXI@Z
??_GCAIAction@NAI@@UAEPAXI@Z
??_GCAIActionIterator@NAI@@MAEPAXI@Z
??_GCAIChoosePlaceForActionsJob@NAI@@MAEPAXI@Z
??_GCAICommander@NAI@@MAEPAXI@Z
??_GCAIControl@NAI@@UAEPAXI@Z
??_GCAICorpseSignal@NAI@@MAEPAXI@Z
??_GCAIFindGoodPlacesJob@NAI@@MAEPAXI@Z
??_GCAIFireArmsWeapon@NAI@@MAEPAXI@Z
??_GCAIFireArmsWeaponClip@NAI@@MAEPAXI@Z
??_GCAIGeometryConverter@NGScene@@MAEPAXI@Z
??_GCAIGrenadeSoundSignal@NAI@@MAEPAXI@Z
??_GCAIGrenadeWeapon@NAI@@MAEPAXI@Z
??_GCAIHitSignal@NAI@@MAEPAXI@Z
??_GCAIInventory@NAI@@MAEPAXI@Z
??_GCAIIterator@NAI@@UAEPAXI@Z
??_GCAIJob@NAI@@UAEPAXI@Z
??_GCAIJobManager@NAI@@MAEPAXI@Z
??_GCAIK2Chain@NAnimation@@MAEPAXI@Z
??_GCAILaunchRocketAction@NAI@@MAEPAXI@Z
??_GCAILogAddWeapon@NAI@@MAEPAXI@Z
??_GCAILogAddWeaponClip@NAI@@MAEPAXI@Z
??_GCAILogChangeMaxToHit@NAI@@MAEPAXI@Z
??_GCAILogChangeShootMode@NAI@@MAEPAXI@Z
??_GCAILogChangeWeapon@NAI@@MAEPAXI@Z
??_GCAILogContainer@NAI@@MAEPAXI@Z
??_GCAILogDropItem@NAI@@MAEPAXI@Z
??_GCAILogExpediency@NAI@@MAEPAXI@Z
??_GCAILogHide@NAI@@MAEPAXI@Z
??_GCAILogHurt@NAI@@MAEPAXI@Z
??_GCAILogPickUpItem@NAI@@MAEPAXI@Z
??_GCAILogPosition@NAI@@MAEPAXI@Z
??_GCAILogRecord@NAI@@MAEPAXI@Z
??_GCAILogReloadWeapon@NAI@@MAEPAXI@Z
??_GCAILogShot@NAI@@MAEPAXI@Z
??_GCAILogShotPoint@NAI@@MAEPAXI@Z
??_GCAILogSpendAP@NAI@@MAEPAXI@Z
??_GCAILogSpendAmmo@NAI@@MAEPAXI@Z
??_GCAILogSpendHP@NAI@@MAEPAXI@Z
??_GCAILogThrowGrenade@NAI@@MAEPAXI@Z
??_GCAILogic@NAI@@UAEPAXI@Z
??_GCAILogicAttack@NAI@@MAEPAXI@Z
??_GCAIMap@NAI@@MAEPAXI@Z
??_GCAINumberIterator@NAI@@UAEPAXI@Z
??_GCAIOneSegmentSignal@NAI@@UAEPAXI@Z
??_GCAIPlayer@NAI@@MAEPAXI@Z
??_GCAIPositionIterator@NAI@@MAEPAXI@Z
??_GCAIRevealEnemySignal@NAI@@MAEPAXI@Z
??_GCAIRoute@NAI@@MAEPAXI@Z
??_GCAIRouteWaypoint@NAI@@MAEPAXI@Z
??_GCAIShootAction@NAI@@MAEPAXI@Z
??_GCAIShootSignal@NAI@@MAEPAXI@Z
??_GCAISignal@NAI@@UAEPAXI@Z
??_GCAISignalManager@NAI@@MAEPAXI@Z
??_GCAISkinObjectConverter@NGScene@@MAEPAXI@Z
??_GCAISoundSignal@NAI@@MAEPAXI@Z
??_GCAIState@NAI@@MAEPAXI@Z
??_GCAITacticalCommander@NAI@@MAEPAXI@Z
??_GCAITacticalControl@NAI@@MAEPAXI@Z
??_GCAITaskCommander@NAI@@MAEPAXI@Z
??_GCAITaskControl@NAI@@MAEPAXI@Z
??_GCAIThrowGrenadeAction@NAI@@MAEPAXI@Z
??_GCAIUnit@NAI@@MAEPAXI@Z
??_GCAIUnitIterator@NAI@@MAEPAXI@Z
??_GCAIUnitNoWeaponToHitCalcer@NRPG@@MAEPAXI@Z
??_GCAIUnitSoundSignal@NAI@@MAEPAXI@Z
??_GCAIUnitToHitCalcer@NRPG@@MAEPAXI@Z
??_GCAIViewer@@MAEPAXI@Z
??_GCAInterpolator@NAnimation@@MAEPAXI@Z
??_GCAPCritical@NRPG@@EAEPAXI@Z
??_GCAParticle@NAnimation@@UAEPAXI@Z
??_GCAPoseAimer@NAnimation@@MAEPAXI@Z
??_GCAPoseMemorizer@NAnimation@@MAEPAXI@Z
??_GCARandom@NAnimation@@MAEPAXI@Z
??_GCASequence@NAnimation@@MAEPAXI@Z
??_GCASmartAimer@NAnimation@@MAEPAXI@Z
??_GCASphereSet@NAnimation@@MAEPAXI@Z
??_GCASubtractor@NAnimation@@MAEPAXI@Z
??_GCATerrain@NAnimation@@MAEPAXI@Z
??_GCATerrainCrawl@NAnimation@@MAEPAXI@Z
??_GCATerrainSimple@NAnimation@@MAEPAXI@Z
??_GCATrailPath@NAnimation@@MAEPAXI@Z
??_GCATurnBody@NAnimation@@MAEPAXI@Z
??_GCAccidentalShotCritical@NRPG@@EAEPAXI@Z
??_GCAckAccidentallyWoundFriend@NWorld@@MAEPAXI@Z
??_GCAckBase@NWorld@@UAEPAXI@Z
??_GCAckCannotFinishHeal@NWorld@@MAEPAXI@Z
??_GCAckCertainTypeEnemyBecomesVisible@NWorld@@MAEPAXI@Z
??_GCAckEnemyBecomesVisible@NWorld@@MAEPAXI@Z
??_GCAckEnemyBecomesVisibleInRealtime@NWorld@@MAEPAXI@Z
??_GCAckEnemyBecomesVisibleInTurnbased@NWorld@@MAEPAXI@Z
??_GCAckEnemyHasBeenInfictedCritical@NWorld@@MAEPAXI@Z
??_GCAckEnemyMissedTarget@NWorld@@MAEPAXI@Z
??_GCAckEvent@NUI@@UAEPAXI@Z
??_GCAckEvent@NWorld@@MAEPAXI@Z
??_GCAckFriendDies@NWorld@@MAEPAXI@Z
??_GCAckFriendGrenadeDestroysALotOfObjects@NWorld@@MAEPAXI@Z
??_GCAckFriendGrenadeKillsMoreThanOneEnemy@NWorld@@MAEPAXI@Z
??_GCAckFriendInflictsCriticalDamageToEnemy@NWorld@@MAEPAXI@Z
??_GCAckFriendTargetMissed@NWorld@@MAEPAXI@Z
??_GCAckGrenadeDestroysALotOfObjects@NWorld@@MAEPAXI@Z
??_GCAckGrenadeKillsMoreThanOneEnemy@NWorld@@MAEPAXI@Z
??_GCAckHardTargetHit@NWorld@@MAEPAXI@Z
??_GCAckHealOfFriendFinished@NWorld@@MAEPAXI@Z
??_GCAckIcon@NUI@@UAEPAXI@Z
??_GCAckImpossibleToPerformAction@NWorld@@MAEPAXI@Z
??_GCAckInflictCriticalDamageToEnemy@NWorld@@MAEPAXI@Z
??_GCAckInterruptedEnemy@NWorld@@MAEPAXI@Z
??_GCAckKilledAnEnemy@NWorld@@MAEPAXI@Z
??_GCAckKilledCertainTypeEnemy@NWorld@@MAEPAXI@Z
??_GCAckKillingNthEnemyInARow@NWorld@@MAEPAXI@Z
??_GCAckLastPieceOfAmmo@NWorld@@MAEPAXI@Z
??_GCAckLongBurst@NWorld@@MAEPAXI@Z
??_GCAckNthUnitWasKilled@NWorld@@MAEPAXI@Z
??_GCAckOrderConfirmation@NWorld@@MAEPAXI@Z
??_GCAckPCSufferCriticalDamage@NWorld@@MAEPAXI@Z
??_GCAckSelfHealFinished@NWorld@@MAEPAXI@Z
??_GCAckSkillIncreased@NWorld@@MAEPAXI@Z
??_GCAckStrongEnemyBecomesVisible@NWorld@@MAEPAXI@Z
??_GCAckSuffersHardDamage@NWorld@@MAEPAXI@Z
??_GCAckSuffersLightDamage@NWorld@@MAEPAXI@Z
??_GCAckTargetHit@NWorld@@MAEPAXI@Z
??_GCAckTargetMissed@NWorld@@MAEPAXI@Z
??_GCAckUnhide@NWorld@@MAEPAXI@Z
??_GCAckUnitDied@NWorld@@MAEPAXI@Z
??_GCAckWeakEnemyBecomesVisible@NWorld@@MAEPAXI@Z
??_GCAckWeaponJammed@NWorld@@MAEPAXI@Z
??_GCActionCounter@NWorld@@MAEPAXI@Z
??_GCAddBoneFilter@NAnimation@@MAEPAXI@Z
??_GCAddBoneLocators@NAnimation@@MAEPAXI@Z
??_GCAlienMaterial@NGScene@@UAEPAXI@Z
??_GCAlphaSqrtEffect@NGfx@@UAEPAXI@Z
??_GCAmmoItem@NRPG@@MAEPAXI@Z
??_GCAnimLight@NGScene@@MAEPAXI@Z
??_GCAnimLightInfo@NGScene@@MAEPAXI@Z
??_GCAnimObjectServer@NWorld@@UAEPAXI@Z
??_GCAnimObjectServerBase@NWorld@@UAEPAXI@Z
??_GCAnimPassageObject@NWorld@@UAEPAXI@Z
??_GCAnimUnitView@NUI@@UAEPAXI@Z
??_GCAnimatedPart@NGScene@@UAEPAXI@Z
??_GCAnimation@NAnimation@@MAEPAXI@Z
??_GCAnimator@NAnimation@@UAEPAXI@Z
??_GCAttackPortion@NRPG@@QAEPAXI@Z
??_GCAudioOptionsUI@NUI@@UAEPAXI@Z
??_GCAutomaticCombiner@NGScene@@UAEPAXI@Z
??_GCBOTTOMHandler@NUI@@MAEPAXI@Z
??_GCBRHandler@NUI@@MAEPAXI@Z
??_GCBSPTree@NAI@@MAEPAXI@Z
??_GCBSPTreeConstructor@NAI@@MAEPAXI@Z
??_GCBackPackSlot@NUI@@MAEPAXI@Z
??_GCBaseCamera@@UAEPAXI@Z
??_GCBaseParticlesGeometry@NGScene@@UAEPAXI@Z
??_GCBaseView@NUI@@MAEPAXI@Z
??_GCBilinearTexture@NGScene@@MAEPAXI@Z
??_GCBind@NGScene@@MAEPAXI@Z
??_GCBleedingCritical@NRPG@@EAEPAXI@Z
??_GCBlindCritical@NRPG@@EAEPAXI@Z
??_GCBlurEffect@NGfx@@UAEPAXI@Z
??_GCBufferedStream@@UAEPAXI@Z
??_GCBuildInfo@NBuilding@@MAEPAXI@Z
??_GCBuildInfoLoader@NBuilding@@MAEPAXI@Z
??_GCBuilder@NTerrain@@MAEPAXI@Z
??_GCBuilding@NGScene@@MAEPAXI@Z
??_GCBuilding@NRPG@@MAEPAXI@Z
??_GCBuilding@NWorld@@UAEPAXI@Z
??_GCBuildingGrid@NBuilding@@MAEPAXI@Z
??_GCBuildingInfoHold@NBuilding@@MAEPAXI@Z
??_GCBuildingPart@NWorld@@UAEPAXI@Z
??_GCBuildingSchema@NBuilding@@MAEPAXI@Z
??_GCBulletServer@NWorld@@UAEPAXI@Z
??_GCButton@NUI@@UAEPAXI@Z
??_GCButtonsPanel@NUI@@UAEPAXI@Z
??_GCCENTERHandler@NUI@@MAEPAXI@Z
??_GCCFBTransform@NGScene@@MAEPAXI@Z
??_GCCFloat@NGScene@@MAEPAXI@Z
??_GCCInt@NGScene@@MAEPAXI@Z
??_GCCLAmbientMulDiffuseEffect@NGfx@@UAEPAXI@Z
??_GCCMSR@NGScene@@MAEPAXI@Z
??_GCCOLORHandler@NUI@@MAEPAXI@Z
??_GCCRectLayout@NGScene@@MAEPAXI@Z
??_GCCSWRectLayout@NGScene@@MAEPAXI@Z
??_GCCTPoint@NGScene@@MAEPAXI@Z
??_GCCTRect@NGScene@@MAEPAXI@Z
??_GCCTerrainInfo@@MAEPAXI@Z
??_GCCTime@@MAEPAXI@Z
??_GCCVec2@NGScene@@MAEPAXI@Z
??_GCCVec3@NGScene@@MAEPAXI@Z
??_GCCVec4@NGScene@@MAEPAXI@Z
??_GCCWString@NGScene@@MAEPAXI@Z
??_GCCamera@@MAEPAXI@Z
??_GCCannon@NWorld@@UAEPAXI@Z
??_GCChapterInfo@@MAEPAXI@Z
??_GCChapterInfoLoader@@MAEPAXI@Z
??_GCChapterMap@NGame@@UAEPAXI@Z
??_GCChapterMapUI@NUI@@UAEPAXI@Z
??_GCChapterSector@NUI@@UAEPAXI@Z
??_GCCharGenMenuInterface@NGame@@MAEPAXI@Z
??_GCCharGenUI@NUI@@MAEPAXI@Z
??_GCCharacterPanel@NUI@@MAEPAXI@Z
??_GCCheckButton@NUI@@UAEPAXI@Z
??_GCClickOfDeath@NWorld@@UAEPAXI@Z
??_GCClipItem@NRPG@@MAEPAXI@Z
??_GCClipper@NGScene@@MAEPAXI@Z
??_GCClueItem@NRPG@@MAEPAXI@Z
??_GCCluesInterface@NGame@@MAEPAXI@Z
??_GCCluesItem@NUI@@UAEPAXI@Z
??_GCCluesUI@NUI@@UAEPAXI@Z
??_GCCmd@NWorld@@UAEPAXI@Z
??_GCCmdActivateItem@NWorld@@MAEPAXI@Z
??_GCCmdAddUnit@NWorld@@MAEPAXI@Z
??_GCCmdArrangeInventory@NWorld@@MAEPAXI@Z
??_GCCmdCallScriptFunction@NWorld@@MAEPAXI@Z
??_GCCmdCancel@NWorld@@MAEPAXI@Z
??_GCCmdCannon@NWorld@@MAEPAXI@Z
??_GCCmdChangePose@NWorld@@MAEPAXI@Z
??_GCCmdCheat@NWorld@@MAEPAXI@Z
??_GCCmdClimb@NWorld@@MAEPAXI@Z
??_GCCmdCollectSnipeAP@NWorld@@MAEPAXI@Z
??_GCCmdContinue@NWorld@@MAEPAXI@Z
