EXPORTS
??0?$CMObj@VCChannel@NFMSound@@@@QAE@ABV0@@Z
??0?$CMObj@VCChannel@NFMSound@@@@QAE@XZ
??0?$CMObj@VCObjectBase@@@@QAE@ABV0@@Z
??0?$CMObj@VCObjectBase@@@@QAE@PAVCObjectBase@@@Z
??0?$CMObj@VCStream@NFMSound@@@@QAE@ABV0@@Z
??0?$CMObj@VCStream@NFMSound@@@@QAE@PAVCStream@NFMSound@@@Z
??0?$_String_base@DV?$allocator@D@_STL@@@_STL@@QAE@ABV?$allocator@D@1@@Z
??0?$pair@$$CBHV?$CMObj@VCChannel@NFMSound@@@@@_STL@@QAE@ABHABV?$CMObj@VCChannel@NFMSound@@@@@Z
??0?$pair@$$CBHV?$CMObj@VCChannel@NFMSound@@@@@_STL@@QAE@ABU01@@Z
??0CChannel@NFMSound@@QAE@XZ
??0CObjectBase@@QAE@XZ
??0CQuat@@QAE@MABVCVec3@@_N@Z
??0CSample2D@NFMSound@@QAE@PAUFSOUND_SAMPLE@@@Z
??0CSample3D@NFMSound@@QAE@PAUFSOUND_SAMPLE@@@Z
??0CSound2D@NFMSound@@QAE@PAVCSample2D@1@@Z
??0CSound3D@NFMSound@@QAE@ABV01@@Z
??0CSound3D@NFMSound@@QAE@PAVCSample3D@1@ABVCVec3@@1HH@Z
??0CStream@NFMSound@@QAE@V?$basic_string@DU?$char_traits@D@std@@V?$allocator@D@_STL@@@_STL@@_N@Z
??0CVec2@@QAE@MM@Z
??0CVec3@@QAE@MMM@Z
??0CVec3@@QAE@XZ
??0CVec4@@QAE@MMMM@Z
??0CVec4@@QAE@XZ
??0ISound3D@NFMSound@@QAE@XZ
??0SDriverInfo@NFMSound@@QAE@ABU01@@Z
??0SDriverInfo@NFMSound@@QAE@XZ
??0SFSoundSample@NFMSound@@QAE@PAUFSOUND_SAMPLE@@@Z
??0SHMatrix@@QAE@XZ
??1?$CMObj@VCChannel@NFMSound@@@@QAE@XZ
??1?$CMObj@VCObjectBase@@@@QAE@XZ
??1?$CMObj@VCStream@NFMSound@@@@QAE@XZ
??1?$_String_base@DV?$allocator@D@_STL@@@_STL@@QAE@XZ
??1?$pair@$$CBHV?$CMObj@VCChannel@NFMSound@@@@@_STL@@QAE@XZ
??1CChannel@NFMSound@@UAE@XZ
??1CObjectBase@@MAE@XZ
??1CSample2D@NFMSound@@MAE@XZ
??1CSample3D@NFMSound@@MAE@XZ
??1CSound2D@NFMSound@@MAE@XZ
??1CSound3D@NFMSound@@MAE@XZ
??1CStream@NFMSound@@UAE@XZ
??1SDriverInfo@NFMSound@@QAE@XZ
??1SFSoundSample@NFMSound@@QAE@XZ
??2@YAPAXIPAX@Z
??3@YAXPAX0@Z
??4?$CMObj@VCChannel@NFMSound@@@@QAEAAV0@PAVCChannel@NFMSound@@@Z
??4SDriverInfo@NFMSound@@QAEAAU01@ABU01@@Z
??9CVec3@@QBE_NABV0@@Z
??ACVec3@@QAEAAMH@Z
??BCSample2D@NFMSound@@QBEPAUFSOUND_SAMPLE@@XZ
??BCSample3D@NFMSound@@QBEPAUFSOUND_SAMPLE@@XZ
??D@YI?BVCVec3@@ABV0@M@Z
??G@YI?BVCVec3@@ABV0@0@Z
??ICObjectBase@@UAEHAAVCStructureSaver@@@Z
??K@YI?BVCVec3@@ABV0@M@Z
??R?$_Select1st@U?$pair@$$CBHV?$CMObj@VCChannel@NFMSound@@@@@_STL@@@_STL@@QBEABHABU?$pair@$$CBHV?$CMObj@VCChannel@NFMSound@@@@@1@@Z
??R?$equal_to@H@_STL@@QBE_NABH0@Z
??R?$hash@H@_STL@@QBEIH@Z
??R?$less@I@_STL@@QBE_NABI0@Z
??_G?$CMObj@VCObjectBase@@@@QAEPAXI@Z
??_G?$CMObj@VCStream@NFMSound@@@@QAEPAXI@Z
??_G?$pair@$$CBHV?$CMObj@VCChannel@NFMSound@@@@@_STL@@QAEPAXI@Z
??_GCChannel@NFMSound@@UAEPAXI@Z
??_GCObjectBase@@MAEPAXI@Z
??_GCSample2D@NFMSound@@MAEPAXI@Z
??_GCSample3D@NFMSound@@MAEPAXI@Z
??_GCSound2D@NFMSound@@MAEPAXI@Z
??_GCSound3D@NFMSound@@MAEPAXI@Z
??_GCStream@NFMSound@@UAEPAXI@Z
??_GSDriverInfo@NFMSound@@QAEPAXI@Z
?AddObj@CObjectBase@@AAEXH@Z
?AddRef@CObjectBase@@AAEXXZ
?AddRef@SRef@CObjectBase@@QAEXPAV2@@Z
?AddRef@SRefM@CObjectBase@@QAEXPAV2@@Z
?AddRef@SRefO@CObjectBase@@QAEXPAV2@@Z
?CancelFadeOut@CStream@NFMSound@@QAEXXZ
?CancelFadeOut@NFMSound@@YIXPAVCStream@1@@Z
?CastToObjectBase@@YIPAVCObjectBase@@PAV1@@Z
?CastToObjectBase@@YIPAVCObjectBase@@PAVCChannel@NFMSound@@@Z
?CastToObjectBase@@YIPAVCObjectBase@@PAVCSample2D@NFMSound@@@Z
?CastToObjectBase@@YIPAVCObjectBase@@PAVCSample3D@NFMSound@@@Z
?CastToObjectBase@@YIPAVCObjectBase@@PAVCSound2D@NFMSound@@@Z
?CastToObjectBase@@YIPAVCObjectBase@@PAVCSound3D@NFMSound@@@Z
?CastToObjectBase@@YIPAVCObjectBase@@PAVCStream@NFMSound@@@Z
?CastToObjectBaseImpl@@YIPAVCObjectBase@@PAV1@0@Z
?CastToObjectBaseImpl@@YIPAVCObjectBase@@PAVCChannel@NFMSound@@PAV1@@Z
?CastToObjectBaseImpl@@YIPAVCObjectBase@@PAVCSample2D@NFMSound@@PAV1@@Z
?CastToObjectBaseImpl@@YIPAVCObjectBase@@PAVCSample2D@NFMSound@@PAX@Z
?CastToObjectBaseImpl@@YIPAVCObjectBase@@PAVCSample3D@NFMSound@@PAV1@@Z
?CastToObjectBaseImpl@@YIPAVCObjectBase@@PAVCSample3D@NFMSound@@PAX@Z
?CastToObjectBaseImpl@@YIPAVCObjectBase@@PAVCSound2D@NFMSound@@PAV1@@Z
?CastToObjectBaseImpl@@YIPAVCObjectBase@@PAVCSound2D@NFMSound@@PAX@Z
?CastToObjectBaseImpl@@YIPAVCObjectBase@@PAVCSound3D@NFMSound@@PAV1@@Z
?CastToObjectBaseImpl@@YIPAVCObjectBase@@PAVCSound3D@NFMSound@@PAX@Z
?CastToObjectBaseImpl@@YIPAVCObjectBase@@PAVCStream@NFMSound@@PAV1@@Z
?CastToObjectBaseImpl@@YIPAVCObjectBase@@PAVCStream@NFMSound@@PAX@Z
?CastToUserObjectImpl@@YIPAVCSample2D@NFMSound@@PAVCObjectBase@@PAV12@PAX@Z
?CastToUserObjectImpl@@YIPAVCSample3D@NFMSound@@PAVCObjectBase@@PAV12@PAX@Z
?CastToUserObjectImpl@@YIPAVCSound2D@NFMSound@@PAVCObjectBase@@PAV12@PAX@Z
?CastToUserObjectImpl@@YIPAVCSound3D@NFMSound@@PAVCObjectBase@@PAV12@PAX@Z
?CastToUserObjectImpl@@YIPAVCStream@NFMSound@@PAVCObjectBase@@PAV12@PAX@Z
?DestroyContents@CSample2D@NFMSound@@MAEXXZ
?DestroyContents@CSample3D@NFMSound@@MAEXXZ
?DestroyContents@CSound2D@NFMSound@@MAEXXZ
?DestroyContents@CSound3D@NFMSound@@MAEXXZ
?DestroyContents@CStream@NFMSound@@MAEXXZ
?Done@NFMSound@@YIXXZ
?EraseInvalidRefs@@YI_NPAV?$list@V?$CMObj@VCObjectBase@@@@V?$allocator@V?$CMObj@VCObjectBase@@@@@_STL@@@_STL@@@Z
?EraseInvalidRefs@@YI_NPAV?$list@V?$CMObj@VCStream@NFMSound@@@@V?$allocator@V?$CMObj@VCStream@NFMSound@@@@@_STL@@@_STL@@@Z
?FadeOut@CStream@NFMSound@@QAEXM@Z
?FadeOut@NFMSound@@YIXPAVCStream@1@M@Z
?FromAngleAxis@CQuat@@QAEXMABVCVec3@@_N@Z
?GetDefault3DSound@NFMSound@@YIPAVCSample3D@1@XZ
?GetFileName@CStream@NFMSound@@QBE?AV?$basic_string@DU?$char_traits@D@std@@V?$allocator@D@_STL@@@_STL@@XZ
?GetVelocity@NFMSound@@YI?AVCVec3@@ABV2@0N@Z
?Init@NFMSound@@YI_NABUSStartInfo@1@@Z
?IsEmpty@CSample3D@NFMSound@@QBE_NXZ
?IsInitialized@NFMSound@@YI_NXZ
?IsLooped@CStream@NFMSound@@QBE_NXZ
?IsPlaying@CStream@NFMSound@@QAE_NXZ
?IsPlaying@NFMSound@@YI_NPAVCSound2D@1@@Z
?IsPlaying@NFMSound@@YI_NPAVCSound3D@1@@Z
?IsPlaying@NFMSound@@YI_NPAVCStream@1@@Z
?IsRefInvalid@CObjectBase@@QBEHXZ
?LoadSample2D@NFMSound@@YIPAVCSample2D@1@PBXH@Z
?LoadSample3D@NFMSound@@YIPAVCSample3D@1@PBXHMMH@Z
?MakeCopy@CObjectBase@@MBEPAV1@XZ
?MakeCopy@CSample2D@NFMSound@@MBEPAVCObjectBase@@XZ
?MakeCopy@CSample3D@NFMSound@@MBEPAVCObjectBase@@XZ
?MakeCopy@CSound2D@NFMSound@@MBEPAVCObjectBase@@XZ
?MakeCopy@CSound3D@NFMSound@@MBEPAVCObjectBase@@XZ
?Min@@YI?BMMM@Z
?NewSample@NFMSound@@YIPAVCSample2D@1@PAUFSOUND_SAMPLE@@PAV21@@Z
?NewSample@NFMSound@@YIPAVCSample3D@1@PAUFSOUND_SAMPLE@@PAV21@@Z
?Play3DSound@NFMSound@@YIPAVCSound3D@1@ABUSPlayParams@1@@Z
?PlaySound@NFMSound@@YIPAVCSound2D@1@PAVCSample2D@1@@Z
?PlayStream@CStream@NFMSound@@QAEXPBD_N@Z
?PlayStream@NFMSound@@YIPAVCStream@1@PBD_N@Z
?Release@SRef@CObjectBase@@QAEXPAV2@@Z
?Release@SRefM@CObjectBase@@QAEXPAV2@@Z
?Release@SRefO@CObjectBase@@QAEXPAV2@@Z
?RotateHVector@SHMatrix@@QBEXPAVCVec4@@ABVCVec3@@@Z
?SearchDevices@NFMSound@@YI_NXZ
?SetFadeOut@CSound3D@NFMSound@@QAEX_N0H@Z
?SetMinMaxDistance@CSample3D@NFMSound@@QAEXMM@Z
?SetMusicMasterVolume@NFMSound@@YIXH@Z
?SetPosition@CSound3D@NFMSound@@UAEXABVCVec3@@@Z
?SetSFXMasterVolume@NFMSound@@YIXH@Z
?SetSpeakerType@NFMSound@@YIXW4ESpeakerType@1@@Z
?SetSwitchStream@CStream@NFMSound@@QAEXPAV12@@Z
?SetVolume@CStream@NFMSound@@QAEXH@Z
?Switch@CStream@NFMSound@@QAEXXZ
?SwitchStream@NFMSound@@YIPAVCStream@1@PAV21@PBD_N@Z
?SynchCallback@NFMSound@@YACPAUFSOUND_STREAM@@PAXHH@Z
?Update@CSound2D@NFMSound@@UAEXN@Z
?Update@CSound3D@NFMSound@@UAEXN@Z
?Update@CStream@NFMSound@@QAEXN@Z
?Update@NFMSound@@YIXABUSListener@1@@Z
?_M_allocate_block@?$_String_base@DV?$allocator@D@_STL@@@_STL@@QAEXI@Z
?_M_deallocate_block@?$_String_base@DV?$allocator@D@_STL@@@_STL@@QAEXXZ
?_M_incr@_List_iterator_base@_STL@@QAEXXZ
?_M_throw_length_error@?$_String_base@DV?$allocator@D@_STL@@@_STL@@QBEXXZ
?_Ret@?$_IsPOD@D@_STL@@SI?AU__true_type@2@XZ
?_Ret@?$_IsPOD@PAX@_STL@@SI?AU__true_type@2@XZ
?allocate@__new_alloc@_STL@@SAPAXI@Z
?cos@@YIMM@Z
?deallocate@__new_alloc@_STL@@SAXPAXI@Z
?drivers@NFMSound@@3V?$vector@USDriverInfo@NFMSound@@V?$allocator@USDriverInfo@NFMSound@@@_STL@@@_STL@@A DATA
?fabs2@@YIMABVCVec3@@@Z
?fabs@@YIMABVCVec3@@@Z
?hashChannel@NFMSound@@3V?$hash_map@HV?$CMObj@VCChannel@NFMSound@@@@U?$hash@H@_STL@@U?$equal_to@H@3@V?$allocator@U?$pair@$$CBHV?$CMObj@VCChannel@NFMSound@@@@@_STL@@@3@@_STL@@A DATA
?max_size@?$_String_base@DV?$allocator@D@_STL@@@_STL@@QBEIXZ
?sin@@YIMM@Z
?what@__Named_exception@_STL@@UBEPBDXZ
