EXPORTS
??0?$CVectorList@UCallInfo@@@@QAE@XZ
??0?$CVectorList@UClosure@@@@QAE@XZ
??0?$CVectorList@UHash@@@@QAE@XZ
??0?$CVectorList@UProto@@@@QAE@XZ
??0?$CVectorList@UUserData@@@@QAE@XZ
??0?$_String_base@DV?$allocator@D@_STL@@@_STL@@QAE@ABV?$allocator@D@1@@Z
??0?$pair@$$CBHP6IPAVCObjectBase@@XZ@_STL@@QAE@ABHABQ6IPAVCObjectBase@@XZ@Z
??0?$pair@$$CBHP6IPAVCObjectBase@@XZ@_STL@@QAE@ABU01@@Z
??0?$pair@$$CBHV?$basic_string@DU?$char_traits@D@std@@V?$allocator@D@_STL@@@_STL@@@_STL@@QAE@ABHABV?$basic_string@DU?$char_traits@D@std@@V?$allocator@D@_STL@@@1@@Z
??0?$pair@$$CBHV?$basic_string@DU?$char_traits@D@std@@V?$allocator@D@_STL@@@_STL@@@_STL@@QAE@ABU01@@Z
??0?$pair@$$CBUTObject@@U1@@_STL@@QAE@ABU01@@Z
??0?$pair@$$CBUTObject@@U1@@_STL@@QAE@ABUTObject@@0@Z
??0?$pair@$$CBUTString@@_N@_STL@@QAE@ABU01@@Z
??0?$pair@$$CBUTString@@_N@_STL@@QAE@ABU?$pair@UTString@@_N@1@@Z
??0?$pair@$$CBUTString@@_N@_STL@@QAE@ABUTString@@AB_N@Z
??0?$pair@$$CBV?$basic_string@DU?$char_traits@D@std@@V?$allocator@D@_STL@@@_STL@@H@_STL@@QAE@ABU01@@Z
??0?$pair@$$CBV?$basic_string@DU?$char_traits@D@std@@V?$allocator@D@_STL@@@_STL@@H@_STL@@QAE@ABV?$basic_string@DU?$char_traits@D@std@@V?$allocator@D@_STL@@@1@ABH@Z
??0?$pair@QBVtype_info@@H@_STL@@QAE@ABQBVtype_info@@ABH@Z
??0?$pair@QBVtype_info@@H@_STL@@QAE@ABU01@@Z
??0?$pair@U?$_Ht_iterator@U?$pair@$$CBUTString@@_N@_STL@@U?$_Nonconst_traits@U?$pair@$$CBUTString@@_N@_STL@@@2@UTString@@UTStringHash@@U?$_Select1st@U?$pair@$$CBUTString@@_N@_STL@@@2@U?$equal_to@UTString@@@2@V?$allocator@U?$pair@$$CBUTString@@_N@_STL@@@2@@_STL@@_N@_STL@@QAE@ABU?$_Ht_iterator@U?$pair@$$CBUTString@@_N@_STL@@U?$_Nonconst_traits@U?$pair@$$CBUTString@@_N@_STL@@@2@UTString@@UTStringHash@@U?$_Select1st@U?$pair@$$CBUTString@@_N@_STL@@@2@U?$equal_to@UTString@@@2@V?$allocator@U?$pair@$$CBUTString@@_N@_STL@@@2@@1@AB_N@Z
??0?$pair@UTString@@_N@_STL@@QAE@ABUTString@@AB_N@Z
??0AutoBlock@Script@@QAE@AAV1@@Z
??0CLuaThread@@QAE@XZ
??0CLuaThreadRegister0x70813170@@QAE@XZ
??0CObjectBase@@QAE@XZ
??0Closure@@QAE@XZ
??0Hash@@QAE@XZ
??0Object@Script@@QAE@PAV1@H@Z
??0Proto@@QAE@XZ
??0Ref@@QAE@XZ
??0SHolder@?$CVectorList@UCallInfo@@@@QAE@PAUCallInfo@@@Z
??0SHolder@?$CVectorList@UCallInfo@@@@QAE@XZ
??0SHolder@?$CVectorList@UClosure@@@@QAE@PAUClosure@@@Z
??0SHolder@?$CVectorList@UClosure@@@@QAE@XZ
??0SHolder@?$CVectorList@UHash@@@@QAE@PAUHash@@@Z
??0SHolder@?$CVectorList@UHash@@@@QAE@XZ
??0SHolder@?$CVectorList@UProto@@@@QAE@PAUProto@@@Z
??0SHolder@?$CVectorList@UProto@@@@QAE@XZ
??0SHolder@?$CVectorList@UUserData@@@@QAE@PAUUserData@@@Z
??0SHolder@?$CVectorList@UUserData@@@@QAE@XZ
??0SLUAError@@QAE@XZ
??0SLUAStackTrace@SLUAError@@QAE@ABU01@@Z
??0SLUAStackTrace@SLUAError@@QAE@XZ
??0SLuaEntryCount@@QAE@XZ
??0SLuaParams@@QAE@ABU0@@Z
??0SLuaParams@@QAE@XZ
??0Script@@QAE@PAUlua_State@@@Z
??0Script@@QAE@_NP6IHPAUlua_State@@@Z@Z
??0TM@@QAE@ABU0@@Z
??0TM@@QAE@XZ
??0TObject@@QAE@H@Z
??0TObject@@QAE@XZ
??0TString@@QAE@ABU0@@Z
??0TString@@QAE@PBD@Z
??0TString@@QAE@XZ
??0UserData@@QAE@XZ
??0lua_State@@QAE@XZ
??1?$CVectorList@UCallInfo@@@@QAE@XZ
??1?$CVectorList@UClosure@@@@QAE@XZ
??1?$CVectorList@UHash@@@@QAE@XZ
??1?$CVectorList@UProto@@@@QAE@XZ
??1?$CVectorList@UUserData@@@@QAE@XZ
??1?$_String_base@DV?$allocator@D@_STL@@@_STL@@QAE@XZ
??1?$pair@$$CBHV?$basic_string@DU?$char_traits@D@std@@V?$allocator@D@_STL@@@_STL@@@_STL@@QAE@XZ
??1?$pair@$$CBUTString@@_N@_STL@@QAE@XZ
??1?$pair@$$CBV?$basic_string@DU?$char_traits@D@std@@V?$allocator@D@_STL@@@_STL@@H@_STL@@QAE@XZ
??1?$pair@UTString@@_N@_STL@@QAE@XZ
??1AutoBlock@Script@@QAE@XZ
??1CLuaThread@@UAE@XZ
??1CObjectBase@@MAE@XZ
??1Closure@@QAE@XZ
??1Hash@@QAE@XZ
??1Proto@@QAE@XZ
??1SLUAError@@QAE@XZ
??1SLUAStackTrace@SLUAError@@QAE@XZ
??1SLuaEntryCount@@QAE@XZ
??1SLuaParams@@QAE@XZ
??1Script@@UAE@XZ
??1TM@@QAE@XZ
??1TString@@QAE@XZ
??1UserData@@QAE@XZ
??1lua_State@@QAE@XZ
??2@YAPAXIPAX@Z
??3@YAXPAX0@Z
??4SLUAStackTrace@SLUAError@@QAEAAU01@ABU01@@Z
??4SLuaParams@@QAEAAU0@ABU0@@Z
??4TM@@QAEAAU0@ABU0@@Z
??4TString@@QAEAAU0@ABU0@@Z
??6CLogStream@@QAEAAV0@ABV?$basic_string@DU?$char_traits@D@std@@V?$allocator@D@_STL@@@_STL@@@Z
??8TObject@@QBE_NABU0@@Z
??8TString@@QBE_NABU0@@Z
??A?$CVectorList@UCallInfo@@@@QAEPAUCallInfo@@H@Z
??A?$CVectorList@UClosure@@@@QAEPAUClosure@@H@Z
??A?$CVectorList@UHash@@@@QAEPAUHash@@H@Z
??A?$CVectorList@UProto@@@@QAEPAUProto@@H@Z
??A?$CVectorList@UUserData@@@@QAEPAUUserData@@H@Z
??I?$CVectorList@UCallInfo@@@@QAEHAAVCStructureSaver@@@Z
??I?$CVectorList@UClosure@@@@QAEHAAVCStructureSaver@@@Z
??I?$CVectorList@UHash@@@@QAEHAAVCStructureSaver@@@Z
??I?$CVectorList@UProto@@@@QAEHAAVCStructureSaver@@@Z
??I?$CVectorList@UUserData@@@@QAEHAAVCStructureSaver@@@Z
??ICLuaThread@@UAEHAAVCStructureSaver@@@Z
??ICObjectBase@@UAEHAAVCStructureSaver@@@Z
??IClosure@@QAEHAAVCStructureSaver@@@Z
??IHash@@QAEHAAVCStructureSaver@@@Z
??ILocVar@@QAEHAAVCStructureSaver@@@Z
??IProto@@QAEHAAVCStructureSaver@@@Z
??IRef@@QAEHAAVCStructureSaver@@@Z
??ISHolder@?$CVectorList@UCallInfo@@@@QAEHAAVCStructureSaver@@@Z
??ISHolder@?$CVectorList@UClosure@@@@QAEHAAVCStructureSaver@@@Z
??ISHolder@?$CVectorList@UHash@@@@QAEHAAVCStructureSaver@@@Z
??ISHolder@?$CVectorList@UProto@@@@QAEHAAVCStructureSaver@@@Z
??ISHolder@?$CVectorList@UUserData@@@@QAEHAAVCStructureSaver@@@Z
??ISLuaVMState@@QAEHAAVCStructureSaver@@@Z
??IScript@@QAEHAAVCStructureSaver@@@Z
??ITM@@QAEHAAVCStructureSaver@@@Z
??ITObject@@QAEHAAVCStructureSaver@@@Z
??ITString@@QAEHAAVCStructureSaver@@@Z
??IUserData@@QAEHAAVCStructureSaver@@@Z
??Ilua_State@@QAEHAAVCStructureSaver@@@Z
??R?$_Select1st@U?$pair@$$CBHP6IPAVCObjectBase@@XZ@_STL@@@_STL@@QBEABHABU?$pair@$$CBHP6IPAVCObjectBase@@XZ@1@@Z
??R?$_Select1st@U?$pair@$$CBHV?$basic_string@DU?$char_traits@D@std@@V?$allocator@D@_STL@@@_STL@@@_STL@@@_STL@@QBEABHABU?$pair@$$CBHV?$basic_string@DU?$char_traits@D@std@@V?$allocator@D@_STL@@@_STL@@@1@@Z
??R?$_Select1st@U?$pair@$$CBUTObject@@U1@@_STL@@@_STL@@QBEABUTObject@@ABU?$pair@$$CBUTObject@@U1@@1@@Z
??R?$_Select1st@U?$pair@$$CBUTString@@_N@_STL@@@_STL@@QBEABUTString@@ABU?$pair@$$CBUTString@@_N@1@@Z
??R?$_Select1st@U?$pair@$$CBV?$basic_string@DU?$char_traits@D@std@@V?$allocator@D@_STL@@@_STL@@H@_STL@@@_STL@@QBEABV?$basic_string@DU?$char_traits@D@std@@V?$allocator@D@_STL@@@1@ABU?$pair@$$CBV?$basic_string@DU?$char_traits@D@std@@V?$allocator@D@_STL@@@_STL@@H@1@@Z
??R?$_Select1st@U?$pair@QBVtype_info@@H@_STL@@@_STL@@QBEABQBVtype_info@@ABU?$pair@QBVtype_info@@H@1@@Z
??R?$equal_to@H@_STL@@QBE_NABH0@Z
??R?$equal_to@PBVtype_info@@@_STL@@QBE_NABQBVtype_info@@0@Z
??R?$equal_to@UTObject@@@_STL@@QBE_NABUTObject@@0@Z
??R?$equal_to@UTString@@@_STL@@QBE_NABUTString@@0@Z
??R?$equal_to@V?$basic_string@DU?$char_traits@D@std@@V?$allocator@D@_STL@@@_STL@@@_STL@@QBE_NABV?$basic_string@DU?$char_traits@D@std@@V?$allocator@D@_STL@@@1@0@Z
??R?$hash@H@_STL@@QBEIH@Z
??R?$hash@V?$basic_string@DU?$char_traits@D@std@@V?$allocator@D@_STL@@@_STL@@@_STL@@QBEIABV?$basic_string@DU?$char_traits@D@std@@V?$allocator@D@_STL@@@1@@Z
??R?$less@I@_STL@@QBE_NABI0@Z
??RObjectHash@@QBEHABUTObject@@@Z
??RSDefaultPtrHash@@QBEHPBX@Z
??RTStringHash@@QBEHABUTString@@@Z
??_G?$CObj@VCLuaThread@@@@QAEPAXI@Z
??_G?$pair@$$CBHV?$basic_string@DU?$char_traits@D@std@@V?$allocator@D@_STL@@@_STL@@@_STL@@QAEPAXI@Z
??_G?$pair@$$CBUTString@@_N@_STL@@QAEPAXI@Z
??_G?$pair@$$CBV?$basic_string@DU?$char_traits@D@std@@V?$allocator@D@_STL@@@_STL@@H@_STL@@QAEPAXI@Z
??_GCLuaThread@@UAEPAXI@Z
??_GCObjectBase@@MAEPAXI@Z
??_GClosure@@QAEPAXI@Z
??_GHash@@QAEPAXI@Z
??_GProto@@QAEPAXI@Z
??_GSLUAStackTrace@SLUAError@@QAEPAXI@Z
??_GSLuaParams@@QAEPAXI@Z
??_GScript@@UAEPAXI@Z
??_GTM@@QAEPAXI@Z
??_GTString@@QAEPAXI@Z
??_GUserData@@QAEPAXI@Z
??_Glua_State@@QAEPAXI@Z
?Add@CStructureSaver@@QAEXDPADH@Z
?Add@CStructureSaver@@QAEXDPAFH@Z
?Add@CStructureSaver@@QAEXDPAHH@Z
?Add@CStructureSaver@@QAEXDPAKH@Z
?Add@CStructureSaver@@QAEXDPANH@Z
?Add@CStructureSaver@@QAEXDPAUCallInfo@@H@Z
?Add@CStructureSaver@@QAEXDPAUClosure@@H@Z
?Add@CStructureSaver@@QAEXDPAUHash@@H@Z
?Add@CStructureSaver@@QAEXDPAULocVar@@H@Z
?Add@CStructureSaver@@QAEXDPAUProto@@H@Z
?Add@CStructureSaver@@QAEXDPAURef@@H@Z
?Add@CStructureSaver@@QAEXDPAUSHolder@?$CVectorList@UCallInfo@@@@H@Z
?Add@CStructureSaver@@QAEXDPAUSHolder@?$CVectorList@UClosure@@@@H@Z
?Add@CStructureSaver@@QAEXDPAUSHolder@?$CVectorList@UHash@@@@H@Z
?Add@CStructureSaver@@QAEXDPAUSHolder@?$CVectorList@UProto@@@@H@Z
?Add@CStructureSaver@@QAEXDPAUSHolder@?$CVectorList@UUserData@@@@H@Z
?Add@CStructureSaver@@QAEXDPAUTM@@H@Z
?Add@CStructureSaver@@QAEXDPAUTMinfo@@H@Z
?Add@CStructureSaver@@QAEXDPAUTObject@@H@Z
?Add@CStructureSaver@@QAEXDPAUTString@@H@Z
?Add@CStructureSaver@@QAEXDPAUUserData@@H@Z
?Add@CStructureSaver@@QAEXDPAUlua_State@@H@Z
?Add@CStructureSaver@@QAEXDPAV?$CObj@VCLuaThread@@@@H@Z
?Add@CStructureSaver@@QAEXDPAV?$CObj@VCObjectBase@@@@H@Z
?Add@CStructureSaver@@QAEXDPAV?$CPtr@VCObjectBase@@@@H@Z
?Add@CStructureSaver@@QAEXDPAV?$CVectorList@UCallInfo@@@@H@Z
?Add@CStructureSaver@@QAEXDPAV?$CVectorList@UClosure@@@@H@Z
?Add@CStructureSaver@@QAEXDPAV?$CVectorList@UHash@@@@H@Z
?Add@CStructureSaver@@QAEXDPAV?$CVectorList@UProto@@@@H@Z
?Add@CStructureSaver@@QAEXDPAV?$CVectorList@UUserData@@@@H@Z
?Add@CStructureSaver@@QAEXDPAV?$basic_string@DU?$char_traits@D@std@@V?$allocator@D@_STL@@@_STL@@H@Z
?Add@CStructureSaver@@QAEXDPAV?$hash_map@UTObject@@U1@UObjectHash@@U?$equal_to@UTObject@@@_STL@@V?$allocator@U?$pair@$$CBUTObject@@U1@@_STL@@@4@@_STL@@H@Z
?Add@CStructureSaver@@QAEXDPAV?$hash_map@UTString@@_NUTStringHash@@U?$equal_to@UTString@@@_STL@@V?$allocator@U?$pair@$$CBUTString@@_N@_STL@@@4@@_STL@@H@Z
?Add@CStructureSaver@@QAEXDPAV?$list@HV?$allocator@H@_STL@@@_STL@@H@Z
?Add@CStructureSaver@@QAEXDPAV?$list@V?$CObj@VCLuaThread@@@@V?$allocator@V?$CObj@VCLuaThread@@@@@_STL@@@_STL@@H@Z
?Add@CStructureSaver@@QAEXDPAV?$vector@DV?$allocator@D@_STL@@@_STL@@H@Z
?Add@CStructureSaver@@QAEXDPAV?$vector@HV?$allocator@H@_STL@@@_STL@@H@Z
?Add@CStructureSaver@@QAEXDPAV?$vector@KV?$allocator@K@_STL@@@_STL@@H@Z
?Add@CStructureSaver@@QAEXDPAV?$vector@NV?$allocator@N@_STL@@@_STL@@H@Z
?Add@CStructureSaver@@QAEXDPAV?$vector@ULocVar@@V?$allocator@ULocVar@@@_STL@@@_STL@@H@Z
?Add@CStructureSaver@@QAEXDPAV?$vector@URef@@V?$allocator@URef@@@_STL@@@_STL@@H@Z
?Add@CStructureSaver@@QAEXDPAV?$vector@UTM@@V?$allocator@UTM@@@_STL@@@_STL@@H@Z
?Add@CStructureSaver@@QAEXDPAV?$vector@UTObject@@V?$allocator@UTObject@@@_STL@@@_STL@@H@Z
?Add@CStructureSaver@@QAEXDPA_NH@Z
?AddInternal@CStructureSaver@@AAAXDHPADZZ
?AddInternal@CStructureSaver@@AAAXDHPAFZZ
?AddInternal@CStructureSaver@@AAAXDHPAHZZ
?AddInternal@CStructureSaver@@AAAXDHPAKZZ
?AddInternal@CStructureSaver@@AAAXDHPANZZ
?AddInternal@CStructureSaver@@AAAXDHPAUCallInfo@@ZZ
?AddInternal@CStructureSaver@@AAAXDHPAUClosure@@ZZ
?AddInternal@CStructureSaver@@AAAXDHPAUHash@@ZZ
?AddInternal@CStructureSaver@@AAAXDHPAULocVar@@ZZ
?AddInternal@CStructureSaver@@AAAXDHPAUProto@@ZZ
?AddInternal@CStructureSaver@@AAAXDHPAURef@@ZZ
?AddInternal@CStructureSaver@@AAAXDHPAUSHolder@?$CVectorList@UCallInfo@@@@ZZ
?AddInternal@CStructureSaver@@AAAXDHPAUSHolder@?$CVectorList@UClosure@@@@ZZ
?AddInternal@CStructureSaver@@AAAXDHPAUSHolder@?$CVectorList@UHash@@@@ZZ
?AddInternal@CStructureSaver@@AAAXDHPAUSHolder@?$CVectorList@UProto@@@@ZZ
?AddInternal@CStructureSaver@@AAAXDHPAUSHolder@?$CVectorList@UUserData@@@@ZZ
?AddInternal@CStructureSaver@@AAAXDHPAUSLuaVMState@@ZZ
?AddInternal@CStructureSaver@@AAAXDHPAUTM@@ZZ
?AddInternal@CStructureSaver@@AAAXDHPAUTMinfo@@ZZ
?AddInternal@CStructureSaver@@AAAXDHPAUTObject@@ZZ
?AddInternal@CStructureSaver@@AAAXDHPAUTString@@ZZ
?AddInternal@CStructureSaver@@AAAXDHPAUUserData@@ZZ
?AddInternal@CStructureSaver@@AAAXDHPAUlua_State@@ZZ
?AddInternal@CStructureSaver@@AAAXDHPAV?$CObj@VCLuaThread@@@@ZZ
?AddInternal@CStructureSaver@@AAAXDHPAV?$CObj@VCObjectBase@@@@ZZ
?AddInternal@CStructureSaver@@AAAXDHPAV?$CPtr@VCObjectBase@@@@ZZ
?AddInternal@CStructureSaver@@AAAXDHPAV?$CVectorList@UCallInfo@@@@ZZ
?AddInternal@CStructureSaver@@AAAXDHPAV?$CVectorList@UClosure@@@@ZZ
?AddInternal@CStructureSaver@@AAAXDHPAV?$CVectorList@UHash@@@@ZZ
?AddInternal@CStructureSaver@@AAAXDHPAV?$CVectorList@UProto@@@@ZZ
?AddInternal@CStructureSaver@@AAAXDHPAV?$CVectorList@UUserData@@@@ZZ
?AddInternal@CStructureSaver@@AAAXDHPAV?$basic_string@DU?$char_traits@D@std@@V?$allocator@D@_STL@@@_STL@@0@Z
?AddInternal@CStructureSaver@@AAAXDHPAV?$hash_map@UTObject@@U1@UObjectHash@@U?$equal_to@UTObject@@@_STL@@V?$allocator@U?$pair@$$CBUTObject@@U1@@_STL@@@4@@_STL@@0@Z
?AddInternal@CStructureSaver@@AAAXDHPAV?$hash_map@UTString@@_NUTStringHash@@U?$equal_to@UTString@@@_STL@@V?$allocator@U?$pair@$$CBUTString@@_N@_STL@@@4@@_STL@@0@Z
?AddInternal@CStructureSaver@@AAAXDHPAV?$list@HV?$allocator@H@_STL@@@_STL@@0@Z
?AddInternal@CStructureSaver@@AAAXDHPAV?$list@V?$CObj@VCLuaThread@@@@V?$allocator@V?$CObj@VCLuaThread@@@@@_STL@@@_STL@@0@Z
?AddInternal@CStructureSaver@@AAAXDHPAV?$vector@DV?$allocator@D@_STL@@@_STL@@0@Z
?AddInternal@CStructureSaver@@AAAXDHPAV?$vector@HV?$allocator@H@_STL@@@_STL@@0@Z
?AddInternal@CStructureSaver@@AAAXDHPAV?$vector@KV?$allocator@K@_STL@@@_STL@@0@Z
?AddInternal@CStructureSaver@@AAAXDHPAV?$vector@NV?$allocator@N@_STL@@@_STL@@0@Z
?AddInternal@CStructureSaver@@AAAXDHPAV?$vector@ULocVar@@V?$allocator@ULocVar@@@_STL@@@_STL@@0@Z
?AddInternal@CStructureSaver@@AAAXDHPAV?$vector@URef@@V?$allocator@URef@@@_STL@@@_STL@@0@Z
?AddInternal@CStructureSaver@@AAAXDHPAV?$vector@UTM@@V?$allocator@UTM@@@_STL@@@_STL@@0@Z
?AddInternal@CStructureSaver@@AAAXDHPAV?$vector@UTObject@@V?$allocator@UTObject@@@_STL@@@_STL@@0@Z
?AddInternal@CStructureSaver@@AAAXDHPA_NZZ
?AddObj@CObjectBase@@AAEXH@Z
?AddRef@CObjectBase@@AAEXXZ
?AddRef@SRef@CObjectBase@@QAEXPAV2@@Z
?AddRef@SRefO@CObjectBase@@QAEXPAV2@@Z
?CallObjectSerialize@CStructureSaver@@AAAXDHPADPAU?$SGenericNumberTemplate@$00@@@Z
?CallObjectSerialize@CStructureSaver@@AAAXDHPAFPAU?$SGenericNumberTemplate@$00@@@Z
?CallObjectSerialize@CStructureSaver@@AAAXDHPAHPAU?$SGenericNumberTemplate@$00@@@Z
?CallObjectSerialize@CStructureSaver@@AAAXDHPAKPAU?$SGenericNumberTemplate@$00@@@Z
?CallObjectSerialize@CStructureSaver@@AAAXDHPANPAU?$SGenericNumberTemplate@$00@@@Z
?CallObjectSerialize@CStructureSaver@@AAAXDHPAUCallInfo@@PAU?$SGenericNumberTemplate@$00@@@Z
?CallObjectSerialize@CStructureSaver@@AAAXDHPAUClosure@@ZZ
?CallObjectSerialize@CStructureSaver@@AAAXDHPAUHash@@ZZ
?CallObjectSerialize@CStructureSaver@@AAAXDHPAULocVar@@ZZ
?CallObjectSerialize@CStructureSaver@@AAAXDHPAUProto@@ZZ
?CallObjectSerialize@CStructureSaver@@AAAXDHPAURef@@ZZ
?CallObjectSerialize@CStructureSaver@@AAAXDHPAUSHolder@?$CVectorList@UCallInfo@@@@ZZ
?CallObjectSerialize@CStructureSaver@@AAAXDHPAUSHolder@?$CVectorList@UClosure@@@@ZZ
?CallObjectSerialize@CStructureSaver@@AAAXDHPAUSHolder@?$CVectorList@UHash@@@@ZZ
?CallObjectSerialize@CStructureSaver@@AAAXDHPAUSHolder@?$CVectorList@UProto@@@@ZZ
?CallObjectSerialize@CStructureSaver@@AAAXDHPAUSHolder@?$CVectorList@UUserData@@@@ZZ
?CallObjectSerialize@CStructureSaver@@AAAXDHPAUSLuaVMState@@ZZ
?CallObjectSerialize@CStructureSaver@@AAAXDHPAUTM@@ZZ
?CallObjectSerialize@CStructureSaver@@AAAXDHPAUTMinfo@@PAU?$SGenericNumberTemplate@$00@@@Z
?CallObjectSerialize@CStructureSaver@@AAAXDHPAUTObject@@ZZ
?CallObjectSerialize@CStructureSaver@@AAAXDHPAUTString@@ZZ
?CallObjectSerialize@CStructureSaver@@AAAXDHPAUUserData@@ZZ
?CallObjectSerialize@CStructureSaver@@AAAXDHPAUlua_State@@ZZ
?CallObjectSerialize@CStructureSaver@@AAAXDHPAV?$CObj@VCLuaThread@@@@ZZ
?CallObjectSerialize@CStructureSaver@@AAAXDHPAV?$CObj@VCObjectBase@@@@ZZ
?CallObjectSerialize@CStructureSaver@@AAAXDHPAV?$CPtr@VCObjectBase@@@@ZZ
?CallObjectSerialize@CStructureSaver@@AAAXDHPAV?$CVectorList@UCallInfo@@@@ZZ
?CallObjectSerialize@CStructureSaver@@AAAXDHPAV?$CVectorList@UClosure@@@@ZZ
?CallObjectSerialize@CStructureSaver@@AAAXDHPAV?$CVectorList@UHash@@@@ZZ
?CallObjectSerialize@CStructureSaver@@AAAXDHPAV?$CVectorList@UProto@@@@ZZ
?CallObjectSerialize@CStructureSaver@@AAAXDHPAV?$CVectorList@UUserData@@@@ZZ
?CallObjectSerialize@CStructureSaver@@AAAXDHPA_NPAU?$SGenericNumberTemplate@$00@@@Z
?CastToObjectBase@@YIPAVCObjectBase@@PAV1@@Z
?CastToObjectBase@@YIPAVCObjectBase@@PAVCLuaThread@@@Z
?CastToObjectBaseImpl@@YIPAVCObjectBase@@PAV1@0@Z
?CastToObjectBaseImpl@@YIPAVCObjectBase@@PAVCLuaThread@@PAV1@@Z
?CastToObjectBaseImpl@@YIPAVCObjectBase@@PAVCLuaThread@@PAX@Z
?CastToUserObject@@YIPAVCLuaThread@@PAVCObjectBase@@PAV1@@Z
?CastToUserObject@@YIPAVCObjectBase@@PAV1@0@Z
?CastToUserObjectImpl@@YIPAVCLuaThread@@PAVCObjectBase@@PAV1@0@Z
?CastToUserObjectImpl@@YIPAVCLuaThread@@PAVCObjectBase@@PAV1@PAX@Z
?CastToUserObjectImpl@@YIPAVCObjectBase@@PAV1@00@Z
?CheckArgs@Script@@QAE_NPBDV?$basic_string@DU?$char_traits@D@std@@V?$allocator@D@_STL@@@_STL@@PAV?$vector@USLuaParams@@V?$allocator@USLuaParams@@@_STL@@@3@@Z
?Collect@@YIXPAV?$CVectorList@UProto@@@@PAUlua_State@@@Z
?CollectMarkList@@YIXPAV?$CVectorList@UClosure@@@@PAUlua_State@@@Z
?CollectMarkList@@YIXPAV?$CVectorList@UHash@@@@PAUlua_State@@@Z
?ConfigGetInteger@Script@@QAEHPBD0H@Z
?ConfigGetReal@Script@@QAEMPBD0N@Z
?ConfigGetString@Script@@QAEPBDPBD00@Z
?ConfigSetInteger@Script@@QAEXPBD0H@Z
?ConfigSetReal@Script@@QAEXPBD0N@Z
?ConfigSetString@Script@@QAEXPBD00@Z
?CreateTable@Object@Script@@QAE?AV12@PBD@Z
?DestroyContents@CLuaThread@@MAEXXZ
?DoDataVector@CStructureSaver@@AAEXAAV?$vector@DV?$allocator@D@_STL@@@_STL@@@Z
?DoDataVector@CStructureSaver@@AAEXAAV?$vector@HV?$allocator@H@_STL@@@_STL@@@Z
?DoDataVector@CStructureSaver@@AAEXAAV?$vector@KV?$allocator@K@_STL@@@_STL@@@Z
?DoDataVector@CStructureSaver@@AAEXAAV?$vector@NV?$allocator@N@_STL@@@_STL@@@Z
?DoDataVector@CStructureSaver@@AAEXAAV?$vector@ULocVar@@V?$allocator@ULocVar@@@_STL@@@_STL@@@Z
?DoDataVector@CStructureSaver@@AAEXAAV?$vector@URef@@V?$allocator@URef@@@_STL@@@_STL@@@Z
?DoDataVector@CStructureSaver@@AAEXAAV?$vector@UTM@@V?$allocator@UTM@@@_STL@@@_STL@@@Z
?DoDataVector@CStructureSaver@@AAEXAAV?$vector@UTObject@@V?$allocator@UTObject@@@_STL@@@_STL@@@Z
?DoHashMap@CStructureSaver@@AAEXAAV?$hash_map@UTObject@@U1@UObjectHash@@U?$equal_to@UTObject@@@_STL@@V?$allocator@U?$pair@$$CBUTObject@@U1@@_STL@@@4@@_STL@@@Z
?DoHashMap@CStructureSaver@@AAEXAAV?$hash_map@UTString@@_NUTStringHash@@U?$equal_to@UTString@@@_STL@@V?$allocator@U?$pair@$$CBUTString@@_N@_STL@@@4@@_STL@@@Z
?DoPtr@CStructureSaver@@QAEXPAV?$CPtrBase@VCLuaThread@@USRefO@CObjectBase@@@@@Z
?DoPtr@CStructureSaver@@QAEXPAV?$CPtrBase@VCObjectBase@@USRef@1@@@@Z
?DoPtr@CStructureSaver@@QAEXPAV?$CPtrBase@VCObjectBase@@USRefO@1@@@@Z
?DoVector@CStructureSaver@@AAEXAAV?$vector@DV?$allocator@D@_STL@@@_STL@@@Z
?DoVector@CStructureSaver@@AAEXAAV?$vector@HV?$allocator@H@_STL@@@_STL@@@Z
?DoVector@CStructureSaver@@AAEXAAV?$vector@KV?$allocator@K@_STL@@@_STL@@@Z
?DoVector@CStructureSaver@@AAEXAAV?$vector@NV?$allocator@N@_STL@@@_STL@@@Z
?DoVector@CStructureSaver@@AAEXAAV?$vector@ULocVar@@V?$allocator@ULocVar@@@_STL@@@_STL@@@Z
?DoVector@CStructureSaver@@AAEXAAV?$vector@URef@@V?$allocator@URef@@@_STL@@@_STL@@@Z
?DoVector@CStructureSaver@@AAEXAAV?$vector@USLuaVMState@@V?$allocator@USLuaVMState@@@_STL@@@_STL@@@Z
?DoVector@CStructureSaver@@AAEXAAV?$vector@UTM@@V?$allocator@UTM@@@_STL@@@_STL@@@Z
?DoVector@CStructureSaver@@AAEXAAV?$vector@UTObject@@V?$allocator@UTObject@@@_STL@@@_STL@@@Z
?Error@Script@@QAEXPBD@Z
?ErrorToString@@YIPBDH@Z
?GetByName@Object@Script@@QAE?AV12@PBD@Z
?GetByTableIndex@Object@Script@@QAE?AV12@H@Z
?GetCI@TObject@@QBEHXZ
?GetCL@TObject@@QBEHXZ
?GetCallInfo@lua_State@@QAEPAUCallInfo@@H@Z
?GetClosure@lua_State@@QAEPAUClosure@@H@Z
?GetGlobal@Script@@QAE?AVObject@1@PBD@Z
?GetGlobals@Script@@QAE?AVObject@1@XZ
?GetH@TObject@@QBEHXZ
?GetHash@lua_State@@QAEPAUHash@@H@Z
?GetMaxIntKey@Hash@@QBENXZ
?GetN@TObject@@QBENXZ
?GetNum@Hash@@QBEPBUTObject@@N@Z
?GetNumber@Object@Script@@QBENXZ
?GetObj@Hash@@QBEPBUTObject@@PBU2@@Z
?GetObjectA@Script@@QAE?AVObject@1@H@Z
?GetObjectAsText@Script@@QAE?AV?$basic_string@DU?$char_traits@D@std@@V?$allocator@D@_STL@@@_STL@@PBD@Z
?GetObjectAsText@Script@@QAE?AV?$basic_string@DU?$char_traits@D@std@@V?$allocator@D@_STL@@@_STL@@PBDVObject@1@I@Z
?GetS@TObject@@QBEPAUTString@@XZ
?GetState@Object@Script@@QBEPAUlua_State@@XZ
?GetStateAsText@Script@@QAE?AV?$basic_string@DU?$char_traits@D@std@@V?$allocator@D@_STL@@@_STL@@XZ
?GetStr@Hash@@QBEPBUTObject@@PAUTString@@@Z
?GetStr@TString@@QBEABV?$basic_string@DU?$char_traits@D@std@@V?$allocator@D@_STL@@@_STL@@XZ
?GetString@Object@Script@@QBEPBDXZ
?GetTop@Script@@QBEHXZ
?GetType@TObject@@QBEHXZ
?GetUData@TObject@@QBEHXZ
?GetUData@lua_State@@QAEPAUUserData@@H@Z
?GetUserData@Object@Script@@QBEPAVCObjectBase@@XZ
?IsFunction@Object@Script@@QBE_NXZ
?IsFunction@Script@@QBE_NH@Z
?IsNil@Object@Script@@QBE_NXZ
?IsNil@Script@@QBE_NH@Z
?IsNumber@Object@Script@@QBE_NXZ
?IsReading@CStructureSaver@@QAE_NXZ
?IsRefInvalid@CObjectBase@@QBEHXZ
?IsString@Object@Script@@QBE_NXZ
?IsString@Script@@QBE_NH@Z
?IsTable@Object@Script@@QBE_NXZ
?IsTable@Script@@QBE_NH@Z
?IsUserData@Object@Script@@QBE_NXZ
?IsUserData@Script@@QBE_NH@Z
?IsValidTag@@YI_NPAUlua_State@@H@Z
?LObj@@YIPAUTObject@@PAUlua_State@@H@Z
?LuaCFuncSleep@@YIHPAUlua_State@@@Z
?LuaCFuncStartThread@@YIHPAUlua_State@@@Z
?MakeCopy@CObjectBase@@MBEPAV1@XZ
?NewCLuaThread@CLuaThread@@SIPAVCObjectBase@@XZ
?NewTag@Script@@QAEHXZ
?Next@Object@Script@@QAEHXZ
?NextNode@Hash@@QBEXPBUTObject@@PAUNode@1@@Z
?Pop@Script@@QAEXH@Z
?PushCFunction@Script@@QAEXP6IHPAUlua_State@@@Z@Z
?PushNil@Script@@QAEXXZ
?Register@Script@@QAEXPBDP6IHPAUlua_State@@@Z@Z
?Register@Script@@QAEXPBUSRegFunction@1@@Z
?RegisterNewTag@Script@@QAEHPBUSRegFunction@1@@Z
?RegisterTypeBase@?$CClassFactory@VCObjectBase@@@@AAEXHP6IPAVCObjectBase@@XZPBVtype_info@@@Z
?Release@SRef@CObjectBase@@QAEXPAV2@@Z
?Release@SRefO@CObjectBase@@QAEXPAV2@@Z
?SetCI@TObject@@QAEXH@Z
?SetCL@TObject@@QAEXH@Z
?SetH@TObject@@QAEXH@Z
?SetInt@Hash@@QAEPAUTObject@@H@Z
?SetN@TObject@@QAEXN@Z
?SetNil@TObject@@QAEXXZ
?SetNumber@Object@Script@@QAEXPBDN@Z
?SetObj@Hash@@QAEPAUTObject@@PBU2@@Z
?SetS@TObject@@QAEXPAUTString@@@Z
?SetStr@Hash@@QAEPAUTObject@@PAUTString@@@Z
?SetString@Object@Script@@QAEXPBD0@Z
?SetTagMethod@Script@@QAEXHPBD@Z
?SetTop@Script@@QAEXH@Z
?SetUData@TObject@@QAEXH@Z
?Tag@Object@Script@@QBEHXZ
?_M_allocate_block@?$_String_base@DV?$allocator@D@_STL@@@_STL@@QAEXI@Z
?_M_deallocate_block@?$_String_base@DV?$allocator@D@_STL@@@_STL@@QAEXXZ
?_M_incr@_List_iterator_base@_STL@@QAEXXZ
?_M_throw_length_error@?$_String_base@DV?$allocator@D@_STL@@@_STL@@QBEXXZ
?_Ret@?$_IsPOD@D@_STL@@SI?AU__true_type@2@XZ
?_Ret@?$_IsPOD@PAX@_STL@@SI?AU__true_type@2@XZ
?_Ret@?$_IsPOD@UTObject@@@_STL@@SI?AU__false_type@2@XZ
?allocate@__new_alloc@_STL@@SAPAXI@Z
?c_str@TString@@QBEPBDXZ
?clear@?$CVectorList@UCallInfo@@@@QAEXXZ
?clear@?$CVectorList@UClosure@@@@QAEXXZ
?clear@?$CVectorList@UHash@@@@QAEXXZ
?clear@?$CVectorList@UProto@@@@QAEXXZ
?clear@?$CVectorList@UUserData@@@@QAEXXZ
?deallocate@__new_alloc@_STL@@SAXPAXI@Z
?empty@TString@@QBE_NXZ
?endl@@YIAAVCLogStream@@AAV1@@Z
?erase@?$CVectorList@UCallInfo@@@@QAEXH@Z
?erase@?$CVectorList@UClosure@@@@QAEXH@Z
?erase@?$CVectorList@UHash@@@@QAEXH@Z
?erase@?$CVectorList@UProto@@@@QAEXH@Z
?erase@?$CVectorList@UUserData@@@@QAEXH@Z
?iscfunction@@YI_NPAUlua_State@@PAUTObject@@@Z
?luaA_index@@YIHPAUlua_State@@H@Z
?luaA_indexAcceptable@@YIHPAUlua_State@@H@Z
?luaA_pushobject@@YIXPAUlua_State@@PBUTObject@@@Z
?luaC_checkGC@@YIXPAUlua_State@@@Z
?luaC_collect@@YIXPAUlua_State@@H@Z
?luaD_adjusttop@@YIXPAUlua_State@@HH@Z
?luaD_breakrun@@YIXPAUlua_State@@H@Z
?luaD_call@@YIXPAUlua_State@@HH@Z
?luaD_callTM@@YIXPAUlua_State@@HHH@Z
?luaD_checkstack@@YIXPAUlua_State@@H@Z
?luaD_endCall@@YIXPAUlua_State@@HHH@Z
?luaD_lineHook@@YIXPAUlua_State@@HHP6IX0PAUlua_Debug@@@Z@Z
?luaD_startCall@@YI_NPAUlua_State@@HH@Z
?luaF_getlocalname@@YIPBDPBUProto@@HH@Z
?luaF_newclosure@@YIHPAUlua_State@@H@Z
?luaF_newproto@@YIHPAUlua_State@@@Z
?luaFuncToIDMap@@3V?$hash_map@HV?$basic_string@DU?$char_traits@D@std@@V?$allocator@D@_STL@@@_STL@@U?$hash@H@2@U?$equal_to@H@2@V?$allocator@U?$pair@$$CBHV?$basic_string@DU?$char_traits@D@std@@V?$allocator@D@_STL@@@_STL@@@_STL@@@2@@_STL@@A DATA
?luaG_binerror@@YIXPAUlua_State@@PAUTObject@@HPBD@Z
?luaG_getline@@YIHABV?$vector@HV?$allocator@H@_STL@@@_STL@@HHPAH@Z
?luaG_ordererror@@YIXPAUlua_State@@PAUTObject@@@Z
?luaG_typeerror@@YIXPAUlua_State@@PAUTObject@@PBD@Z
?luaGetPtr@NScript@@YIPAVCObjectBase@@ABVObject@Script@@@Z
?luaH_getglobal@@YIPBUTObject@@PAUlua_State@@PBD@Z
?luaH_new@@YIHPAUlua_State@@H@Z
?luaIDToFuncMap@@3V?$hash_map@V?$basic_string@DU?$char_traits@D@std@@V?$allocator@D@_STL@@@_STL@@HU?$hash@V?$basic_string@DU?$char_traits@D@std@@V?$allocator@D@_STL@@@_STL@@@2@U?$equal_to@V?$basic_string@DU?$char_traits@D@std@@V?$allocator@D@_STL@@@_STL@@@2@V?$allocator@U?$pair@$$CBV?$basic_string@DU?$char_traits@D@std@@V?$allocator@D@_STL@@@_STL@@H@_STL@@@2@@_STL@@A DATA
?luaK_adjuststack@@YIXPAUFuncState@@H@Z
?luaK_code0@@YIHPAUFuncState@@W4OpCode@@@Z
?luaK_code1@@YIHPAUFuncState@@W4OpCode@@H@Z
?luaK_code2@@YIHPAUFuncState@@W4OpCode@@HH@Z
?luaK_concat@@YIXPAUFuncState@@PAHH@Z
?luaK_deltastack@@YIXPAUFuncState@@H@Z
?luaK_error@@YIXPAULexState@@PBD@Z
?luaK_getlabel@@YIHPAUFuncState@@@Z
?luaK_goiftrue@@YIXPAUFuncState@@PAUexpdesc@@H@Z
?luaK_infix@@YIXPAULexState@@W4BinOpr@@PAUexpdesc@@@Z
?luaK_jump@@YIHPAUFuncState@@@Z
?luaK_kstr@@YIXPAULexState@@H@Z
?luaK_lastisopen@@YIHPAUFuncState@@@Z
?luaK_number@@YIXPAUFuncState@@N@Z
?luaK_patchlist@@YIXPAUFuncState@@HH@Z
?luaK_posfix@@YIXPAULexState@@W4BinOpr@@PAUexpdesc@@2@Z
?luaK_prefix@@YIXPAULexState@@W4UnOpr@@PAUexpdesc@@@Z
?luaK_setcallreturns@@YIXPAUFuncState@@H@Z
?luaK_storevar@@YIXPAULexState@@PBUexpdesc@@@Z
?luaK_tostack@@YIXPAULexState@@PAUexpdesc@@H@Z
?luaLastError@NScript@@3USLUAError@@A DATA
?luaM_growaux@@YIPAXPAUlua_State@@PAXIHIPBDI@Z
?luaM_realloc@@YIPAXPAUlua_State@@PAXK@Z
?luaO_chunkid@@YAXPADPBDH@Z
?luaO_equalObj@@YIHPBUTObject@@0@Z
?luaO_openspace@@YIPADPAUlua_State@@I@Z
?luaO_power2@@YIKK@Z
?luaO_str2d@@YIHPBDPAN@Z
?luaO_typename@@YIPBDPBUTObject@@@Z
?luaO_verror@@YAXPAUlua_State@@PBDZZ
?luaS_createudata@@YIHPAUlua_State@@PAVCObjectBase@@H@Z
?luaS_new@@YIPAUTString@@PAUlua_State@@PBD@Z
?luaS_newfixed@@YIPAUTString@@PAUlua_State@@PBD@Z
?luaS_newlstr@@YIPAUTString@@PAUlua_State@@PBD@Z
?luaT_gettm@@YIAAHPAUlua_State@@HH@Z
?luaT_gettmindex@@YIHPAUlua_State@@PBUTObject@@H@Z
?luaT_init@@YIXPAUlua_State@@@Z
?luaT_realtag@@YIXPAUlua_State@@H@Z
?luaT_tag@@YIHPAUlua_State@@PBUTObject@@@Z
?luaT_validevent@@YIHHH@Z
?luaU_undump@@YIHPAUlua_State@@PAUzio@@@Z
?luaV_Cclosure@@YIXPAUlua_State@@P6IH0@ZH@Z
?luaV_Lclosure@@YIXPAUlua_State@@HH@Z
?luaV_beginExecute@@YIXPAUlua_State@@HHH@Z
?luaV_closure@@YIPAUClosure@@PAUlua_State@@H@Z
?luaV_getglobal@@YIPBUTObject@@PAUlua_State@@PAUTString@@@Z
?luaV_gettable@@YIPBUTObject@@PAUlua_State@@H@Z
?luaV_lessthan@@YIHPAUlua_State@@HHH@Z
?luaV_returnFromExecute@@YIXPAUlua_State@@H@Z
?luaV_setglobal@@YIXPAUlua_State@@PAUTString@@@Z
?luaV_settable@@YIXPAUlua_State@@HH@Z
?luaV_stepExecute@@YIXPAUlua_State@@@Z
?luaV_strconc@@YIXPAUlua_State@@HH@Z
?luaV_tonumber@@YIHPAUTObject@@@Z
?luaV_tostring@@YIHPAUlua_State@@PAUTObject@@@Z
?luaX_checklimit@@YIXPAULexState@@HHPBD@Z
?luaX_error@@YIXPAULexState@@PBDH@Z
?luaX_init@@YIXPAUlua_State@@@Z
?luaX_lex@@YIHPAULexState@@PATSemInfo@@@Z
?luaX_setinput@@YIXPAUlua_State@@PAULexState@@PAUzio@@PAUTString@@@Z
?luaX_syntaxerror@@YIXPAULexState@@PBD1@Z
?luaX_token2str@@YIXHPAD@Z
?luaY_parser@@YIHPAUlua_State@@PAUzio@@@Z
?luaZ_Fopen@@YIPAUzio@@PAU1@PAU_iobuf@@PBD@Z
?luaZ_mopen@@YIPAUzio@@PAU1@PBDI1@Z
?luaZ_read@@YIIPAUzio@@PAXI@Z
?luaZ_sopen@@YIPAUzio@@PAU1@PBD1@Z
?lua_AddCFunc@@YIHPAP6IHPAUlua_State@@@ZAAVCStructureSaver@@H@Z
?lua_AddHook@@YIHPAP6IXPAUlua_State@@PAUlua_Debug@@@ZAAVCStructureSaver@@H@Z
?lua_AddString@@YIXAAVCStructureSaver@@DPAPAUTString@@H@Z
?lua_RegisterFunc@@YIXP6IHPAUlua_State@@@ZABV?$basic_string@DU?$char_traits@D@std@@V?$allocator@D@_STL@@@_STL@@@Z
?lua_RegisterFunc@@YIXP6IXPAUlua_State@@PAUlua_Debug@@@ZABV?$basic_string@DU?$char_traits@D@std@@V?$allocator@D@_STL@@@_STL@@@Z
?lua_StartSerialize@@YIXPAUlua_State@@@Z
?lua_close@@YIXPAUlua_State@@@Z
?lua_concat@@YIXPAUlua_State@@H@Z
?lua_copytagmethods@@YIHPAUlua_State@@HH@Z
?lua_dobuffer@@YIHPAUlua_State@@PBDI1@Z
?lua_dofile@@YIHPAUlua_State@@PBD@Z
?lua_dostring@@YIHPAUlua_State@@PBD@Z
?lua_equal@@YIHPAUlua_State@@HH@Z
?lua_error@@YIXPAUlua_State@@PBD@Z
?lua_executeThreads@@YIXPAUlua_State@@@Z
?lua_getglobal@@YIXPAUlua_State@@PBD@Z
?lua_getglobals@@YIXPAUlua_State@@@Z
?lua_getinfo@@YIHPAUlua_State@@PBDPAUlua_Debug@@@Z
?lua_getn@@YIHPAUlua_State@@H@Z
?lua_getref@@YIHPAUlua_State@@H@Z
?lua_getstack@@YIHPAUlua_State@@HPAUlua_Debug@@@Z
?lua_gettable@@YIXPAUlua_State@@H@Z
?lua_gettagmethod@@YIXPAUlua_State@@HPBD@Z
?lua_gettop@@YIHPAUlua_State@@@Z
?lua_insert@@YIXPAUlua_State@@H@Z
?lua_iscfunction@@YIHPAUlua_State@@H@Z
?lua_isnumber@@YIHPAUlua_State@@H@Z
?lua_isstring@@YIHPAUlua_State@@H@Z
?lua_lessthan@@YIHPAUlua_State@@HH@Z
?lua_newThread@@YIPAVCLuaThread@@PAUlua_State@@@Z
?lua_newtable@@YIXPAUlua_State@@@Z
?lua_newtag@@YIHPAUlua_State@@@Z
?lua_next@@YIHPAUlua_State@@H@Z
?lua_nextAbsolute@@YIHPAUlua_State@@H@Z
?lua_open@@YIPAUlua_State@@H@Z
?lua_parsebuffer@@YIHPAUlua_State@@PBDI1@Z
?lua_pushcclosure@@YIXPAUlua_State@@P6IH0@ZH@Z
?lua_pushlstring@@YIXPAUlua_State@@PBDI@Z
?lua_pushnil@@YIXPAUlua_State@@@Z
?lua_pushnumber@@YIXPAUlua_State@@N@Z
?lua_pushstring@@YIXPAUlua_State@@PBD@Z
?lua_pushusertag@@YIXPAUlua_State@@PAVCObjectBase@@H@Z
?lua_pushvalue@@YIXPAUlua_State@@H@Z
?lua_rawget@@YIXPAUlua_State@@H@Z
?lua_rawgeti@@YIXPAUlua_State@@HH@Z
?lua_rawset@@YIXPAUlua_State@@H@Z
?lua_rawseti@@YIXPAUlua_State@@HH@Z
?lua_ref@@YIHPAUlua_State@@H@Z
?lua_register@@YIXPAUlua_State@@PBDP6IH0@Z@Z
?lua_remove@@YIXPAUlua_State@@H@Z
?lua_setThread@@YIXPAUlua_State@@PAVCLuaThread@@@Z
?lua_setglobal@@YIXPAUlua_State@@PBD@Z
?lua_setglobals@@YIXPAUlua_State@@@Z
?lua_settable@@YIXPAUlua_State@@H@Z
?lua_settag@@YIXPAUlua_State@@H@Z
?lua_settagmethod@@YIXPAUlua_State@@HPBD@Z
?lua_settop@@YIXPAUlua_State@@H@Z
?lua_startCall@@YIXPAUlua_State@@HH@Z
?lua_startThread@@YIXPAUlua_State@@H@Z
?lua_strlen@@YIIPAUlua_State@@H@Z
?lua_tag@@YIHPAUlua_State@@H@Z
?lua_tocfunction@@YIP6IHPAUlua_State@@@Z0H@Z
?lua_tonumber@@YINPAUlua_State@@H@Z
?lua_topointer@@YIPBXPAUlua_State@@H@Z
?lua_tostring@@YIPBDPAUlua_State@@H@Z
?lua_touserdata@@YIPAVCObjectBase@@PAUlua_State@@H@Z
?lua_type@@YIHPAUlua_State@@H@Z
?lua_typename@@YIPBDPAUlua_State@@H@Z
?lua_unref@@YIXPAUlua_State@@H@Z
?max_size@?$_String_base@DV?$allocator@D@_STL@@@_STL@@QBEIXZ
?n@SLuaEntryCount@@2HA DATA
?pErrToString@@3PAPADA DATA
?pLUASaverState@@3PAUlua_State@@A DATA
?push@?$CVectorList@UCallInfo@@@@QAEHPAUCallInfo@@@Z
?push@?$CVectorList@UClosure@@@@QAEHPAUClosure@@@Z
?push@?$CVectorList@UHash@@@@QAEHPAUHash@@@Z
?push@?$CVectorList@UProto@@@@QAEHPAUProto@@@Z
?push@?$CVectorList@UUserData@@@@QAEHPAUUserData@@@Z
?size@?$CVectorList@UClosure@@@@QBEHXZ
?size@?$CVectorList@UHash@@@@QBEHXZ
?size@?$CVectorList@UProto@@@@QBEHXZ
?size@?$CVectorList@UUserData@@@@QBEHXZ
?what@__Named_exception@_STL@@UBEPBDXZ
