EXPORTS
??0?$CDBIterator@V?$CRPGSomethingForPers@VCRPGFirstAid@NDb@@@NDb@@@@QAE@ABV?$CDBTable@V?$CRPGSomethingForPers@VCRPGFirstAid@NDb@@@NDb@@@@@Z
??0?$CDBIterator@V?$CRPGSomethingForPers@VCRPGGrenade@NDb@@@NDb@@@@QAE@ABV?$CDBTable@V?$CRPGSomethingForPers@VCRPGGrenade@NDb@@@NDb@@@@@Z
??0?$CDBIterator@V?$CRPGSomethingForPers@VCRPGKey@NDb@@@NDb@@@@QAE@ABV?$CDBTable@V?$CRPGSomethingForPers@VCRPGKey@NDb@@@NDb@@@@@Z
??0?$CDBIterator@V?$CRPGSomethingForPers@VCRPGMeleeWeapon@NDb@@@NDb@@@@QAE@ABV?$CDBTable@V?$CRPGSomethingForPers@VCRPGMeleeWeapon@NDb@@@NDb@@@@@Z
??0?$CDBIterator@V?$CRPGSomethingForPers@VCRPGMine@NDb@@@NDb@@@@QAE@ABV?$CDBTable@V?$CRPGSomethingForPers@VCRPGMine@NDb@@@NDb@@@@@Z
??0?$CDBIterator@V?$CRPGSomethingForPers@VCRPGMineDetector@NDb@@@NDb@@@@QAE@ABV?$CDBTable@V?$CRPGSomethingForPers@VCRPGMineDetector@NDb@@@NDb@@@@@Z
??0?$CDBIterator@V?$CRPGSomethingForPers@VCRPGTool@NDb@@@NDb@@@@QAE@ABV?$CDBTable@V?$CRPGSomethingForPers@VCRPGTool@NDb@@@NDb@@@@@Z
??0?$CDBIterator@V?$CRPGSomethingForPers@VCRPGWeapon@NDb@@@NDb@@@@QAE@ABV?$CDBTable@V?$CRPGSomethingForPers@VCRPGWeapon@NDb@@@NDb@@@@@Z
??0?$CDBIterator@VCAnimWeaponType@NDb@@@@QAE@ABV?$CDBTable@VCAnimWeaponType@NDb@@@@@Z
??0?$CDBIterator@VCAnimation@NDb@@@@QAE@ABV?$CDBTable@VCAnimation@NDb@@@@@Z
??0?$CDBIterator@VCDBDialog@NDb@@@@QAE@ABV?$CDBTable@VCDBDialog@NDb@@@@@Z
??0?$CDBIterator@VCDebris@NDb@@@@QAE@ABV?$CDBTable@VCDebris@NDb@@@@@Z
??0?$CDBIterator@VCRPGClip4Pers@NDb@@@@QAE@ABV?$CDBTable@VCRPGClip4Pers@NDb@@@@@Z
??0?$CDBIterator@VCRPGItem2Uniform@NDb@@@@QAE@ABV?$CDBTable@VCRPGItem2Uniform@NDb@@@@@Z
??0?$CDBIterator@VCTranslatedString@NDb@@@@QAE@ABV?$CDBTable@VCTranslatedString@NDb@@@@@Z
??0?$CDBPtr@VCCubeTexture@NDb@@@@QAE@ABV0@@Z
??0?$CDBPtr@VCCubeTexture@NDb@@@@QAE@XZ
??0?$CDBPtr@VCDBDialog@NDb@@@@QAE@PAVCDBDialog@NDb@@@Z
??0?$CDBPtr@VCDebrisMaterial@NDb@@@@QAE@ABV0@@Z
??0?$CDBPtr@VCDebrisMaterial@NDb@@@@QAE@XZ
??0?$CDBPtr@VCDoor@NDb@@@@QAE@ABV0@@Z
??0?$CDBPtr@VCDoor@NDb@@@@QAE@XZ
??0?$CDBPtr@VCEffect@NDb@@@@QAE@ABV0@@Z
??0?$CDBPtr@VCEffect@NDb@@@@QAE@XZ
??0?$CDBPtr@VCGeometry@NDb@@@@QAE@ABV0@@Z
??0?$CDBPtr@VCGeometry@NDb@@@@QAE@XZ
??0?$CDBPtr@VCGun@NDb@@@@QAE@ABV0@@Z
??0?$CDBPtr@VCGun@NDb@@@@QAE@XZ
??0?$CDBPtr@VCMaterial@NDb@@@@QAE@ABV0@@Z
??0?$CDBPtr@VCMaterial@NDb@@@@QAE@XZ
??0?$CDBPtr@VCPassageObject@NDb@@@@QAE@ABV0@@Z
??0?$CDBPtr@VCPassageObject@NDb@@@@QAE@XZ
??0?$CDBPtr@VCRPGArmor@NDb@@@@QAE@ABV0@@Z
??0?$CDBPtr@VCRPGArmor@NDb@@@@QAE@XZ
??0?$CDBPtr@VCSkeleton@NDb@@@@QAE@ABV0@@Z
??0?$CDBPtr@VCSkeleton@NDb@@@@QAE@XZ
??0?$CDBPtr@VCSoundEffect@NDb@@@@QAE@ABV0@@Z
??0?$CDBPtr@VCSoundEffect@NDb@@@@QAE@XZ
??0?$CDBPtr@VCTSound@NDb@@@@QAE@ABV0@@Z
??0?$CDBPtr@VCTSound@NDb@@@@QAE@XZ
??0?$CDBPtr@VCTexture@NDb@@@@QAE@ABV0@@Z
??0?$CDBPtr@VCTexture@NDb@@@@QAE@XZ
??0?$CRPGSomethingForPers@VCRPGFirstAid@NDb@@@NDb@@QAE@ABV01@@Z
??0?$CRPGSomethingForPers@VCRPGFirstAid@NDb@@@NDb@@QAE@XZ
??0?$CRPGSomethingForPers@VCRPGGrenade@NDb@@@NDb@@QAE@ABV01@@Z
??0?$CRPGSomethingForPers@VCRPGGrenade@NDb@@@NDb@@QAE@XZ
??0?$CRPGSomethingForPers@VCRPGKey@NDb@@@NDb@@QAE@ABV01@@Z
??0?$CRPGSomethingForPers@VCRPGKey@NDb@@@NDb@@QAE@XZ
??0?$CRPGSomethingForPers@VCRPGMeleeWeapon@NDb@@@NDb@@QAE@ABV01@@Z
??0?$CRPGSomethingForPers@VCRPGMeleeWeapon@NDb@@@NDb@@QAE@XZ
??0?$CRPGSomethingForPers@VCRPGMine@NDb@@@NDb@@QAE@ABV01@@Z
??0?$CRPGSomethingForPers@VCRPGMine@NDb@@@NDb@@QAE@XZ
??0?$CRPGSomethingForPers@VCRPGMineDetector@NDb@@@NDb@@QAE@ABV01@@Z
??0?$CRPGSomethingForPers@VCRPGMineDetector@NDb@@@NDb@@QAE@XZ
??0?$CRPGSomethingForPers@VCRPGTool@NDb@@@NDb@@QAE@ABV01@@Z
??0?$CRPGSomethingForPers@VCRPGTool@NDb@@@NDb@@QAE@XZ
??0?$CRPGSomethingForPers@VCRPGWeapon@NDb@@@NDb@@QAE@ABV01@@Z
??0?$CRPGSomethingForPers@VCRPGWeapon@NDb@@@NDb@@QAE@XZ
??0?$CRndPtr@VCAmbientLight@NDb@@@@QAE@ABV0@@Z
??0?$CRndPtr@VCAmbientLight@NDb@@@@QAE@XZ
??0?$CRndPtr@VCEffect@NDb@@@@QAE@ABV0@@Z
??0?$CRndPtr@VCEffect@NDb@@@@QAE@XZ
??0?$CRndPtr@VCMaterial@NDb@@@@QAE@ABV0@@Z
??0?$CRndPtr@VCMaterial@NDb@@@@QAE@XZ
??0?$CRndPtr@VCRndConstructionPart@NDb@@@@QAE@ABV0@@Z
??0?$CRndPtr@VCRndConstructionPart@NDb@@@@QAE@XZ
??0?$CRndPtr@VCRndModel@NDb@@@@QAE@ABV0@@Z
??0?$CRndPtr@VCRndModel@NDb@@@@QAE@XZ
??0?$CRndPtr@VCRndObject@NDb@@@@QAE@ABV0@@Z
??0?$CRndPtr@VCRndObject@NDb@@@@QAE@XZ
??0?$CRndPtr@VCSoundVariant@NDb@@@@QAE@ABV0@@Z
??0?$CRndPtr@VCSoundVariant@NDb@@@@QAE@XZ
??0?$CRndPtr@VCTemplVariant@NDb@@@@QAE@ABV0@@Z
??0?$CRndPtr@VCTemplVariant@NDb@@@@QAE@XZ
??0?$CTPoint@H@@QAE@XZ
??0?$CTRect@H@@QAE@XZ
??0?$SSwitch@VCTEffect@NDb@@$03@CRPGGrenade@NDb@@QAE@ABU012@@Z
??0?$SSwitch@VCTEffect@NDb@@$03@CRPGGrenade@NDb@@QAE@XZ
??0?$SSwitch@VCTSound@NDb@@$03@CRPGGrenade@NDb@@QAE@ABU012@@Z
??0?$SSwitch@VCTSound@NDb@@$03@CRPGGrenade@NDb@@QAE@XZ
??0?$_Eq_char_bound@U?$char_traits@D@std@@@_STL@@QAE@D@Z
??0?$_Not_within_traits@U?$char_traits@D@std@@@_STL@@QAE@PBD0@Z
??0?$_String_base@DV?$allocator@D@_STL@@@_STL@@QAE@ABV?$allocator@D@1@@Z
??0?$_String_base@DV?$allocator@D@_STL@@@_STL@@QAE@ABV?$allocator@D@1@I@Z
??0?$_String_base@GV?$allocator@G@_STL@@@_STL@@QAE@ABV?$allocator@G@1@@Z
??0?$pair@$$CBHP6APAVCObjectBase@@XZ@_STL@@QAE@ABHABQ6APAVCObjectBase@@XZ@Z
??0?$pair@$$CBHP6APAVCObjectBase@@XZ@_STL@@QAE@ABU01@@Z
??0?$pair@$$CBHUSAnimationVector@NDb@@@_STL@@QAE@ABHABUSAnimationVector@NDb@@@Z
??0?$pair@$$CBHUSAnimationVector@NDb@@@_STL@@QAE@ABU01@@Z
??0?$pair@$$CBHUSPieceLinks@NDb@@@_STL@@QAE@ABHABUSPieceLinks@NDb@@@Z
??0?$pair@$$CBHUSPieceLinks@NDb@@@_STL@@QAE@ABU01@@Z
??0?$pair@QBVtype_info@@H@_STL@@QAE@ABQBVtype_info@@ABH@Z
??0?$pair@QBVtype_info@@H@_STL@@QAE@ABU01@@Z
??0?$pointer_to_unary_function@HH@_STL@@QAE@P6AHH@Z@Z
??0CAIGeometry@NDb@@QAE@ABV01@@Z
??0CAIGeometry@NDb@@QAE@XZ
??0CAIGeometryRegister0x00531180@@QAE@XZ
??0CAISound@NDb@@QAE@ABV01@@Z
??0CAISound@NDb@@QAE@XZ
??0CAISoundRegister0x01612140@@QAE@XZ
??0CAmbientLight@NDb@@QAE@ABV01@@Z
??0CAmbientLight@NDb@@QAE@XZ
??0CAmbientLightReal@NDb@@QAE@ABV01@@Z
??0CAmbientLightReal@NDb@@QAE@XZ
??0CAmbientLightRealRegister0x020A2160@@QAE@XZ
??0CAmbientLightRegister0x02961130@@QAE@XZ
??0CAnimLight@NDb@@QAE@ABV01@@Z
??0CAnimLight@NDb@@QAE@XZ
??0CAnimLightRegister0x11162121@@QAE@XZ
??0CAnimWeaponType@NDb@@QAE@ABV01@@Z
??0CAnimWeaponType@NDb@@QAE@XZ
??0CAnimWeaponTypeRegister0x12532170@@QAE@XZ
??0CAnimation@NDb@@QAE@ABV01@@Z
??0CAnimation@NDb@@QAE@XZ
??0CAnimationRegister0x02511001@@QAE@XZ
??0CAttribute@NDb@@QAE@ABV01@@Z
??0CAttribute@NDb@@QAE@XZ
??0CAttributeRegister0x01681150@@QAE@XZ
??0CBRDF@NDb@@QAE@ABV01@@Z
??0CBRDF@NDb@@QAE@XZ
??0CBRDFRegister0x00121000@@QAE@XZ
??0CChapterMap@NDb@@QAE@ABV01@@Z
??0CChapterMap@NDb@@QAE@XZ
??0CChapterMapRegister0xB1962151@@QAE@XZ
??0CComplexHead@NDb@@QAE@ABV01@@Z
??0CComplexHead@NDb@@QAE@XZ
??0CComplexHeadRegister0x11862140@@QAE@XZ
??0CConstructionPart@NDb@@QAE@ABV01@@Z
??0CConstructionPart@NDb@@QAE@XZ
??0CConstructionPartRegister0x010a1181@@QAE@XZ
??0CContainer@NDb@@QAE@ABV01@@Z
??0CContainer@NDb@@QAE@XZ
??0CContainerModel@NDb@@QAE@ABV01@@Z
??0CContainerModel@NDb@@QAE@XZ
??0CContainerModelRegister0x01991140@@QAE@XZ
??0CContainerRegister0x02561180@@QAE@XZ
??0CCubeTexture@NDb@@QAE@ABV01@@Z
??0CCubeTexture@NDb@@QAE@XZ
??0CCubeTextureRegister0x01712180@@QAE@XZ
??0CDBAck@NDb@@QAE@ABV01@@Z
??0CDBAck@NDb@@QAE@XZ
??0CDBAckInfo@NDb@@QAE@ABV01@@Z
??0CDBAckInfo@NDb@@QAE@XZ
??0CDBAckInfoRegister0x52512130@@QAE@XZ
??0CDBAckRegister0x52512132@@QAE@XZ
??0CDBAckSequence@NDb@@QAE@ABV01@@Z
??0CDBAckSequence@NDb@@QAE@XZ
??0CDBAckSequenceRegister0x52512131@@QAE@XZ
??0CDBAutoLoadScript@NDb@@QAE@ABV01@@Z
??0CDBAutoLoadScript@NDb@@QAE@XZ
??0CDBAutoLoadScriptRegister0x51602180@@QAE@XZ
??0CDBCamera@NDb@@QAE@ABV01@@Z
??0CDBCamera@NDb@@QAE@XZ
??0CDBCameraRegister0x50992190@@QAE@XZ
??0CDBDialog@NDb@@QAE@ABV01@@Z
??0CDBDialog@NDb@@QAE@XZ
??0CDBDialogPers@NDb@@QAE@ABV01@@Z
??0CDBDialogPers@NDb@@QAE@XZ
??0CDBDialogPersRegister0x51722140@@QAE@XZ
??0CDBDialogRegister0x53102110@@QAE@XZ
??0CDBDialogSeq@NDb@@QAE@ABV01@@Z
??0CDBDialogSeq@NDb@@QAE@XZ
??0CDBDialogSeqRegister0x51322120@@QAE@XZ
??0CDBDifficulty@NDb@@QAE@ABV01@@Z
??0CDBDifficulty@NDb@@QAE@XZ
??0CDBDifficultyRegister0x51812120@@QAE@XZ
??0CDBDiplomacy@NDb@@QAE@ABV01@@Z
??0CDBDiplomacy@NDb@@QAE@XZ
??0CDBDiplomacyRegister0x52012140@@QAE@XZ
??0CDBIteratorBase@@IAE@ABVCDBTableBase@@@Z
??0CDBMinesConstants@NDb@@QAE@ABV01@@Z
??0CDBMinesConstants@NDb@@QAE@XZ
??0CDBMinesConstantsRegister0x50513160@@QAE@XZ
??0CDBPerk@NDb@@QAE@ABV01@@Z
??0CDBPerk@NDb@@QAE@XZ
??0CDBPerkRegister0x52612160@@QAE@XZ
??0CDBPerkTreeNode@NDb@@QAE@ABV01@@Z
??0CDBPerkTreeNode@NDb@@QAE@XZ
??0CDBPerkTreeNodeRegister0x52612161@@QAE@XZ
??0CDBRecord@@QAE@ABV0@@Z
??0CDBRecord@@QAE@XZ
??0CDBScenario@NDb@@QAE@ABV01@@Z
??0CDBScenario@NDb@@QAE@XZ
??0CDBScenarioClue@NDb@@QAE@ABV01@@Z
??0CDBScenarioClue@NDb@@QAE@XZ
??0CDBScenarioClueRegister0x50882182@@QAE@XZ
??0CDBScenarioObjective2Clue@NDb@@QAE@ABV01@@Z
??0CDBScenarioObjective2Clue@NDb@@QAE@XZ
??0CDBScenarioObjective2ClueRegister0x50392125@@QAE@XZ
??0CDBScenarioObjective@NDb@@QAE@ABV01@@Z
??0CDBScenarioObjective@NDb@@QAE@XZ
??0CDBScenarioObjectiveRegister0x50982090@@QAE@XZ
??0CDBScenarioRegister0x51582130@@QAE@XZ
??0CDBScenarioState@NDb@@QAE@ABV01@@Z
??0CDBScenarioState@NDb@@QAE@XZ
??0CDBScenarioStateRegister0x50882181@@QAE@XZ
??0CDBScenarioZone@NDb@@QAE@ABV01@@Z
??0CDBScenarioZone@NDb@@QAE@XZ
??0CDBScenarioZoneRegister0x50882180@@QAE@XZ
??0CDebris@NDb@@QAE@ABV01@@Z
??0CDebris@NDb@@QAE@XZ
??0CDebrisMaterial@NDb@@QAE@ABV01@@Z
??0CDebrisMaterial@NDb@@QAE@XZ
??0CDebrisMaterialRegister0x11291120@@QAE@XZ
??0CDebrisRegister0x11291121@@QAE@XZ
??0CDoor@NDb@@QAE@ABV01@@Z
??0CDoor@NDb@@QAE@XZ
??0CDoorRegister0x02822140@@QAE@XZ
??0CEffect@NDb@@QAE@ABV01@@Z
??0CEffect@NDb@@QAE@XZ
??0CEffectRegister0x11932121@@QAE@XZ
??0CExplosion@NDb@@QAE@ABV01@@Z
??0CExplosion@NDb@@QAE@XZ
??0CExplosionRegister0x02891130@@QAE@XZ
??0CFinalElement@NDb@@QAE@ABV01@@Z
??0CFinalElement@NDb@@QAE@XZ
??0CFinalElementRegister0x02511173@@QAE@XZ
??0CFloor@NDb@@QAE@ABV01@@Z
??0CFloor@NDb@@QAE@XZ
??0CFloorModel@NDb@@QAE@ABV01@@Z
??0CFloorModel@NDb@@QAE@XZ
??0CFloorModelRegister0x02331162@@QAE@XZ
??0CFloorRegister0x02331164@@QAE@XZ
??0CGeometry@NDb@@QAE@ABV01@@Z
??0CGeometry@NDb@@QAE@XZ
??0CGeometryRegister0x00121200@@QAE@XZ
??0CGlobalMap@NDb@@QAE@ABV01@@Z
??0CGlobalMap@NDb@@QAE@XZ
??0CGlobalMapRegister0xB1962150@@QAE@XZ
??0CGrass@NDb@@QAE@ABV01@@Z
??0CGrass@NDb@@QAE@XZ
??0CGrassRegister0x025a1180@@QAE@XZ
??0CGun@NDb@@QAE@ABV01@@Z
??0CGun@NDb@@QAE@XZ
??0CGunRegister0x02822141@@QAE@XZ
??0CHead@NDb@@QAE@ABV01@@Z
??0CHead@NDb@@QAE@XZ
??0CHeadRegister0x10842170@@QAE@XZ
??0CIntermediateFloor@NDb@@QAE@ABV01@@Z
??0CIntermediateFloor@NDb@@QAE@XZ
??0CIntermediateFloorRegister0x01481160@@QAE@XZ
??0CIntermediateSolid@NDb@@QAE@ABV01@@Z
??0CIntermediateSolid@NDb@@QAE@XZ
??0CIntermediateSolidRegister0x02181160@@QAE@XZ
??0CLightInstance@NDb@@QAE@ABV01@@Z
??0CLightInstance@NDb@@QAE@XZ
??0CLightInstanceRegister0x11162120@@QAE@XZ
??0CMaterial@NDb@@QAE@ABV01@@Z
??0CMaterial@NDb@@QAE@XZ
??0CMaterialRegister0x00121001@@QAE@XZ
??0CModel@NDb@@QAE@ABV01@@Z
??0CModel@NDb@@QAE@XZ
??0CModelRegister0x02511000@@QAE@XZ
??0CMusic@NDb@@QAE@ABV01@@Z
??0CMusic@NDb@@QAE@XZ
??0CMusicRegister0xA1962150@@QAE@XZ
??0CNationality@NDb@@QAE@ABV01@@Z
??0CNationality@NDb@@QAE@XZ
??0CNationalityRegister0xB1028141@@QAE@XZ
??0CObject@NDb@@QAE@ABV01@@Z
??0CObject@NDb@@QAE@XZ
??0CObjectBase@@QAE@ABV0@@Z
??0CObjectBase@@QAE@XZ
??0CObjectRegister0x11291122@@QAE@XZ
??0CPanzerklein@NDb@@QAE@ABV01@@Z
??0CPanzerklein@NDb@@QAE@XZ
??0CPanzerkleinRegister0x70902130@@QAE@XZ
??0CParticle@NDb@@QAE@ABV01@@Z
??0CParticle@NDb@@QAE@XZ
??0CParticleInstance@NDb@@QAE@ABV01@@Z
??0CParticleInstance@NDb@@QAE@XZ
??0CParticleInstanceRegister0x11932122@@QAE@XZ
??0CParticleRegister0x02841135@@QAE@XZ
??0CPassageObject@NDb@@QAE@ABV01@@Z
??0CPassageObject@NDb@@QAE@XZ
??0CPassageObjectRegister0x51892140@@QAE@XZ
??0CPlacableObject@NDb@@QAE@ABV01@@Z
??0CPlacableObject@NDb@@QAE@XZ
??0CPlacableObjectRegister0xA2662140@@QAE@XZ
??0CQuat@@QAE@MABVCVec3@@_N@Z
??0CQuat@@QAE@XZ
??0CRPGAISoundConstants@NDb@@QAE@ABV01@@Z
??0CRPGAISoundConstants@NDb@@QAE@XZ
??0CRPGAISoundConstantsRegister0x52632170@@QAE@XZ
??0CRPGAmmo@NDb@@QAE@ABV01@@Z
??0CRPGAmmo@NDb@@QAE@XZ
??0CRPGAmmoRegister0xE0502152@@QAE@XZ
??0CRPGArmor@NDb@@QAE@ABV01@@Z
??0CRPGArmor@NDb@@QAE@XZ
??0CRPGArmorRegister0xE0502151@@QAE@XZ
??0CRPGBaseValue@NDb@@QAE@ABV01@@Z
??0CRPGBaseValue@NDb@@QAE@XZ
??0CRPGBaseValueRegister0xE0502130@@QAE@XZ
??0CRPGClass@NDb@@QAE@ABV01@@Z
??0CRPGClass@NDb@@QAE@XZ
??0CRPGClassRegister0x00231160@@QAE@XZ
??0CRPGClip4Pers@NDb@@QAE@ABV01@@Z
??0CRPGClip4Pers@NDb@@QAE@XZ
??0CRPGClip4PersRegister0xE10A1161@@QAE@XZ
??0CRPGClip@NDb@@QAE@ABV01@@Z
??0CRPGClip@NDb@@QAE@XZ
??0CRPGClipRegister0xE0591180@@QAE@XZ
??0CRPGCritical@NDb@@QAE@ABV01@@Z
??0CRPGCritical@NDb@@QAE@XZ
??0CRPGCriticalRegister0xA26B1190@@QAE@XZ
??0CRPGDmgToArmor@NDb@@QAE@ABV01@@Z
??0CRPGDmgToArmor@NDb@@QAE@XZ
??0CRPGDmgToArmorRegister0xE0562170@@QAE@XZ
??0CRPGFirstAid@NDb@@QAE@ABV01@@Z
??0CRPGFirstAid@NDb@@QAE@XZ
??0CRPGFirstAidRegister0xA1112140@@QAE@XZ
??0CRPGGrenade@NDb@@QAE@ABV01@@Z
??0CRPGGrenade@NDb@@QAE@XZ
??0CRPGGrenadeRegister0x106B1131@@QAE@XZ
??0CRPGInterruptsConstants@NDb@@QAE@ABV01@@Z
??0CRPGInterruptsConstants@NDb@@QAE@XZ
??0CRPGInterruptsConstantsRegister0x51542120@@QAE@XZ
??0CRPGItem2Uniform@NDb@@QAE@ABV01@@Z
??0CRPGItem2Uniform@NDb@@QAE@XZ
??0CRPGItem2UniformRegister0xE01B1160@@QAE@XZ
??0CRPGItem@NDb@@QAE@ABV01@@Z
??0CRPGItem@NDb@@QAE@XZ
??0CRPGItemRegister0xE0891160@@QAE@XZ
??0CRPGKey@NDb@@QAE@ABV01@@Z
??0CRPGKey@NDb@@QAE@XZ
??0CRPGKeyRegister0x024c2146@@QAE@XZ
??0CRPGLink4Pers@NDb@@QAE@ABV01@@Z
??0CRPGLink4Pers@NDb@@QAE@XZ
??0CRPGMaterial@NDb@@QAE@ABV01@@Z
??0CRPGMaterial@NDb@@QAE@XZ
??0CRPGMaterialRegister0xA15A2160@@QAE@XZ
??0CRPGMeleeWeapon@NDb@@QAE@ABV01@@Z
??0CRPGMeleeWeapon@NDb@@QAE@XZ
??0CRPGMeleeWeaponRegister0xA1512131@@QAE@XZ
??0CRPGMine@NDb@@QAE@ABV01@@Z
??0CRPGMine@NDb@@QAE@XZ
??0CRPGMineDetector@NDb@@QAE@ABV01@@Z
??0CRPGMineDetector@NDb@@QAE@XZ
??0CRPGMineDetectorRegister0x11262130@@QAE@XZ
??0CRPGMineRegister0x018c2111@@QAE@XZ
??0CRPGPers@NDb@@QAE@ABV01@@Z
??0CRPGPers@NDb@@QAE@XZ
??0CRPGPersRegister0x00231165@@QAE@XZ
??0CRPGSomethingForPersRegister0x018c2113@@QAE@XZ
??0CRPGSomethingForPersRegister0x024c2143@@QAE@XZ
??0CRPGSomethingForPersRegister0x024c2144@@QAE@XZ
??0CRPGSomethingForPersRegister0x11462171@@QAE@XZ
??0CRPGSomethingForPersRegister0xA1112152@@QAE@XZ
??0CRPGSomethingForPersRegister0xA1512130@@QAE@XZ
??0CRPGSomethingForPersRegister0xE10A1160@@QAE@XZ
??0CRPGSomethingForPersRegister0xE10A1162@@QAE@XZ
??0CRPGStoreItem@NDb@@QAE@ABV01@@Z
??0CRPGStoreItem@NDb@@QAE@XZ
??0CRPGStoreItemRegister0xB1028142@@QAE@XZ
??0CRPGToHit@NDb@@QAE@ABV01@@Z
??0CRPGToHit@NDb@@QAE@XZ
??0CRPGToHitRegister0xA2222130@@QAE@XZ
??0CRPGTool@NDb@@QAE@ABV01@@Z
??0CRPGTool@NDb@@QAE@XZ
??0CRPGToolRegister0x024c2145@@QAE@XZ
??0CRPGUniform@NDb@@QAE@ABV01@@Z
??0CRPGUniform@NDb@@QAE@XZ
??0CRPGUniformRegister0x106B1130@@QAE@XZ
??0CRPGWeapon@NDb@@QAE@ABV01@@Z
??0CRPGWeapon@NDb@@QAE@XZ
??0CRPGWeaponRegister0x00231162@@QAE@XZ
??0CRPGWeaponType@NDb@@QAE@ABV01@@Z
??0CRPGWeaponType@NDb@@QAE@XZ
??0CRPGWeaponTypeRegister0x00231161@@QAE@XZ
??0CRectangle@NDb@@QAE@ABV01@@Z
??0CRectangle@NDb@@QAE@XZ
??0CRectangleRegister0x02511172@@QAE@XZ
??0CRndConstructionPart@NDb@@QAE@ABV01@@Z
??0CRndConstructionPart@NDb@@QAE@XZ
??0CRndConstructionPartRegister0x019a1190@@QAE@XZ
??0CRndContainerModel@NDb@@QAE@ABV01@@Z
??0CRndContainerModel@NDb@@QAE@XZ
??0CRndContainerModelRegister0x00981160@@QAE@XZ
??0CRndModel@NDb@@QAE@ABV01@@Z
??0CRndModel@NDb@@QAE@XZ
??0CRndModelRegister0x01771171@@QAE@XZ
??0CRndObject@NDb@@QAE@ABV01@@Z
??0CRndObject@NDb@@QAE@XZ
??0CRndObjectRegister0x11291123@@QAE@XZ
??0CRndTerrainSpot@NDb@@QAE@ABV01@@Z
??0CRndTerrainSpot@NDb@@QAE@XZ
??0CRndTerrainSpotRegister0x011c1130@@QAE@XZ
??0CRoom@NDb@@QAE@ABV01@@Z
??0CRoom@NDb@@QAE@XZ
??0CRoomRegister0x00571131@@QAE@XZ
??0CRoulette@@QAE@ABV0@@Z
??0CRoulette@@QAE@XZ
??0CScript@NDb@@QAE@ABV01@@Z
??0CScript@NDb@@QAE@XZ
??0CScriptRegister0xE1991120@@QAE@XZ
??0CSequence@NDb@@QAE@ABV01@@Z
??0CSequence@NDb@@QAE@XZ
??0CSequenceRegister0x10842171@@QAE@XZ
??0CSide@NDb@@QAE@ABV01@@Z
??0CSide@NDb@@QAE@XZ
??0CSideRegister0xB1028140@@QAE@XZ
??0CSkeleton@NDb@@QAE@ABV01@@Z
??0CSkeleton@NDb@@QAE@XZ
??0CSkeletonRegister0x00721150@@QAE@XZ
??0CSolid@NDb@@QAE@ABV01@@Z
??0CSolid@NDb@@QAE@XZ
??0CSolidModel@NDb@@QAE@ABV01@@Z
??0CSolidModel@NDb@@QAE@XZ
??0CSolidModelRegister0x02151170@@QAE@XZ
??0CSolidRegister0x02151180@@QAE@XZ
??0CSound@NDb@@QAE@ABV01@@Z
??0CSound@NDb@@QAE@XZ
??0CSoundEffect@NDb@@QAE@ABV01@@Z
??0CSoundEffect@NDb@@QAE@XZ
??0CSoundEffectRegister0xA22A2161@@QAE@XZ
??0CSoundInstance@NDb@@QAE@ABV01@@Z
??0CSoundInstance@NDb@@QAE@XZ
??0CSoundInstanceRegister0xA22A2160@@QAE@XZ
??0CSoundRegister0x02881170@@QAE@XZ
??0CSoundVariant@NDb@@QAE@ABV01@@Z
??0CSoundVariant@NDb@@QAE@XZ
??0CSoundVariantRegister0xA2112120@@QAE@XZ
??0CSpot@NDb@@QAE@ABV01@@Z
??0CSpot@NDb@@QAE@XZ
??0CSpotRegister0xA2972170@@QAE@XZ
??0CString@NDb@@QAE@ABV01@@Z
??0CString@NDb@@QAE@XZ
??0CStringRegister0x002a1172@@QAE@XZ
??0CTAmbientLight@NDb@@QAE@ABV01@@Z
??0CTAmbientLight@NDb@@QAE@XZ
??0CTAmbientLightRegister0xA16A2180@@QAE@XZ
??0CTConstructionPart@NDb@@QAE@ABV01@@Z
??0CTConstructionPart@NDb@@QAE@XZ
??0CTConstructionPartRegister0x010a1180@@QAE@XZ
??0CTEffect@NDb@@QAE@ABV01@@Z
??0CTEffect@NDb@@QAE@XZ
??0CTEffectRegister0x11932120@@QAE@XZ
??0CTMaterial@NDb@@QAE@ABV01@@Z
??0CTMaterial@NDb@@QAE@XZ
??0CTMaterialRegister0x01771170@@QAE@XZ
??0CTRndModel@NDb@@QAE@ABV01@@Z
??0CTRndModel@NDb@@QAE@XZ
??0CTRndModelRegister0x01871140@@QAE@XZ
??0CTRndObject@NDb@@QAE@ABV01@@Z
??0CTRndObject@NDb@@QAE@XZ
??0CTRndObjectRegister0x11391160@@QAE@XZ
??0CTSound@NDb@@QAE@ABV01@@Z
??0CTSound@NDb@@QAE@XZ
??0CTSoundRegister0xA2112121@@QAE@XZ
??0CTemplVariant@NDb@@QAE@ABV01@@Z
??0CTemplVariant@NDb@@QAE@XZ
??0CTemplVariantRegister0x02511171@@QAE@XZ
??0CTemplate@NDb@@QAE@ABV01@@Z
??0CTemplate@NDb@@QAE@XZ
??0CTemplateRegister0x02511170@@QAE@XZ
??0CTerrainSpot@NDb@@QAE@ABV01@@Z
??0CTerrainSpot@NDb@@QAE@XZ
??0CTerrainSpotRegister0x011c1210@@QAE@XZ
??0CTerrainTile@NDb@@QAE@ABV01@@Z
??0CTerrainTile@NDb@@QAE@XZ
??0CTerrainTileRegister0xF1801161@@QAE@XZ
??0CTexture@NDb@@QAE@ABV01@@Z
??0CTexture@NDb@@QAE@XZ
??0CTextureRegister0x02511002@@QAE@XZ
??0CTranslatedString@NDb@@QAE@ABV01@@Z
??0CTranslatedString@NDb@@QAE@XZ
??0CTranslatedStringRegister0xA21B2160@@QAE@XZ
??0CTypeface@NDb@@QAE@ABV01@@Z
??0CTypeface@NDb@@QAE@XZ
??0CTypefaceRegister0x00221160@@QAE@XZ
??0CUIContainer@NDb@@QAE@ABV01@@Z
??0CUIContainer@NDb@@QAE@XZ
??0CUIContainerRegister0x002a1171@@QAE@XZ
??0CUIControl@NDb@@QAE@ABV01@@Z
??0CUIControl@NDb@@QAE@XZ
??0CUIControlRegister0x002a1170@@QAE@XZ
??0CUITexture@NDb@@QAE@ABV01@@Z
??0CUITexture@NDb@@QAE@XZ
??0CUITextureRegister0x001b1140@@QAE@XZ
??0CUnit@NDb@@QAE@ABV01@@Z
??0CUnit@NDb@@QAE@XZ
??0CUnitGroup@NDb@@QAE@ABV01@@Z
??0CUnitGroup@NDb@@QAE@XZ
??0CUnitGroupRegister0xA11A2140@@QAE@XZ
??0CUnitRegister0x02511174@@QAE@XZ
??0CVec2@@QAE@MM@Z
??0CVec2@@QAE@XZ
??0CVec3@@QAE@MMM@Z
??0CVec3@@QAE@XZ
??0CVec4@@QAE@MMMM@Z
??0CVec4@@QAE@XZ
??0CWall@NDb@@QAE@ABV01@@Z
??0CWall@NDb@@QAE@XZ
??0CWallModel@NDb@@QAE@ABV01@@Z
??0CWallModel@NDb@@QAE@XZ
??0CWallModelRegister0x02331161@@QAE@XZ
??0CWallRegister0x02331163@@QAE@XZ
??0CWaypoint@NDb@@QAE@ABV01@@Z
??0CWaypoint@NDb@@QAE@XZ
??0CWaypointName@NDb@@QAE@ABV01@@Z
??0CWaypointName@NDb@@QAE@XZ
??0CWaypointNameRegister0xA0532130@@QAE@XZ
??0CWaypointRegister0xA2722160@@QAE@XZ
??0DataFormatInit@NDb@@QAE@XZ
??0SAISoundConstants@NDb@@QAE@XZ
??0SAckVoice@NDb@@QAE@ABU01@@Z
??0SAckVoice@NDb@@QAE@XZ
??0SAnimationVector@NDb@@QAE@ABU01@@Z
??0SAnimationVector@NDb@@QAE@XZ
??0SBound@@QAE@XZ
??0SCameraParams@NDb@@QAE@XZ
??0SInterruptsConstants@NDb@@QAE@XZ
??0SItemAssign@NDb@@QAE@ABU01@@Z
??0SItemAssign@NDb@@QAE@XZ
??0SPieceLinks@NDb@@QAE@ABU01@@Z
??0SPieceLinks@NDb@@QAE@XZ
??0SRPGSkills@NDb@@QAE@XZ
??0SSphere@@QAE@XZ
??0SToHitConstants@NDb@@QAE@XZ
??0SUniformItem@NDb@@QAE@ABU01@@Z
??0SUniformItem@NDb@@QAE@XZ
??0SVariantFlags@NDb@@QAE@ABU01@@Z
??0SVariantFlags@NDb@@QAE@XZ
??1?$CDBPtr@VCCubeTexture@NDb@@@@QAE@XZ
??1?$CDBPtr@VCDBDialog@NDb@@@@QAE@XZ
??1?$CDBPtr@VCDebrisMaterial@NDb@@@@QAE@XZ
??1?$CDBPtr@VCDoor@NDb@@@@QAE@XZ
??1?$CDBPtr@VCEffect@NDb@@@@QAE@XZ
??1?$CDBPtr@VCGeometry@NDb@@@@QAE@XZ
??1?$CDBPtr@VCGun@NDb@@@@QAE@XZ
??1?$CDBPtr@VCMaterial@NDb@@@@QAE@XZ
??1?$CDBPtr@VCPassageObject@NDb@@@@QAE@XZ
??1?$CDBPtr@VCRPGArmor@NDb@@@@QAE@XZ
??1?$CDBPtr@VCSkeleton@NDb@@@@QAE@XZ
??1?$CDBPtr@VCSoundEffect@NDb@@@@QAE@XZ
??1?$CDBPtr@VCTSound@NDb@@@@QAE@XZ
??1?$CDBPtr@VCTexture@NDb@@@@QAE@XZ
??1?$CRPGSomethingForPers@VCRPGFirstAid@NDb@@@NDb@@MAE@XZ
??1?$CRPGSomethingForPers@VCRPGGrenade@NDb@@@NDb@@MAE@XZ
??1?$CRPGSomethingForPers@VCRPGKey@NDb@@@NDb@@MAE@XZ
??1?$CRPGSomethingForPers@VCRPGMeleeWeapon@NDb@@@NDb@@MAE@XZ
??1?$CRPGSomethingForPers@VCRPGMine@NDb@@@NDb@@MAE@XZ
??1?$CRPGSomethingForPers@VCRPGMineDetector@NDb@@@NDb@@MAE@XZ
??1?$CRPGSomethingForPers@VCRPGTool@NDb@@@NDb@@MAE@XZ
??1?$CRPGSomethingForPers@VCRPGWeapon@NDb@@@NDb@@MAE@XZ
??1?$CRndPtr@VCAmbientLight@NDb@@@@UAE@XZ
??1?$CRndPtr@VCEffect@NDb@@@@UAE@XZ
??1?$CRndPtr@VCMaterial@NDb@@@@UAE@XZ
??1?$CRndPtr@VCRndConstructionPart@NDb@@@@UAE@XZ
??1?$CRndPtr@VCRndModel@NDb@@@@UAE@XZ
??1?$CRndPtr@VCRndObject@NDb@@@@UAE@XZ
??1?$CRndPtr@VCSoundVariant@NDb@@@@UAE@XZ
??1?$CRndPtr@VCTemplVariant@NDb@@@@UAE@XZ
??1?$SSwitch@VCTEffect@NDb@@$03@CRPGGrenade@NDb@@QAE@XZ
??1?$SSwitch@VCTSound@NDb@@$03@CRPGGrenade@NDb@@QAE@XZ
??1?$_String_base@DV?$allocator@D@_STL@@@_STL@@QAE@XZ
??1?$_String_base@GV?$allocator@G@_STL@@@_STL@@QAE@XZ
??1?$pair@$$CBHUSAnimationVector@NDb@@@_STL@@QAE@XZ
??1?$pair@$$CBHUSPieceLinks@NDb@@@_STL@@QAE@XZ
??1CAIGeometry@NDb@@MAE@XZ
??1CAISound@NDb@@MAE@XZ
??1CAmbientLight@NDb@@MAE@XZ
??1CAmbientLightReal@NDb@@MAE@XZ
??1CAnimLight@NDb@@MAE@XZ
??1CAnimWeaponType@NDb@@MAE@XZ
??1CAnimation@NDb@@MAE@XZ
??1CAttribute@NDb@@MAE@XZ
??1CBRDF@NDb@@MAE@XZ
??1CChapterMap@NDb@@MAE@XZ
??1CComplexHead@NDb@@MAE@XZ
??1CConstructionPart@NDb@@MAE@XZ
??1CContainer@NDb@@MAE@XZ
??1CContainerModel@NDb@@MAE@XZ
??1CCubeTexture@NDb@@MAE@XZ
??1CDBAck@NDb@@MAE@XZ
??1CDBAckInfo@NDb@@MAE@XZ
??1CDBAckSequence@NDb@@MAE@XZ
??1CDBAutoLoadScript@NDb@@MAE@XZ
??1CDBCamera@NDb@@MAE@XZ
??1CDBDialog@NDb@@MAE@XZ
??1CDBDialogPers@NDb@@MAE@XZ
??1CDBDialogSeq@NDb@@MAE@XZ
??1CDBDifficulty@NDb@@MAE@XZ
??1CDBDiplomacy@NDb@@MAE@XZ
??1CDBMinesConstants@NDb@@MAE@XZ
??1CDBPerk@NDb@@MAE@XZ
??1CDBPerkTreeNode@NDb@@MAE@XZ
??1CDBRecord@@UAE@XZ
??1CDBScenario@NDb@@MAE@XZ
??1CDBScenarioClue@NDb@@MAE@XZ
??1CDBScenarioObjective2Clue@NDb@@MAE@XZ
??1CDBScenarioObjective@NDb@@MAE@XZ
??1CDBScenarioState@NDb@@MAE@XZ
??1CDBScenarioZone@NDb@@MAE@XZ
??1CDebris@NDb@@MAE@XZ
??1CDebrisMaterial@NDb@@MAE@XZ
??1CDoor@NDb@@MAE@XZ
??1CEffect@NDb@@MAE@XZ
??1CExplosion@NDb@@MAE@XZ
??1CFinalElement@NDb@@MAE@XZ
??1CFloor@NDb@@MAE@XZ
??1CFloorModel@NDb@@MAE@XZ
??1CGeometry@NDb@@MAE@XZ
??1CGlobalMap@NDb@@MAE@XZ
??1CGrass@NDb@@MAE@XZ
??1CGun@NDb@@MAE@XZ
??1CHead@NDb@@MAE@XZ
??1CIntermediateFloor@NDb@@MAE@XZ
??1CIntermediateSolid@NDb@@MAE@XZ
??1CLightInstance@NDb@@MAE@XZ
??1CMaterial@NDb@@MAE@XZ
??1CModel@NDb@@MAE@XZ
??1CMusic@NDb@@MAE@XZ
??1CNationality@NDb@@MAE@XZ
??1CObject@NDb@@MAE@XZ
??1CObjectBase@@MAE@XZ
??1CPanzerklein@NDb@@MAE@XZ
??1CParticle@NDb@@MAE@XZ
??1CParticleInstance@NDb@@MAE@XZ
??1CPassageObject@NDb@@MAE@XZ
??1CPlacableObject@NDb@@MAE@XZ
??1CRPGAISoundConstants@NDb@@MAE@XZ
??1CRPGAmmo@NDb@@MAE@XZ
??1CRPGArmor@NDb@@MAE@XZ
??1CRPGBaseValue@NDb@@MAE@XZ
??1CRPGClass@NDb@@MAE@XZ
??1CRPGClip4Pers@NDb@@MAE@XZ
??1CRPGClip@NDb@@MAE@XZ
??1CRPGCritical@NDb@@MAE@XZ
??1CRPGDmgToArmor@NDb@@MAE@XZ
??1CRPGFirstAid@NDb@@MAE@XZ
??1CRPGGrenade@NDb@@MAE@XZ
??1CRPGInterruptsConstants@NDb@@MAE@XZ
??1CRPGItem2Uniform@NDb@@MAE@XZ
??1CRPGItem@NDb@@MAE@XZ
??1CRPGKey@NDb@@MAE@XZ
??1CRPGLink4Pers@NDb@@UAE@XZ
??1CRPGMaterial@NDb@@MAE@XZ
??1CRPGMeleeWeapon@NDb@@MAE@XZ
??1CRPGMine@NDb@@MAE@XZ
??1CRPGMineDetector@NDb@@MAE@XZ
??1CRPGPers@NDb@@MAE@XZ
??1CRPGStoreItem@NDb@@MAE@XZ
??1CRPGToHit@NDb@@MAE@XZ
??1CRPGTool@NDb@@MAE@XZ
??1CRPGUniform@NDb@@MAE@XZ
??1CRPGWeapon@NDb@@MAE@XZ
??1CRPGWeaponType@NDb@@MAE@XZ
??1CRectangle@NDb@@MAE@XZ
??1CRndConstructionPart@NDb@@MAE@XZ
??1CRndContainerModel@NDb@@MAE@XZ
??1CRndModel@NDb@@MAE@XZ
??1CRndObject@NDb@@MAE@XZ
??1CRndTerrainSpot@NDb@@MAE@XZ
??1CRoom@NDb@@MAE@XZ
??1CRoulette@@QAE@XZ
??1CScript@NDb@@MAE@XZ
??1CSequence@NDb@@MAE@XZ
??1CSide@NDb@@MAE@XZ
??1CSkeleton@NDb@@MAE@XZ
??1CSolid@NDb@@MAE@XZ
??1CSolidModel@NDb@@MAE@XZ
??1CSound@NDb@@MAE@XZ
??1CSoundEffect@NDb@@MAE@XZ
??1CSoundInstance@NDb@@MAE@XZ
??1CSoundVariant@NDb@@MAE@XZ
??1CSpot@NDb@@MAE@XZ
??1CString@NDb@@MAE@XZ
??1CTAmbientLight@NDb@@MAE@XZ
??1CTConstructionPart@NDb@@MAE@XZ
??1CTEffect@NDb@@MAE@XZ
??1CTMaterial@NDb@@MAE@XZ
??1CTRndModel@NDb@@MAE@XZ
??1CTRndObject@NDb@@MAE@XZ
??1CTSound@NDb@@MAE@XZ
??1CTemplVariant@NDb@@MAE@XZ
??1CTemplate@NDb@@MAE@XZ
??1CTerrainSpot@NDb@@MAE@XZ
??1CTerrainTile@NDb@@MAE@XZ
??1CTexture@NDb@@MAE@XZ
??1CTranslatedString@NDb@@MAE@XZ
??1CTypeface@NDb@@MAE@XZ
??1CUIContainer@NDb@@MAE@XZ
??1CUIControl@NDb@@MAE@XZ
??1CUITexture@NDb@@MAE@XZ
??1CUnit@NDb@@MAE@XZ
??1CUnitGroup@NDb@@MAE@XZ
??1CWall@NDb@@MAE@XZ
??1CWallModel@NDb@@MAE@XZ
??1CWaypoint@NDb@@MAE@XZ
??1CWaypointName@NDb@@MAE@XZ
??1SAckVoice@NDb@@QAE@XZ
??1SAnimationVector@NDb@@QAE@XZ
??1SItemAssign@NDb@@QAE@XZ
??1SPieceLinks@NDb@@QAE@XZ
??1SUniformItem@NDb@@QAE@XZ
??1SVariantFlags@NDb@@QAE@XZ
??2@YAPAXIPAX@Z
??3@YAXPAX0@Z
??4?$CDBPtr@VCCubeTexture@NDb@@@@QAEAAV0@PAVCCubeTexture@NDb@@@Z
??4?$CDBPtr@VCDebrisMaterial@NDb@@@@QAEAAV0@PAVCDebrisMaterial@NDb@@@Z
??4?$CDBPtr@VCDoor@NDb@@@@QAEAAV0@PAVCDoor@NDb@@@Z
??4?$CDBPtr@VCEffect@NDb@@@@QAEAAV0@PAVCEffect@NDb@@@Z
??4?$CDBPtr@VCGeometry@NDb@@@@QAEAAV0@PAVCGeometry@NDb@@@Z
??4?$CDBPtr@VCGun@NDb@@@@QAEAAV0@PAVCGun@NDb@@@Z
??4?$CDBPtr@VCMaterial@NDb@@@@QAEAAV0@PAVCMaterial@NDb@@@Z
??4?$CDBPtr@VCPassageObject@NDb@@@@QAEAAV0@PAVCPassageObject@NDb@@@Z
??4?$CDBPtr@VCRPGArmor@NDb@@@@QAEAAV0@PAVCRPGArmor@NDb@@@Z
??4?$CDBPtr@VCSkeleton@NDb@@@@QAEAAV0@PAVCSkeleton@NDb@@@Z
??4?$CDBPtr@VCSoundEffect@NDb@@@@QAEAAV0@PAVCSoundEffect@NDb@@@Z
??4?$CDBPtr@VCTSound@NDb@@@@QAEAAV0@PAVCTSound@NDb@@@Z
??4?$CDBPtr@VCTexture@NDb@@@@QAEAAV0@PAVCTexture@NDb@@@Z
??4SAckVoice@NDb@@QAEAAU01@ABU01@@Z
??4SItemAssign@NDb@@QAEAAU01@ABU01@@Z
??4SPieceLinks@NDb@@QAEAAU01@ABU01@@Z
??4SUniformItem@NDb@@QAEAAU01@ABU01@@Z
??4SVariantFlags@NDb@@QAEAAU01@ABU01@@Z
??ASRPGSkills@NDb@@QAEAAHH@Z
??D@YA?BVCVec3@@MABV0@@Z
??I?$CDBPtr@VCCubeTexture@NDb@@@@QAEHAAVCStructureSaver@@@Z
??I?$CDBPtr@VCDebrisMaterial@NDb@@@@QAEHAAVCStructureSaver@@@Z
??I?$CDBPtr@VCDoor@NDb@@@@QAEHAAVCStructureSaver@@@Z
??I?$CDBPtr@VCEffect@NDb@@@@QAEHAAVCStructureSaver@@@Z
??I?$CDBPtr@VCGeometry@NDb@@@@QAEHAAVCStructureSaver@@@Z
??I?$CDBPtr@VCGun@NDb@@@@QAEHAAVCStructureSaver@@@Z
??I?$CDBPtr@VCMaterial@NDb@@@@QAEHAAVCStructureSaver@@@Z
??I?$CDBPtr@VCPassageObject@NDb@@@@QAEHAAVCStructureSaver@@@Z
??I?$CDBPtr@VCRPGArmor@NDb@@@@QAEHAAVCStructureSaver@@@Z
??I?$CDBPtr@VCSkeleton@NDb@@@@QAEHAAVCStructureSaver@@@Z
??I?$CDBPtr@VCSoundEffect@NDb@@@@QAEHAAVCStructureSaver@@@Z
??I?$CDBPtr@VCTSound@NDb@@@@QAEHAAVCStructureSaver@@@Z
??I?$CDBPtr@VCTexture@NDb@@@@QAEHAAVCStructureSaver@@@Z
??I?$CRPGSomethingForPers@VCRPGFirstAid@NDb@@@NDb@@UAEHAAVCStructureSaver@@@Z
??I?$CRPGSomethingForPers@VCRPGGrenade@NDb@@@NDb@@UAEHAAVCStructureSaver@@@Z
??I?$CRPGSomethingForPers@VCRPGKey@NDb@@@NDb@@UAEHAAVCStructureSaver@@@Z
??I?$CRPGSomethingForPers@VCRPGMeleeWeapon@NDb@@@NDb@@UAEHAAVCStructureSaver@@@Z
??I?$CRPGSomethingForPers@VCRPGMine@NDb@@@NDb@@UAEHAAVCStructureSaver@@@Z
??I?$CRPGSomethingForPers@VCRPGMineDetector@NDb@@@NDb@@UAEHAAVCStructureSaver@@@Z
??I?$CRPGSomethingForPers@VCRPGTool@NDb@@@NDb@@UAEHAAVCStructureSaver@@@Z
??I?$CRPGSomethingForPers@VCRPGWeapon@NDb@@@NDb@@UAEHAAVCStructureSaver@@@Z
??I?$CRndPtr@VCAmbientLight@NDb@@@@UAEHAAVCStructureSaver@@@Z
??I?$CRndPtr@VCEffect@NDb@@@@UAEHAAVCStructureSaver@@@Z
??I?$CRndPtr@VCMaterial@NDb@@@@UAEHAAVCStructureSaver@@@Z
??I?$CRndPtr@VCRndConstructionPart@NDb@@@@UAEHAAVCStructureSaver@@@Z
??I?$CRndPtr@VCRndModel@NDb@@@@UAEHAAVCStructureSaver@@@Z
??I?$CRndPtr@VCRndObject@NDb@@@@UAEHAAVCStructureSaver@@@Z
??I?$CRndPtr@VCSoundVariant@NDb@@@@UAEHAAVCStructureSaver@@@Z
??I?$CRndPtr@VCTemplVariant@NDb@@@@UAEHAAVCStructureSaver@@@Z
??I?$SSwitch@VCTEffect@NDb@@$03@CRPGGrenade@NDb@@QAEHAAVCStructureSaver@@@Z
??I?$SSwitch@VCTSound@NDb@@$03@CRPGGrenade@NDb@@QAEHAAVCStructureSaver@@@Z
??ICAIGeometry@NDb@@UAEHAAVCStructureSaver@@@Z
??ICAISound@NDb@@UAEHAAVCStructureSaver@@@Z
??ICAmbientLight@NDb@@UAEHAAVCStructureSaver@@@Z
??ICAmbientLightReal@NDb@@UAEHAAVCStructureSaver@@@Z
??ICAnimLight@NDb@@UAEHAAVCStructureSaver@@@Z
??ICAnimWeaponType@NDb@@UAEHAAVCStructureSaver@@@Z
??ICAnimation@NDb@@UAEHAAVCStructureSaver@@@Z
??ICAttribute@NDb@@UAEHAAVCStructureSaver@@@Z
??ICBRDF@NDb@@UAEHAAVCStructureSaver@@@Z
??ICChapterMap@NDb@@UAEHAAVCStructureSaver@@@Z
??ICComplexHead@NDb@@UAEHAAVCStructureSaver@@@Z
??ICConstructionPart@NDb@@UAEHAAVCStructureSaver@@@Z
??ICContainer@NDb@@UAEHAAVCStructureSaver@@@Z
??ICContainerModel@NDb@@UAEHAAVCStructureSaver@@@Z
??ICCubeTexture@NDb@@UAEHAAVCStructureSaver@@@Z
??ICDBAck@NDb@@UAEHAAVCStructureSaver@@@Z
??ICDBAckInfo@NDb@@UAEHAAVCStructureSaver@@@Z
??ICDBAckSequence@NDb@@UAEHAAVCStructureSaver@@@Z
??ICDBAutoLoadScript@NDb@@UAEHAAVCStructureSaver@@@Z
??ICDBCamera@NDb@@UAEHAAVCStructureSaver@@@Z
??ICDBDialog@NDb@@UAEHAAVCStructureSaver@@@Z
??ICDBDialogPers@NDb@@UAEHAAVCStructureSaver@@@Z
??ICDBDialogSeq@NDb@@UAEHAAVCStructureSaver@@@Z
??ICDBDifficulty@NDb@@UAEHAAVCStructureSaver@@@Z
??ICDBDiplomacy@NDb@@UAEHAAVCStructureSaver@@@Z
??ICDBMinesConstants@NDb@@UAEHAAVCStructureSaver@@@Z
??ICDBPerk@NDb@@UAEHAAVCStructureSaver@@@Z
??ICDBPerkTreeNode@NDb@@UAEHAAVCStructureSaver@@@Z
??ICDBRecord@@UAEHAAVCStructureSaver@@@Z
??ICDBScenario@NDb@@UAEHAAVCStructureSaver@@@Z
??ICDBScenarioClue@NDb@@UAEHAAVCStructureSaver@@@Z
??ICDBScenarioObjective2Clue@NDb@@UAEHAAVCStructureSaver@@@Z
??ICDBScenarioObjective@NDb@@UAEHAAVCStructureSaver@@@Z
??ICDBScenarioState@NDb@@UAEHAAVCStructureSaver@@@Z
??ICDBScenarioZone@NDb@@UAEHAAVCStructureSaver@@@Z
??ICDebris@NDb@@UAEHAAVCStructureSaver@@@Z
??ICDebrisMaterial@NDb@@UAEHAAVCStructureSaver@@@Z
??ICDoor@NDb@@UAEHAAVCStructureSaver@@@Z
??ICEffect@NDb@@UAEHAAVCStructureSaver@@@Z
??ICExplosion@NDb@@UAEHAAVCStructureSaver@@@Z
??ICFinalElement@NDb@@UAEHAAVCStructureSaver@@@Z
??ICFloor@NDb@@UAEHAAVCStructureSaver@@@Z
??ICFloorModel@NDb@@UAEHAAVCStructureSaver@@@Z
??ICGeometry@NDb@@UAEHAAVCStructureSaver@@@Z
??ICGlobalMap@NDb@@UAEHAAVCStructureSaver@@@Z
??ICGrass@NDb@@UAEHAAVCStructureSaver@@@Z
??ICGun@NDb@@UAEHAAVCStructureSaver@@@Z
??ICHead@NDb@@UAEHAAVCStructureSaver@@@Z
??ICLightInstance@NDb@@UAEHAAVCStructureSaver@@@Z
??ICMaterial@NDb@@UAEHAAVCStructureSaver@@@Z
??ICModel@NDb@@UAEHAAVCStructureSaver@@@Z
??ICMusic@NDb@@UAEHAAVCStructureSaver@@@Z
??ICNationality@NDb@@UAEHAAVCStructureSaver@@@Z
??ICObject@NDb@@UAEHAAVCStructureSaver@@@Z
??ICObjectBase@@UAEHAAVCStructureSaver@@@Z
??ICPanzerklein@NDb@@UAEHAAVCStructureSaver@@@Z
??ICParticle@NDb@@UAEHAAVCStructureSaver@@@Z
??ICParticleInstance@NDb@@UAEHAAVCStructureSaver@@@Z
??ICPassageObject@NDb@@UAEHAAVCStructureSaver@@@Z
??ICPlacableObject@NDb@@UAEHAAVCStructureSaver@@@Z
??ICRPGAISoundConstants@NDb@@UAEHAAVCStructureSaver@@@Z
??ICRPGAmmo@NDb@@UAEHAAVCStructureSaver@@@Z
??ICRPGArmor@NDb@@UAEHAAVCStructureSaver@@@Z
??ICRPGBaseValue@NDb@@UAEHAAVCStructureSaver@@@Z
??ICRPGClass@NDb@@UAEHAAVCStructureSaver@@@Z
??ICRPGClip4Pers@NDb@@UAEHAAVCStructureSaver@@@Z
??ICRPGClip@NDb@@UAEHAAVCStructureSaver@@@Z
??ICRPGCritical@NDb@@UAEHAAVCStructureSaver@@@Z
??ICRPGDmgToArmor@NDb@@UAEHAAVCStructureSaver@@@Z
??ICRPGFirstAid@NDb@@UAEHAAVCStructureSaver@@@Z
??ICRPGGrenade@NDb@@UAEHAAVCStructureSaver@@@Z
??ICRPGInterruptsConstants@NDb@@UAEHAAVCStructureSaver@@@Z
??ICRPGItem2Uniform@NDb@@UAEHAAVCStructureSaver@@@Z
??ICRPGItem@NDb@@UAEHAAVCStructureSaver@@@Z
??ICRPGKey@NDb@@UAEHAAVCStructureSaver@@@Z
??ICRPGLink4Pers@NDb@@UAEHAAVCStructureSaver@@@Z
??ICRPGMaterial@NDb@@UAEHAAVCStructureSaver@@@Z
??ICRPGMeleeWeapon@NDb@@UAEHAAVCStructureSaver@@@Z
??ICRPGMine@NDb@@UAEHAAVCStructureSaver@@@Z
??ICRPGMineDetector@NDb@@UAEHAAVCStructureSaver@@@Z
??ICRPGPers@NDb@@UAEHAAVCStructureSaver@@@Z
??ICRPGStoreItem@NDb@@UAEHAAVCStructureSaver@@@Z
??ICRPGToHit@NDb@@UAEHAAVCStructureSaver@@@Z
??ICRPGTool@NDb@@UAEHAAVCStructureSaver@@@Z
??ICRPGUniform@NDb@@UAEHAAVCStructureSaver@@@Z
??ICRPGWeapon@NDb@@UAEHAAVCStructureSaver@@@Z
??ICRPGWeaponType@NDb@@UAEHAAVCStructureSaver@@@Z
??ICRectangle@NDb@@UAEHAAVCStructureSaver@@@Z
??ICRndConstructionPart@NDb@@UAEHAAVCStructureSaver@@@Z
??ICRndContainerModel@NDb@@UAEHAAVCStructureSaver@@@Z
??ICRndModel@NDb@@UAEHAAVCStructureSaver@@@Z
??ICRndObject@NDb@@UAEHAAVCStructureSaver@@@Z
??ICRndTerrainSpot@NDb@@UAEHAAVCStructureSaver@@@Z
??ICRoom@NDb@@UAEHAAVCStructureSaver@@@Z
??ICScript@NDb@@UAEHAAVCStructureSaver@@@Z
??ICSequence@NDb@@UAEHAAVCStructureSaver@@@Z
??ICSide@NDb@@UAEHAAVCStructureSaver@@@Z
??ICSkeleton@NDb@@UAEHAAVCStructureSaver@@@Z
??ICSolid@NDb@@UAEHAAVCStructureSaver@@@Z
??ICSolidModel@NDb@@UAEHAAVCStructureSaver@@@Z
??ICSound@NDb@@UAEHAAVCStructureSaver@@@Z
??ICSoundEffect@NDb@@UAEHAAVCStructureSaver@@@Z
??ICSoundInstance@NDb@@UAEHAAVCStructureSaver@@@Z
??ICSoundVariant@NDb@@UAEHAAVCStructureSaver@@@Z
??ICSpot@NDb@@UAEHAAVCStructureSaver@@@Z
??ICString@NDb@@UAEHAAVCStructureSaver@@@Z
??ICTRndObject@NDb@@UAEHAAVCStructureSaver@@@Z
??ICTemplVariant@NDb@@UAEHAAVCStructureSaver@@@Z
??ICTemplate@NDb@@UAEHAAVCStructureSaver@@@Z
??ICTerrainSpot@NDb@@UAEHAAVCStructureSaver@@@Z
??ICTerrainTile@NDb@@UAEHAAVCStructureSaver@@@Z
??ICTexture@NDb@@UAEHAAVCStructureSaver@@@Z
??ICTranslatedString@NDb@@UAEHAAVCStructureSaver@@@Z
??ICTypeface@NDb@@UAEHAAVCStructureSaver@@@Z
??ICUIContainer@NDb@@UAEHAAVCStructureSaver@@@Z
??ICUIControl@NDb@@UAEHAAVCStructureSaver@@@Z
??ICUITexture@NDb@@UAEHAAVCStructureSaver@@@Z
??ICUnit@NDb@@UAEHAAVCStructureSaver@@@Z
??ICUnitGroup@NDb@@UAEHAAVCStructureSaver@@@Z
??ICWall@NDb@@UAEHAAVCStructureSaver@@@Z
??ICWallModel@NDb@@UAEHAAVCStructureSaver@@@Z
??ICWaypoint@NDb@@UAEHAAVCStructureSaver@@@Z
??ICWaypointName@NDb@@UAEHAAVCStructureSaver@@@Z
??ISAISoundConstants@NDb@@QAEHAAVCStructureSaver@@@Z
??ISAckVoice@NDb@@QAEHAAVCStructureSaver@@@Z
??ISAnimationVector@NDb@@QAEHAAVCStructureSaver@@@Z
??ISInterruptsConstants@NDb@@QAEHAAVCStructureSaver@@@Z
??ISItemAssign@NDb@@QAEHAAVCStructureSaver@@@Z
??ISPieceLinks@NDb@@QAEHAAVCStructureSaver@@@Z
??ISToHitConstants@NDb@@QAEHAAVCStructureSaver@@@Z
??ISUniformItem@NDb@@QAEHAAVCStructureSaver@@@Z
??ISVariantFlags@NDb@@QAEHAAVCStructureSaver@@@Z
??R?$_Eq_char_bound@U?$char_traits@D@std@@@_STL@@QBE_NABD@Z
??R?$_Not_within_traits@U?$char_traits@D@std@@@_STL@@QBE_NABD@Z
??R?$_Select1st@U?$pair@$$CBHP6APAVCObjectBase@@XZ@_STL@@@_STL@@QBEABHABU?$pair@$$CBHP6APAVCObjectBase@@XZ@1@@Z
??R?$_Select1st@U?$pair@$$CBHUSAnimationVector@NDb@@@_STL@@@_STL@@QBEABHABU?$pair@$$CBHUSAnimationVector@NDb@@@1@@Z
??R?$_Select1st@U?$pair@$$CBHUSPieceLinks@NDb@@@_STL@@@_STL@@QBEABHABU?$pair@$$CBHUSPieceLinks@NDb@@@1@@Z
??R?$_Select1st@U?$pair@$$CBHV?$CObj@VCDBRecord@@@@@_STL@@@_STL@@QBEABHABU?$pair@$$CBHV?$CObj@VCDBRecord@@@@@1@@Z
??R?$_Select1st@U?$pair@QBVtype_info@@H@_STL@@@_STL@@QBEABQBVtype_info@@ABU?$pair@QBVtype_info@@H@1@@Z
??R?$equal_to@H@_STL@@QBE_NABH0@Z
??R?$equal_to@PBVtype_info@@@_STL@@QBE_NABQBVtype_info@@0@Z
??R?$hash@H@_STL@@QBEIH@Z
??R?$less@H@_STL@@QBE_NABH0@Z
??R?$less@I@_STL@@QBE_NABI0@Z
??R?$pointer_to_unary_function@HH@_STL@@QBEHH@Z
??RSDefaultPtrHash@@QBEHPBX@Z
??YCVec2@@QAEAAV0@ABV0@@Z
??ZCVec3@@QAEAAV0@ABV0@@Z
??_G?$CPtr@VCAmbientLight@NDb@@@@QAEPAXI@Z
??_G?$CPtr@VCAnimation@NDb@@@@QAEPAXI@Z
??_G?$CPtr@VCComplexHead@NDb@@@@QAEPAXI@Z
??_G?$CPtr@VCDBPerk@NDb@@@@QAEPAXI@Z
??_G?$CPtr@VCDBScenarioObjective@NDb@@@@QAEPAXI@Z
??_G?$CPtr@VCDBScenarioZone@NDb@@@@QAEPAXI@Z
??_G?$CPtr@VCDebris@NDb@@@@QAEPAXI@Z
??_G?$CPtr@VCEffect@NDb@@@@QAEPAXI@Z
??_G?$CPtr@VCExplosion@NDb@@@@QAEPAXI@Z
??_G?$CPtr@VCFinalElement@NDb@@@@QAEPAXI@Z
??_G?$CPtr@VCLightInstance@NDb@@@@QAEPAXI@Z
??_G?$CPtr@VCMaterial@NDb@@@@QAEPAXI@Z
??_G?$CPtr@VCParticleInstance@NDb@@@@QAEPAXI@Z
??_G?$CPtr@VCRPGPers@NDb@@@@QAEPAXI@Z
??_G?$CPtr@VCRectangle@NDb@@@@QAEPAXI@Z
??_G?$CPtr@VCRndConstructionPart@NDb@@@@QAEPAXI@Z
??_G?$CPtr@VCRndModel@NDb@@@@QAEPAXI@Z
??_G?$CPtr@VCRndObject@NDb@@@@QAEPAXI@Z
??_G?$CPtr@VCRndTerrainSpot@NDb@@@@QAEPAXI@Z
??_G?$CPtr@VCScript@NDb@@@@QAEPAXI@Z
??_G?$CPtr@VCSoundInstance@NDb@@@@QAEPAXI@Z
??_G?$CPtr@VCSoundVariant@NDb@@@@QAEPAXI@Z
??_G?$CPtr@VCTRndModel@NDb@@@@QAEPAXI@Z
??_G?$CPtr@VCTemplVariant@NDb@@@@QAEPAXI@Z
??_G?$CPtr@VCUIControl@NDb@@@@QAEPAXI@Z
??_G?$CPtr@VCUnit@NDb@@@@QAEPAXI@Z
??_G?$CPtr@VCWaypoint@NDb@@@@QAEPAXI@Z
??_G?$CRPGSomethingForPers@VCRPGFirstAid@NDb@@@NDb@@MAEPAXI@Z
??_G?$CRPGSomethingForPers@VCRPGGrenade@NDb@@@NDb@@MAEPAXI@Z
??_G?$CRPGSomethingForPers@VCRPGKey@NDb@@@NDb@@MAEPAXI@Z
??_G?$CRPGSomethingForPers@VCRPGMeleeWeapon@NDb@@@NDb@@MAEPAXI@Z
??_G?$CRPGSomethingForPers@VCRPGMine@NDb@@@NDb@@MAEPAXI@Z
??_G?$CRPGSomethingForPers@VCRPGMineDetector@NDb@@@NDb@@MAEPAXI@Z
??_G?$CRPGSomethingForPers@VCRPGTool@NDb@@@NDb@@MAEPAXI@Z
??_G?$CRPGSomethingForPers@VCRPGWeapon@NDb@@@NDb@@MAEPAXI@Z
??_G?$CRndPtr@VCAmbientLight@NDb@@@@UAEPAXI@Z
??_G?$CRndPtr@VCEffect@NDb@@@@UAEPAXI@Z
??_G?$CRndPtr@VCMaterial@NDb@@@@UAEPAXI@Z
??_G?$CRndPtr@VCRndConstructionPart@NDb@@@@UAEPAXI@Z
??_G?$CRndPtr@VCRndModel@NDb@@@@UAEPAXI@Z
??_G?$CRndPtr@VCRndObject@NDb@@@@UAEPAXI@Z
??_G?$CRndPtr@VCSoundVariant@NDb@@@@UAEPAXI@Z
??_G?$CRndPtr@VCTemplVariant@NDb@@@@UAEPAXI@Z
??_G?$basic_string@DU?$char_traits@D@std@@V?$allocator@D@_STL@@@_STL@@QAEPAXI@Z
??_G?$pair@$$CBHUSAnimationVector@NDb@@@_STL@@QAEPAXI@Z
??_G?$pair@$$CBHUSPieceLinks@NDb@@@_STL@@QAEPAXI@Z
??_GCAIGeometry@NDb@@MAEPAXI@Z
??_GCAISound@NDb@@MAEPAXI@Z
??_GCAmbientLight@NDb@@MAEPAXI@Z
??_GCAmbientLightReal@NDb@@MAEPAXI@Z
??_GCAnimLight@NDb@@MAEPAXI@Z
??_GCAnimWeaponType@NDb@@MAEPAXI@Z
??_GCAnimation@NDb@@MAEPAXI@Z
??_GCAttribute@NDb@@MAEPAXI@Z
??_GCBRDF@NDb@@MAEPAXI@Z
??_GCChapterMap@NDb@@MAEPAXI@Z
??_GCComplexHead@NDb@@MAEPAXI@Z
??_GCConstructionPart@NDb@@MAEPAXI@Z
??_GCContainer@NDb@@MAEPAXI@Z
??_GCContainerModel@NDb@@MAEPAXI@Z
??_GCCubeTexture@NDb@@MAEPAXI@Z
??_GCDBAck@NDb@@MAEPAXI@Z
??_GCDBAckInfo@NDb@@MAEPAXI@Z
??_GCDBAckSequence@NDb@@MAEPAXI@Z
??_GCDBAutoLoadScript@NDb@@MAEPAXI@Z
??_GCDBCamera@NDb@@MAEPAXI@Z
??_GCDBDialog@NDb@@MAEPAXI@Z
??_GCDBDialogPers@NDb@@MAEPAXI@Z
??_GCDBDialogSeq@NDb@@MAEPAXI@Z
??_GCDBDifficulty@NDb@@MAEPAXI@Z
??_GCDBDiplomacy@NDb@@MAEPAXI@Z
??_GCDBMinesConstants@NDb@@MAEPAXI@Z
??_GCDBPerk@NDb@@MAEPAXI@Z
??_GCDBPerkTreeNode@NDb@@MAEPAXI@Z
??_GCDBRecord@@UAEPAXI@Z
??_GCDBScenario@NDb@@MAEPAXI@Z
??_GCDBScenarioClue@NDb@@MAEPAXI@Z
??_GCDBScenarioObjective2Clue@NDb@@MAEPAXI@Z
??_GCDBScenarioObjective@NDb@@MAEPAXI@Z
??_GCDBScenarioState@NDb@@MAEPAXI@Z
??_GCDBScenarioZone@NDb@@MAEPAXI@Z
??_GCDebris@NDb@@MAEPAXI@Z
??_GCDebrisMaterial@NDb@@MAEPAXI@Z
??_GCDoor@NDb@@MAEPAXI@Z
??_GCEffect@NDb@@MAEPAXI@Z
??_GCExplosion@NDb@@MAEPAXI@Z
??_GCFinalElement@NDb@@MAEPAXI@Z
??_GCFloor@NDb@@MAEPAXI@Z
??_GCFloorModel@NDb@@MAEPAXI@Z
??_GCGeometry@NDb@@MAEPAXI@Z
??_GCGlobalMap@NDb@@MAEPAXI@Z
??_GCGrass@NDb@@MAEPAXI@Z
??_GCGun@NDb@@MAEPAXI@Z
??_GCHead@NDb@@MAEPAXI@Z
??_GCIntermediateFloor@NDb@@MAEPAXI@Z
??_GCIntermediateSolid@NDb@@MAEPAXI@Z
??_GCLightInstance@NDb@@MAEPAXI@Z
??_GCMaterial@NDb@@MAEPAXI@Z
??_GCModel@NDb@@MAEPAXI@Z
??_GCMusic@NDb@@MAEPAXI@Z
??_GCNationality@NDb@@MAEPAXI@Z
??_GCObject@NDb@@MAEPAXI@Z
??_GCObjectBase@@MAEPAXI@Z
??_GCPanzerklein@NDb@@MAEPAXI@Z
??_GCParticle@NDb@@MAEPAXI@Z
??_GCParticleInstance@NDb@@MAEPAXI@Z
??_GCPassageObject@NDb@@MAEPAXI@Z
??_GCPlacableObject@NDb@@MAEPAXI@Z
??_GCRPGAISoundConstants@NDb@@MAEPAXI@Z
??_GCRPGAmmo@NDb@@MAEPAXI@Z
??_GCRPGArmor@NDb@@MAEPAXI@Z
??_GCRPGBaseValue@NDb@@MAEPAXI@Z
??_GCRPGClass@NDb@@MAEPAXI@Z
??_GCRPGClip4Pers@NDb@@MAEPAXI@Z
??_GCRPGClip@NDb@@MAEPAXI@Z
??_GCRPGCritical@NDb@@MAEPAXI@Z
??_GCRPGDmgToArmor@NDb@@MAEPAXI@Z
??_GCRPGFirstAid@NDb@@MAEPAXI@Z
??_GCRPGGrenade@NDb@@MAEPAXI@Z
??_GCRPGInterruptsConstants@NDb@@MAEPAXI@Z
??_GCRPGItem2Uniform@NDb@@MAEPAXI@Z
??_GCRPGItem@NDb@@MAEPAXI@Z
??_GCRPGKey@NDb@@MAEPAXI@Z
??_GCRPGLink4Pers@NDb@@UAEPAXI@Z
??_GCRPGMaterial@NDb@@MAEPAXI@Z
??_GCRPGMeleeWeapon@NDb@@MAEPAXI@Z
??_GCRPGMine@NDb@@MAEPAXI@Z
??_GCRPGMineDetector@NDb@@MAEPAXI@Z
??_GCRPGPers@NDb@@MAEPAXI@Z
??_GCRPGStoreItem@NDb@@MAEPAXI@Z
??_GCRPGToHit@NDb@@MAEPAXI@Z
??_GCRPGTool@NDb@@MAEPAXI@Z
??_GCRPGUniform@NDb@@MAEPAXI@Z
??_GCRPGWeapon@NDb@@MAEPAXI@Z
??_GCRPGWeaponType@NDb@@MAEPAXI@Z
??_GCRectangle@NDb@@MAEPAXI@Z
??_GCRndConstructionPart@NDb@@MAEPAXI@Z
??_GCRndContainerModel@NDb@@MAEPAXI@Z
??_GCRndModel@NDb@@MAEPAXI@Z
??_GCRndObject@NDb@@MAEPAXI@Z
??_GCRndTerrainSpot@NDb@@MAEPAXI@Z
??_GCRoom@NDb@@MAEPAXI@Z
??_GCScript@NDb@@MAEPAXI@Z
??_GCSequence@NDb@@MAEPAXI@Z
??_GCSide@NDb@@MAEPAXI@Z
??_GCSkeleton@NDb@@MAEPAXI@Z
??_GCSolid@NDb@@MAEPAXI@Z
??_GCSolidModel@NDb@@MAEPAXI@Z
??_GCSound@NDb@@MAEPAXI@Z
??_GCSoundEffect@NDb@@MAEPAXI@Z
??_GCSoundInstance@NDb@@MAEPAXI@Z
??_GCSoundVariant@NDb@@MAEPAXI@Z
??_GCSpot@NDb@@MAEPAXI@Z
??_GCString@NDb@@MAEPAXI@Z
??_GCTAmbientLight@NDb@@MAEPAXI@Z
??_GCTConstructionPart@NDb@@MAEPAXI@Z
??_GCTEffect@NDb@@MAEPAXI@Z
??_GCTMaterial@NDb@@MAEPAXI@Z
??_GCTRndModel@NDb@@MAEPAXI@Z
??_GCTRndObject@NDb@@MAEPAXI@Z
??_GCTSound@NDb@@MAEPAXI@Z
??_GCTemplVariant@NDb@@MAEPAXI@Z
??_GCTemplate@NDb@@MAEPAXI@Z
??_GCTerrainSpot@NDb@@MAEPAXI@Z
??_GCTerrainTile@NDb@@MAEPAXI@Z
??_GCTexture@NDb@@MAEPAXI@Z
??_GCTranslatedString@NDb@@MAEPAXI@Z
??_GCTypeface@NDb@@MAEPAXI@Z
??_GCUIContainer@NDb@@MAEPAXI@Z
??_GCUIControl@NDb@@MAEPAXI@Z
??_GCUITexture@NDb@@MAEPAXI@Z
??_GCUnit@NDb@@MAEPAXI@Z
??_GCUnitGroup@NDb@@MAEPAXI@Z
??_GCWall@NDb@@MAEPAXI@Z
??_GCWallModel@NDb@@MAEPAXI@Z
??_GCWaypoint@NDb@@MAEPAXI@Z
??_GCWaypointName@NDb@@MAEPAXI@Z
??_GSAckVoice@NDb@@QAEPAXI@Z
??_GSItemAssign@NDb@@QAEPAXI@Z
??_GSUniformItem@NDb@@QAEPAXI@Z
??_GSVariantFlags@NDb@@QAEPAXI@Z
??_H@YGXPAXIHP6EPAX0@Z@Z
?Add@CStructureSaver@@QAEXDPAHH@Z
?Add@CStructureSaver@@QAEXDPAKH@Z
?Add@CStructureSaver@@QAEXDPAMH@Z
?Add@CStructureSaver@@QAEXDPAU?$SSwitch@VCTEffect@NDb@@$03@CRPGGrenade@NDb@@H@Z
?Add@CStructureSaver@@QAEXDPAU?$SSwitch@VCTSound@NDb@@$03@CRPGGrenade@NDb@@H@Z
?Add@CStructureSaver@@QAEXDPAUSAISoundConstants@NDb@@H@Z
?Add@CStructureSaver@@QAEXDPAUSAckVoice@NDb@@H@Z
?Add@CStructureSaver@@QAEXDPAUSAnimationVector@NDb@@H@Z
?Add@CStructureSaver@@QAEXDPAUSBound@@H@Z
?Add@CStructureSaver@@QAEXDPAUSCameraParams@NDb@@H@Z
?Add@CStructureSaver@@QAEXDPAUSInterruptsConstants@NDb@@H@Z
?Add@CStructureSaver@@QAEXDPAUSItemAssign@NDb@@H@Z
?Add@CStructureSaver@@QAEXDPAUSPieceLinks@NDb@@H@Z
?Add@CStructureSaver@@QAEXDPAUSRPGSkills@NDb@@H@Z
?Add@CStructureSaver@@QAEXDPAUSToHitConstants@NDb@@H@Z
?Add@CStructureSaver@@QAEXDPAUSUniformItem@NDb@@H@Z
?Add@CStructureSaver@@QAEXDPAUSVariantFlags@NDb@@H@Z
?Add@CStructureSaver@@QAEXDPAV?$CDBPtr@VCCubeTexture@NDb@@@@H@Z
?Add@CStructureSaver@@QAEXDPAV?$CDBPtr@VCDebrisMaterial@NDb@@@@H@Z
?Add@CStructureSaver@@QAEXDPAV?$CDBPtr@VCDoor@NDb@@@@H@Z
?Add@CStructureSaver@@QAEXDPAV?$CDBPtr@VCEffect@NDb@@@@H@Z
?Add@CStructureSaver@@QAEXDPAV?$CDBPtr@VCGeometry@NDb@@@@H@Z
?Add@CStructureSaver@@QAEXDPAV?$CDBPtr@VCGun@NDb@@@@H@Z
?Add@CStructureSaver@@QAEXDPAV?$CDBPtr@VCMaterial@NDb@@@@H@Z
?Add@CStructureSaver@@QAEXDPAV?$CDBPtr@VCPassageObject@NDb@@@@H@Z
?Add@CStructureSaver@@QAEXDPAV?$CDBPtr@VCRPGArmor@NDb@@@@H@Z
?Add@CStructureSaver@@QAEXDPAV?$CDBPtr@VCSkeleton@NDb@@@@H@Z
?Add@CStructureSaver@@QAEXDPAV?$CDBPtr@VCSoundEffect@NDb@@@@H@Z
?Add@CStructureSaver@@QAEXDPAV?$CDBPtr@VCTSound@NDb@@@@H@Z
?Add@CStructureSaver@@QAEXDPAV?$CDBPtr@VCTexture@NDb@@@@H@Z
?Add@CStructureSaver@@QAEXDPAV?$CPtr@VCAIGeometry@NDb@@@@H@Z
?Add@CStructureSaver@@QAEXDPAV?$CPtr@VCAISound@NDb@@@@H@Z
?Add@CStructureSaver@@QAEXDPAV?$CPtr@VCAmbientLight@NDb@@@@H@Z
?Add@CStructureSaver@@QAEXDPAV?$CPtr@VCAmbientLightReal@NDb@@@@H@Z
?Add@CStructureSaver@@QAEXDPAV?$CPtr@VCAnimLight@NDb@@@@H@Z
?Add@CStructureSaver@@QAEXDPAV?$CPtr@VCAnimWeaponType@NDb@@@@H@Z
?Add@CStructureSaver@@QAEXDPAV?$CPtr@VCAnimation@NDb@@@@H@Z
?Add@CStructureSaver@@QAEXDPAV?$CPtr@VCBRDF@NDb@@@@H@Z
?Add@CStructureSaver@@QAEXDPAV?$CPtr@VCComplexHead@NDb@@@@H@Z
?Add@CStructureSaver@@QAEXDPAV?$CPtr@VCContainerModel@NDb@@@@H@Z
?Add@CStructureSaver@@QAEXDPAV?$CPtr@VCCubeTexture@NDb@@@@H@Z
?Add@CStructureSaver@@QAEXDPAV?$CPtr@VCDBAckInfo@NDb@@@@H@Z
?Add@CStructureSaver@@QAEXDPAV?$CPtr@VCDBAckSequence@NDb@@@@H@Z
?Add@CStructureSaver@@QAEXDPAV?$CPtr@VCDBDialogPers@NDb@@@@H@Z
?Add@CStructureSaver@@QAEXDPAV?$CPtr@VCDBDiplomacy@NDb@@@@H@Z
?Add@CStructureSaver@@QAEXDPAV?$CPtr@VCDBPerk@NDb@@@@H@Z
?Add@CStructureSaver@@QAEXDPAV?$CPtr@VCDBRecord@@@@H@Z
?Add@CStructureSaver@@QAEXDPAV?$CPtr@VCDBScenario@NDb@@@@H@Z
?Add@CStructureSaver@@QAEXDPAV?$CPtr@VCDBScenarioClue@NDb@@@@H@Z
?Add@CStructureSaver@@QAEXDPAV?$CPtr@VCDBScenarioObjective@NDb@@@@H@Z
?Add@CStructureSaver@@QAEXDPAV?$CPtr@VCDBScenarioState@NDb@@@@H@Z
?Add@CStructureSaver@@QAEXDPAV?$CPtr@VCDBScenarioZone@NDb@@@@H@Z
?Add@CStructureSaver@@QAEXDPAV?$CPtr@VCDebris@NDb@@@@H@Z
?Add@CStructureSaver@@QAEXDPAV?$CPtr@VCDebrisMaterial@NDb@@@@H@Z
?Add@CStructureSaver@@QAEXDPAV?$CPtr@VCDoor@NDb@@@@H@Z
?Add@CStructureSaver@@QAEXDPAV?$CPtr@VCEffect@NDb@@@@H@Z
?Add@CStructureSaver@@QAEXDPAV?$CPtr@VCExplosion@NDb@@@@H@Z
?Add@CStructureSaver@@QAEXDPAV?$CPtr@VCFinalElement@NDb@@@@H@Z
?Add@CStructureSaver@@QAEXDPAV?$CPtr@VCFloorModel@NDb@@@@H@Z
?Add@CStructureSaver@@QAEXDPAV?$CPtr@VCGeometry@NDb@@@@H@Z
?Add@CStructureSaver@@QAEXDPAV?$CPtr@VCGun@NDb@@@@H@Z
?Add@CStructureSaver@@QAEXDPAV?$CPtr@VCHead@NDb@@@@H@Z
?Add@CStructureSaver@@QAEXDPAV?$CPtr@VCLightInstance@NDb@@@@H@Z
?Add@CStructureSaver@@QAEXDPAV?$CPtr@VCMaterial@NDb@@@@H@Z
?Add@CStructureSaver@@QAEXDPAV?$CPtr@VCModel@NDb@@@@H@Z
?Add@CStructureSaver@@QAEXDPAV?$CPtr@VCMusic@NDb@@@@H@Z
?Add@CStructureSaver@@QAEXDPAV?$CPtr@VCNationality@NDb@@@@H@Z
?Add@CStructureSaver@@QAEXDPAV?$CPtr@VCObject@NDb@@@@H@Z
?Add@CStructureSaver@@QAEXDPAV?$CPtr@VCPanzerklein@NDb@@@@H@Z
?Add@CStructureSaver@@QAEXDPAV?$CPtr@VCParticle@NDb@@@@H@Z
?Add@CStructureSaver@@QAEXDPAV?$CPtr@VCParticleInstance@NDb@@@@H@Z
?Add@CStructureSaver@@QAEXDPAV?$CPtr@VCPassageObject@NDb@@@@H@Z
?Add@CStructureSaver@@QAEXDPAV?$CPtr@VCPlacableObject@NDb@@@@H@Z
?Add@CStructureSaver@@QAEXDPAV?$CPtr@VCRPGAmmo@NDb@@@@H@Z
?Add@CStructureSaver@@QAEXDPAV?$CPtr@VCRPGArmor@NDb@@@@H@Z
?Add@CStructureSaver@@QAEXDPAV?$CPtr@VCRPGBaseValue@NDb@@@@H@Z
?Add@CStructureSaver@@QAEXDPAV?$CPtr@VCRPGClass@NDb@@@@H@Z
?Add@CStructureSaver@@QAEXDPAV?$CPtr@VCRPGClip@NDb@@@@H@Z
?Add@CStructureSaver@@QAEXDPAV?$CPtr@VCRPGFirstAid@NDb@@@@H@Z
?Add@CStructureSaver@@QAEXDPAV?$CPtr@VCRPGGrenade@NDb@@@@H@Z
?Add@CStructureSaver@@QAEXDPAV?$CPtr@VCRPGItem@NDb@@@@H@Z
?Add@CStructureSaver@@QAEXDPAV?$CPtr@VCRPGKey@NDb@@@@H@Z
?Add@CStructureSaver@@QAEXDPAV?$CPtr@VCRPGMaterial@NDb@@@@H@Z
?Add@CStructureSaver@@QAEXDPAV?$CPtr@VCRPGMeleeWeapon@NDb@@@@H@Z
?Add@CStructureSaver@@QAEXDPAV?$CPtr@VCRPGMine@NDb@@@@H@Z
?Add@CStructureSaver@@QAEXDPAV?$CPtr@VCRPGMineDetector@NDb@@@@H@Z
?Add@CStructureSaver@@QAEXDPAV?$CPtr@VCRPGPers@NDb@@@@H@Z
?Add@CStructureSaver@@QAEXDPAV?$CPtr@VCRPGTool@NDb@@@@H@Z
?Add@CStructureSaver@@QAEXDPAV?$CPtr@VCRPGUniform@NDb@@@@H@Z
?Add@CStructureSaver@@QAEXDPAV?$CPtr@VCRPGWeapon@NDb@@@@H@Z
?Add@CStructureSaver@@QAEXDPAV?$CPtr@VCRPGWeaponType@NDb@@@@H@Z
?Add@CStructureSaver@@QAEXDPAV?$CPtr@VCRectangle@NDb@@@@H@Z
?Add@CStructureSaver@@QAEXDPAV?$CPtr@VCRndConstructionPart@NDb@@@@H@Z
?Add@CStructureSaver@@QAEXDPAV?$CPtr@VCRndContainerModel@NDb@@@@H@Z
?Add@CStructureSaver@@QAEXDPAV?$CPtr@VCRndModel@NDb@@@@H@Z
?Add@CStructureSaver@@QAEXDPAV?$CPtr@VCRndObject@NDb@@@@H@Z
?Add@CStructureSaver@@QAEXDPAV?$CPtr@VCRndTerrainSpot@NDb@@@@H@Z
?Add@CStructureSaver@@QAEXDPAV?$CPtr@VCScript@NDb@@@@H@Z
?Add@CStructureSaver@@QAEXDPAV?$CPtr@VCSequence@NDb@@@@H@Z
?Add@CStructureSaver@@QAEXDPAV?$CPtr@VCSide@NDb@@@@H@Z
?Add@CStructureSaver@@QAEXDPAV?$CPtr@VCSkeleton@NDb@@@@H@Z
?Add@CStructureSaver@@QAEXDPAV?$CPtr@VCSolidModel@NDb@@@@H@Z
?Add@CStructureSaver@@QAEXDPAV?$CPtr@VCSound@NDb@@@@H@Z
?Add@CStructureSaver@@QAEXDPAV?$CPtr@VCSoundEffect@NDb@@@@H@Z
?Add@CStructureSaver@@QAEXDPAV?$CPtr@VCSoundInstance@NDb@@@@H@Z
?Add@CStructureSaver@@QAEXDPAV?$CPtr@VCSoundVariant@NDb@@@@H@Z
?Add@CStructureSaver@@QAEXDPAV?$CPtr@VCSpot@NDb@@@@H@Z
?Add@CStructureSaver@@QAEXDPAV?$CPtr@VCString@NDb@@@@H@Z
?Add@CStructureSaver@@QAEXDPAV?$CPtr@VCTAmbientLight@NDb@@@@H@Z
?Add@CStructureSaver@@QAEXDPAV?$CPtr@VCTConstructionPart@NDb@@@@H@Z
?Add@CStructureSaver@@QAEXDPAV?$CPtr@VCTEffect@NDb@@@@H@Z
?Add@CStructureSaver@@QAEXDPAV?$CPtr@VCTMaterial@NDb@@@@H@Z
?Add@CStructureSaver@@QAEXDPAV?$CPtr@VCTRndModel@NDb@@@@H@Z
?Add@CStructureSaver@@QAEXDPAV?$CPtr@VCTRndObject@NDb@@@@H@Z
?Add@CStructureSaver@@QAEXDPAV?$CPtr@VCTSound@NDb@@@@H@Z
?Add@CStructureSaver@@QAEXDPAV?$CPtr@VCTemplVariant@NDb@@@@H@Z
?Add@CStructureSaver@@QAEXDPAV?$CPtr@VCTemplate@NDb@@@@H@Z
?Add@CStructureSaver@@QAEXDPAV?$CPtr@VCTexture@NDb@@@@H@Z
?Add@CStructureSaver@@QAEXDPAV?$CPtr@VCUIContainer@NDb@@@@H@Z
?Add@CStructureSaver@@QAEXDPAV?$CPtr@VCUIControl@NDb@@@@H@Z
?Add@CStructureSaver@@QAEXDPAV?$CPtr@VCUITexture@NDb@@@@H@Z
?Add@CStructureSaver@@QAEXDPAV?$CPtr@VCUnit@NDb@@@@H@Z
?Add@CStructureSaver@@QAEXDPAV?$CPtr@VCUnitGroup@NDb@@@@H@Z
?Add@CStructureSaver@@QAEXDPAV?$CPtr@VCWallModel@NDb@@@@H@Z
?Add@CStructureSaver@@QAEXDPAV?$CPtr@VCWaypoint@NDb@@@@H@Z
?Add@CStructureSaver@@QAEXDPAV?$CPtr@VCWaypointName@NDb@@@@H@Z
?Add@CStructureSaver@@QAEXDPAV?$CRndPtr@VCRndObject@NDb@@@@H@Z
?Add@CStructureSaver@@QAEXDPAV?$CRndPtr@VCTemplVariant@NDb@@@@H@Z
?Add@CStructureSaver@@QAEXDPAV?$CTPoint@H@@H@Z
?Add@CStructureSaver@@QAEXDPAV?$CTRect@H@@H@Z
?Add@CStructureSaver@@QAEXDPAV?$basic_string@DU?$char_traits@D@std@@V?$allocator@D@_STL@@@_STL@@H@Z
?Add@CStructureSaver@@QAEXDPAV?$basic_string@GU?$char_traits@G@std@@V?$allocator@G@_STL@@@_STL@@H@Z
?Add@CStructureSaver@@QAEXDPAV?$hash_map@HUSAnimationVector@NDb@@U?$hash@H@_STL@@U?$equal_to@H@4@V?$allocator@U?$pair@$$CBHUSAnimationVector@NDb@@@_STL@@@4@@_STL@@H@Z
?Add@CStructureSaver@@QAEXDPAV?$hash_map@HUSPieceLinks@NDb@@U?$hash@H@_STL@@U?$equal_to@H@4@V?$allocator@U?$pair@$$CBHUSPieceLinks@NDb@@@_STL@@@4@@_STL@@H@Z
?Add@CStructureSaver@@QAEXDPAV?$vector@HV?$allocator@H@_STL@@@_STL@@H@Z
?Add@CStructureSaver@@QAEXDPAV?$vector@MV?$allocator@M@_STL@@@_STL@@H@Z
?Add@CStructureSaver@@QAEXDPAV?$vector@USAckVoice@NDb@@V?$allocator@USAckVoice@NDb@@@_STL@@@_STL@@H@Z
?Add@CStructureSaver@@QAEXDPAV?$vector@USItemAssign@NDb@@V?$allocator@USItemAssign@NDb@@@_STL@@@_STL@@H@Z
?Add@CStructureSaver@@QAEXDPAV?$vector@USUniformItem@NDb@@V?$allocator@USUniformItem@NDb@@@_STL@@@_STL@@H@Z
?Add@CStructureSaver@@QAEXDPAV?$vector@USVariantFlags@NDb@@V?$allocator@USVariantFlags@NDb@@@_STL@@@_STL@@H@Z
?Add@CStructureSaver@@QAEXDPAV?$vector@V?$CPtr@VCAmbientLight@NDb@@@@V?$allocator@V?$CPtr@VCAmbientLight@NDb@@@@@_STL@@@_STL@@H@Z
?Add@CStructureSaver@@QAEXDPAV?$vector@V?$CPtr@VCAnimation@NDb@@@@V?$allocator@V?$CPtr@VCAnimation@NDb@@@@@_STL@@@_STL@@H@Z
?Add@CStructureSaver@@QAEXDPAV?$vector@V?$CPtr@VCComplexHead@NDb@@@@V?$allocator@V?$CPtr@VCComplexHead@NDb@@@@@_STL@@@_STL@@H@Z
?Add@CStructureSaver@@QAEXDPAV?$vector@V?$CPtr@VCDBPerk@NDb@@@@V?$allocator@V?$CPtr@VCDBPerk@NDb@@@@@_STL@@@_STL@@H@Z
?Add@CStructureSaver@@QAEXDPAV?$vector@V?$CPtr@VCDBScenarioObjective@NDb@@@@V?$allocator@V?$CPtr@VCDBScenarioObjective@NDb@@@@@_STL@@@_STL@@H@Z
?Add@CStructureSaver@@QAEXDPAV?$vector@V?$CPtr@VCDBScenarioZone@NDb@@@@V?$allocator@V?$CPtr@VCDBScenarioZone@NDb@@@@@_STL@@@_STL@@H@Z
?Add@CStructureSaver@@QAEXDPAV?$vector@V?$CPtr@VCDebris@NDb@@@@V?$allocator@V?$CPtr@VCDebris@NDb@@@@@_STL@@@_STL@@H@Z
?Add@CStructureSaver@@QAEXDPAV?$vector@V?$CPtr@VCEffect@NDb@@@@V?$allocator@V?$CPtr@VCEffect@NDb@@@@@_STL@@@_STL@@H@Z
?Add@CStructureSaver@@QAEXDPAV?$vector@V?$CPtr@VCExplosion@NDb@@@@V?$allocator@V?$CPtr@VCExplosion@NDb@@@@@_STL@@@_STL@@H@Z
?Add@CStructureSaver@@QAEXDPAV?$vector@V?$CPtr@VCFinalElement@NDb@@@@V?$allocator@V?$CPtr@VCFinalElement@NDb@@@@@_STL@@@_STL@@H@Z
?Add@CStructureSaver@@QAEXDPAV?$vector@V?$CPtr@VCLightInstance@NDb@@@@V?$allocator@V?$CPtr@VCLightInstance@NDb@@@@@_STL@@@_STL@@H@Z
?Add@CStructureSaver@@QAEXDPAV?$vector@V?$CPtr@VCMaterial@NDb@@@@V?$allocator@V?$CPtr@VCMaterial@NDb@@@@@_STL@@@_STL@@H@Z
?Add@CStructureSaver@@QAEXDPAV?$vector@V?$CPtr@VCParticleInstance@NDb@@@@V?$allocator@V?$CPtr@VCParticleInstance@NDb@@@@@_STL@@@_STL@@H@Z
?Add@CStructureSaver@@QAEXDPAV?$vector@V?$CPtr@VCRPGPers@NDb@@@@V?$allocator@V?$CPtr@VCRPGPers@NDb@@@@@_STL@@@_STL@@H@Z
?Add@CStructureSaver@@QAEXDPAV?$vector@V?$CPtr@VCRectangle@NDb@@@@V?$allocator@V?$CPtr@VCRectangle@NDb@@@@@_STL@@@_STL@@H@Z
?Add@CStructureSaver@@QAEXDPAV?$vector@V?$CPtr@VCRndConstructionPart@NDb@@@@V?$allocator@V?$CPtr@VCRndConstructionPart@NDb@@@@@_STL@@@_STL@@H@Z
?Add@CStructureSaver@@QAEXDPAV?$vector@V?$CPtr@VCRndModel@NDb@@@@V?$allocator@V?$CPtr@VCRndModel@NDb@@@@@_STL@@@_STL@@H@Z
?Add@CStructureSaver@@QAEXDPAV?$vector@V?$CPtr@VCRndObject@NDb@@@@V?$allocator@V?$CPtr@VCRndObject@NDb@@@@@_STL@@@_STL@@H@Z
?Add@CStructureSaver@@QAEXDPAV?$vector@V?$CPtr@VCRndTerrainSpot@NDb@@@@V?$allocator@V?$CPtr@VCRndTerrainSpot@NDb@@@@@_STL@@@_STL@@H@Z
?Add@CStructureSaver@@QAEXDPAV?$vector@V?$CPtr@VCScript@NDb@@@@V?$allocator@V?$CPtr@VCScript@NDb@@@@@_STL@@@_STL@@H@Z
?Add@CStructureSaver@@QAEXDPAV?$vector@V?$CPtr@VCSoundInstance@NDb@@@@V?$allocator@V?$CPtr@VCSoundInstance@NDb@@@@@_STL@@@_STL@@H@Z
?Add@CStructureSaver@@QAEXDPAV?$vector@V?$CPtr@VCSoundVariant@NDb@@@@V?$allocator@V?$CPtr@VCSoundVariant@NDb@@@@@_STL@@@_STL@@H@Z
?Add@CStructureSaver@@QAEXDPAV?$vector@V?$CPtr@VCTRndModel@NDb@@@@V?$allocator@V?$CPtr@VCTRndModel@NDb@@@@@_STL@@@_STL@@H@Z
?Add@CStructureSaver@@QAEXDPAV?$vector@V?$CPtr@VCTemplVariant@NDb@@@@V?$allocator@V?$CPtr@VCTemplVariant@NDb@@@@@_STL@@@_STL@@H@Z
?Add@CStructureSaver@@QAEXDPAV?$vector@V?$CPtr@VCUIControl@NDb@@@@V?$allocator@V?$CPtr@VCUIControl@NDb@@@@@_STL@@@_STL@@H@Z
?Add@CStructureSaver@@QAEXDPAV?$vector@V?$CPtr@VCUnit@NDb@@@@V?$allocator@V?$CPtr@VCUnit@NDb@@@@@_STL@@@_STL@@H@Z
?Add@CStructureSaver@@QAEXDPAV?$vector@V?$CPtr@VCWaypoint@NDb@@@@V?$allocator@V?$CPtr@VCWaypoint@NDb@@@@@_STL@@@_STL@@H@Z
?Add@CStructureSaver@@QAEXDPAV?$vector@V?$basic_string@DU?$char_traits@D@std@@V?$allocator@D@_STL@@@_STL@@V?$allocator@V?$basic_string@DU?$char_traits@D@std@@V?$allocator@D@_STL@@@_STL@@@2@@_STL@@H@Z
?Add@CStructureSaver@@QAEXDPAV?$vector@VCVec3@@V?$allocator@VCVec3@@@_STL@@@_STL@@H@Z
?Add@CStructureSaver@@QAEXDPAVCDBRecord@@H@Z
?Add@CStructureSaver@@QAEXDPAVCQuat@@H@Z
?Add@CStructureSaver@@QAEXDPAVCRPGLink4Pers@NDb@@H@Z
?Add@CStructureSaver@@QAEXDPAVCRoulette@@H@Z
?Add@CStructureSaver@@QAEXDPAVCVec2@@H@Z
?Add@CStructureSaver@@QAEXDPAVCVec3@@H@Z
?Add@CStructureSaver@@QAEXDPAW4EAddressMode@CMaterial@NDb@@H@Z
?Add@CStructureSaver@@QAEXDPAW4EAlpha@CMaterial@NDb@@H@Z
?Add@CStructureSaver@@QAEXDPAW4EAmmoColor@NDb@@H@Z
?Add@CStructureSaver@@QAEXDPAW4ECanSave@NDb@@H@Z
?Add@CStructureSaver@@QAEXDPAW4ECritical@NDb@@H@Z
?Add@CStructureSaver@@QAEXDPAW4ECriticalLocation@NDb@@H@Z
?Add@CStructureSaver@@QAEXDPAW4EFirstAidEffect@NDb@@H@Z
?Add@CStructureSaver@@QAEXDPAW4EHMBlendType@NDb@@H@Z
?Add@CStructureSaver@@QAEXDPAW4EItemSubType@NDb@@H@Z
?Add@CStructureSaver@@QAEXDPAW4ELight@CParticleInstance@NDb@@H@Z
?Add@CStructureSaver@@QAEXDPAW4EMusicType@NDb@@H@Z
?Add@CStructureSaver@@QAEXDPAW4EScenarioClueType@NDb@@H@Z
?Add@CStructureSaver@@QAEXDPAW4EScenarioObjectiveType@NDb@@H@Z
?Add@CStructureSaver@@QAEXDPAW4ESoundType@NDb@@H@Z
?Add@CStructureSaver@@QAEXDPAW4EStatic@CParticleInstance@NDb@@H@Z
?Add@CStructureSaver@@QAEXDPAW4EStoreWeaponType@NDb@@H@Z
?Add@CStructureSaver@@QAEXDPAW4ETrafic@NDb@@H@Z
?Add@CStructureSaver@@QAEXDPAW4EType@CAnimation@NDb@@H@Z
?Add@CStructureSaver@@QAEXDPAW4EType@CTexture@NDb@@H@Z
?Add@CStructureSaver@@QAEXDPAW4EUIControl@NDb@@H@Z
?Add@CStructureSaver@@QAEXDPAW4EUnitLogic@NDb@@H@Z
?Add@CStructureSaver@@QAEXDPAW4EUnitPose@NDb@@H@Z
?Add@CStructureSaver@@QAEXDPAW4EWeaponType@NDb@@H@Z
?Add@CStructureSaver@@QAEXDPAY06_NH@Z
?Add@CStructureSaver@@QAEXDPAY08W4EItemSubType@NDb@@H@Z
?Add@CStructureSaver@@QAEXDPAY0M@HH@Z
?Add@CStructureSaver@@QAEXDPA_NH@Z
?AddInternal@CStructureSaver@@AAAXDHPAHZZ
?AddInternal@CStructureSaver@@AAAXDHPAKZZ
?AddInternal@CStructureSaver@@AAAXDHPAMZZ
?AddInternal@CStructureSaver@@AAAXDHPAU?$SSwitch@VCTEffect@NDb@@$03@CRPGGrenade@NDb@@ZZ
?AddInternal@CStructureSaver@@AAAXDHPAU?$SSwitch@VCTSound@NDb@@$03@CRPGGrenade@NDb@@ZZ
?AddInternal@CStructureSaver@@AAAXDHPAUSAISoundConstants@NDb@@ZZ
?AddInternal@CStructureSaver@@AAAXDHPAUSAckVoice@NDb@@ZZ
?AddInternal@CStructureSaver@@AAAXDHPAUSAnimationVector@NDb@@ZZ
?AddInternal@CStructureSaver@@AAAXDHPAUSBound@@ZZ
?AddInternal@CStructureSaver@@AAAXDHPAUSCameraParams@NDb@@ZZ
?AddInternal@CStructureSaver@@AAAXDHPAUSInterruptsConstants@NDb@@ZZ
?AddInternal@CStructureSaver@@AAAXDHPAUSItemAssign@NDb@@ZZ
?AddInternal@CStructureSaver@@AAAXDHPAUSPieceLinks@NDb@@ZZ
?AddInternal@CStructureSaver@@AAAXDHPAUSRPGSkills@NDb@@ZZ
?AddInternal@CStructureSaver@@AAAXDHPAUSToHitConstants@NDb@@ZZ
?AddInternal@CStructureSaver@@AAAXDHPAUSUniformItem@NDb@@ZZ
?AddInternal@CStructureSaver@@AAAXDHPAUSVariantFlags@NDb@@ZZ
?AddInternal@CStructureSaver@@AAAXDHPAV?$CDBPtr@VCCubeTexture@NDb@@@@ZZ
?AddInternal@CStructureSaver@@AAAXDHPAV?$CDBPtr@VCDebrisMaterial@NDb@@@@ZZ
?AddInternal@CStructureSaver@@AAAXDHPAV?$CDBPtr@VCDoor@NDb@@@@ZZ
?AddInternal@CStructureSaver@@AAAXDHPAV?$CDBPtr@VCEffect@NDb@@@@ZZ
?AddInternal@CStructureSaver@@AAAXDHPAV?$CDBPtr@VCGeometry@NDb@@@@ZZ
?AddInternal@CStructureSaver@@AAAXDHPAV?$CDBPtr@VCGun@NDb@@@@ZZ
?AddInternal@CStructureSaver@@AAAXDHPAV?$CDBPtr@VCMaterial@NDb@@@@ZZ
?AddInternal@CStructureSaver@@AAAXDHPAV?$CDBPtr@VCPassageObject@NDb@@@@ZZ
?AddInternal@CStructureSaver@@AAAXDHPAV?$CDBPtr@VCRPGArmor@NDb@@@@ZZ
?AddInternal@CStructureSaver@@AAAXDHPAV?$CDBPtr@VCSkeleton@NDb@@@@ZZ
?AddInternal@CStructureSaver@@AAAXDHPAV?$CDBPtr@VCSoundEffect@NDb@@@@ZZ
?AddInternal@CStructureSaver@@AAAXDHPAV?$CDBPtr@VCTSound@NDb@@@@ZZ
?AddInternal@CStructureSaver@@AAAXDHPAV?$CDBPtr@VCTexture@NDb@@@@ZZ
?AddInternal@CStructureSaver@@AAAXDHPAV?$CPtr@VCAIGeometry@NDb@@@@ZZ
?AddInternal@CStructureSaver@@AAAXDHPAV?$CPtr@VCAISound@NDb@@@@ZZ
?AddInternal@CStructureSaver@@AAAXDHPAV?$CPtr@VCAmbientLight@NDb@@@@ZZ
?AddInternal@CStructureSaver@@AAAXDHPAV?$CPtr@VCAmbientLightReal@NDb@@@@ZZ
?AddInternal@CStructureSaver@@AAAXDHPAV?$CPtr@VCAnimLight@NDb@@@@ZZ
?AddInternal@CStructureSaver@@AAAXDHPAV?$CPtr@VCAnimWeaponType@NDb@@@@ZZ
?AddInternal@CStructureSaver@@AAAXDHPAV?$CPtr@VCAnimation@NDb@@@@ZZ
?AddInternal@CStructureSaver@@AAAXDHPAV?$CPtr@VCBRDF@NDb@@@@ZZ
?AddInternal@CStructureSaver@@AAAXDHPAV?$CPtr@VCComplexHead@NDb@@@@ZZ
?AddInternal@CStructureSaver@@AAAXDHPAV?$CPtr@VCContainerModel@NDb@@@@ZZ
?AddInternal@CStructureSaver@@AAAXDHPAV?$CPtr@VCCubeTexture@NDb@@@@ZZ
?AddInternal@CStructureSaver@@AAAXDHPAV?$CPtr@VCDBAckInfo@NDb@@@@ZZ
?AddInternal@CStructureSaver@@AAAXDHPAV?$CPtr@VCDBAckSequence@NDb@@@@ZZ
?AddInternal@CStructureSaver@@AAAXDHPAV?$CPtr@VCDBDialogPers@NDb@@@@ZZ
?AddInternal@CStructureSaver@@AAAXDHPAV?$CPtr@VCDBDiplomacy@NDb@@@@ZZ
?AddInternal@CStructureSaver@@AAAXDHPAV?$CPtr@VCDBPerk@NDb@@@@ZZ
?AddInternal@CStructureSaver@@AAAXDHPAV?$CPtr@VCDBRecord@@@@ZZ
?AddInternal@CStructureSaver@@AAAXDHPAV?$CPtr@VCDBScenario@NDb@@@@ZZ
?AddInternal@CStructureSaver@@AAAXDHPAV?$CPtr@VCDBScenarioClue@NDb@@@@ZZ
?AddInternal@CStructureSaver@@AAAXDHPAV?$CPtr@VCDBScenarioObjective@NDb@@@@ZZ
?AddInternal@CStructureSaver@@AAAXDHPAV?$CPtr@VCDBScenarioState@NDb@@@@ZZ
?AddInternal@CStructureSaver@@AAAXDHPAV?$CPtr@VCDBScenarioZone@NDb@@@@ZZ
?AddInternal@CStructureSaver@@AAAXDHPAV?$CPtr@VCDebris@NDb@@@@ZZ
?AddInternal@CStructureSaver@@AAAXDHPAV?$CPtr@VCDebrisMaterial@NDb@@@@ZZ
?AddInternal@CStructureSaver@@AAAXDHPAV?$CPtr@VCDoor@NDb@@@@ZZ
?AddInternal@CStructureSaver@@AAAXDHPAV?$CPtr@VCEffect@NDb@@@@ZZ
?AddInternal@CStructureSaver@@AAAXDHPAV?$CPtr@VCExplosion@NDb@@@@ZZ
?AddInternal@CStructureSaver@@AAAXDHPAV?$CPtr@VCFinalElement@NDb@@@@ZZ
?AddInternal@CStructureSaver@@AAAXDHPAV?$CPtr@VCFloorModel@NDb@@@@ZZ
?AddInternal@CStructureSaver@@AAAXDHPAV?$CPtr@VCGeometry@NDb@@@@ZZ
?AddInternal@CStructureSaver@@AAAXDHPAV?$CPtr@VCGun@NDb@@@@ZZ
?AddInternal@CStructureSaver@@AAAXDHPAV?$CPtr@VCHead@NDb@@@@ZZ
?AddInternal@CStructureSaver@@AAAXDHPAV?$CPtr@VCLightInstance@NDb@@@@ZZ
?AddInternal@CStructureSaver@@AAAXDHPAV?$CPtr@VCMaterial@NDb@@@@ZZ
?AddInternal@CStructureSaver@@AAAXDHPAV?$CPtr@VCModel@NDb@@@@ZZ
?AddInternal@CStructureSaver@@AAAXDHPAV?$CPtr@VCMusic@NDb@@@@ZZ
?AddInternal@CStructureSaver@@AAAXDHPAV?$CPtr@VCNationality@NDb@@@@ZZ
?AddInternal@CStructureSaver@@AAAXDHPAV?$CPtr@VCObject@NDb@@@@ZZ
?AddInternal@CStructureSaver@@AAAXDHPAV?$CPtr@VCPanzerklein@NDb@@@@ZZ
?AddInternal@CStructureSaver@@AAAXDHPAV?$CPtr@VCParticle@NDb@@@@ZZ
?AddInternal@CStructureSaver@@AAAXDHPAV?$CPtr@VCParticleInstance@NDb@@@@ZZ
?AddInternal@CStructureSaver@@AAAXDHPAV?$CPtr@VCPassageObject@NDb@@@@ZZ
?AddInternal@CStructureSaver@@AAAXDHPAV?$CPtr@VCPlacableObject@NDb@@@@ZZ
?AddInternal@CStructureSaver@@AAAXDHPAV?$CPtr@VCRPGAmmo@NDb@@@@ZZ
?AddInternal@CStructureSaver@@AAAXDHPAV?$CPtr@VCRPGArmor@NDb@@@@ZZ
?AddInternal@CStructureSaver@@AAAXDHPAV?$CPtr@VCRPGBaseValue@NDb@@@@ZZ
?AddInternal@CStructureSaver@@AAAXDHPAV?$CPtr@VCRPGClass@NDb@@@@ZZ
?AddInternal@CStructureSaver@@AAAXDHPAV?$CPtr@VCRPGClip@NDb@@@@ZZ
?AddInternal@CStructureSaver@@AAAXDHPAV?$CPtr@VCRPGFirstAid@NDb@@@@ZZ
?AddInternal@CStructureSaver@@AAAXDHPAV?$CPtr@VCRPGGrenade@NDb@@@@ZZ
?AddInternal@CStructureSaver@@AAAXDHPAV?$CPtr@VCRPGItem@NDb@@@@ZZ
?AddInternal@CStructureSaver@@AAAXDHPAV?$CPtr@VCRPGKey@NDb@@@@ZZ
?AddInternal@CStructureSaver@@AAAXDHPAV?$CPtr@VCRPGMaterial@NDb@@@@ZZ
?AddInternal@CStructureSaver@@AAAXDHPAV?$CPtr@VCRPGMeleeWeapon@NDb@@@@ZZ
?AddInternal@CStructureSaver@@AAAXDHPAV?$CPtr@VCRPGMine@NDb@@@@ZZ
?AddInternal@CStructureSaver@@AAAXDHPAV?$CPtr@VCRPGMineDetector@NDb@@@@ZZ
?AddInternal@CStructureSaver@@AAAXDHPAV?$CPtr@VCRPGPers@NDb@@@@ZZ
?AddInternal@CStructureSaver@@AAAXDHPAV?$CPtr@VCRPGTool@NDb@@@@ZZ
?AddInternal@CStructureSaver@@AAAXDHPAV?$CPtr@VCRPGUniform@NDb@@@@ZZ
?AddInternal@CStructureSaver@@AAAXDHPAV?$CPtr@VCRPGWeapon@NDb@@@@ZZ
?AddInternal@CStructureSaver@@AAAXDHPAV?$CPtr@VCRPGWeaponType@NDb@@@@ZZ
?AddInternal@CStructureSaver@@AAAXDHPAV?$CPtr@VCRectangle@NDb@@@@ZZ
?AddInternal@CStructureSaver@@AAAXDHPAV?$CPtr@VCRndConstructionPart@NDb@@@@ZZ
?AddInternal@CStructureSaver@@AAAXDHPAV?$CPtr@VCRndContainerModel@NDb@@@@ZZ
?AddInternal@CStructureSaver@@AAAXDHPAV?$CPtr@VCRndModel@NDb@@@@ZZ
?AddInternal@CStructureSaver@@AAAXDHPAV?$CPtr@VCRndObject@NDb@@@@ZZ
?AddInternal@CStructureSaver@@AAAXDHPAV?$CPtr@VCRndTerrainSpot@NDb@@@@ZZ
?AddInternal@CStructureSaver@@AAAXDHPAV?$CPtr@VCScript@NDb@@@@ZZ
?AddInternal@CStructureSaver@@AAAXDHPAV?$CPtr@VCSequence@NDb@@@@ZZ
?AddInternal@CStructureSaver@@AAAXDHPAV?$CPtr@VCSide@NDb@@@@ZZ
?AddInternal@CStructureSaver@@AAAXDHPAV?$CPtr@VCSkeleton@NDb@@@@ZZ
?AddInternal@CStructureSaver@@AAAXDHPAV?$CPtr@VCSolidModel@NDb@@@@ZZ
?AddInternal@CStructureSaver@@AAAXDHPAV?$CPtr@VCSound@NDb@@@@ZZ
?AddInternal@CStructureSaver@@AAAXDHPAV?$CPtr@VCSoundEffect@NDb@@@@ZZ
?AddInternal@CStructureSaver@@AAAXDHPAV?$CPtr@VCSoundInstance@NDb@@@@ZZ
?AddInternal@CStructureSaver@@AAAXDHPAV?$CPtr@VCSoundVariant@NDb@@@@ZZ
?AddInternal@CStructureSaver@@AAAXDHPAV?$CPtr@VCSpot@NDb@@@@ZZ
?AddInternal@CStructureSaver@@AAAXDHPAV?$CPtr@VCString@NDb@@@@ZZ
?AddInternal@CStructureSaver@@AAAXDHPAV?$CPtr@VCTAmbientLight@NDb@@@@ZZ
?AddInternal@CStructureSaver@@AAAXDHPAV?$CPtr@VCTConstructionPart@NDb@@@@ZZ
?AddInternal@CStructureSaver@@AAAXDHPAV?$CPtr@VCTEffect@NDb@@@@ZZ
?AddInternal@CStructureSaver@@AAAXDHPAV?$CPtr@VCTMaterial@NDb@@@@ZZ
?AddInternal@CStructureSaver@@AAAXDHPAV?$CPtr@VCTRndModel@NDb@@@@ZZ
?AddInternal@CStructureSaver@@AAAXDHPAV?$CPtr@VCTRndObject@NDb@@@@ZZ
?AddInternal@CStructureSaver@@AAAXDHPAV?$CPtr@VCTSound@NDb@@@@ZZ
?AddInternal@CStructureSaver@@AAAXDHPAV?$CPtr@VCTemplVariant@NDb@@@@ZZ
?AddInternal@CStructureSaver@@AAAXDHPAV?$CPtr@VCTemplate@NDb@@@@ZZ
?AddInternal@CStructureSaver@@AAAXDHPAV?$CPtr@VCTexture@NDb@@@@ZZ
?AddInternal@CStructureSaver@@AAAXDHPAV?$CPtr@VCUIContainer@NDb@@@@ZZ
?AddInternal@CStructureSaver@@AAAXDHPAV?$CPtr@VCUIControl@NDb@@@@ZZ
?AddInternal@CStructureSaver@@AAAXDHPAV?$CPtr@VCUITexture@NDb@@@@ZZ
?AddInternal@CStructureSaver@@AAAXDHPAV?$CPtr@VCUnit@NDb@@@@ZZ
?AddInternal@CStructureSaver@@AAAXDHPAV?$CPtr@VCUnitGroup@NDb@@@@ZZ
?AddInternal@CStructureSaver@@AAAXDHPAV?$CPtr@VCWallModel@NDb@@@@ZZ
?AddInternal@CStructureSaver@@AAAXDHPAV?$CPtr@VCWaypoint@NDb@@@@ZZ
?AddInternal@CStructureSaver@@AAAXDHPAV?$CPtr@VCWaypointName@NDb@@@@ZZ
?AddInternal@CStructureSaver@@AAAXDHPAV?$CRndPtr@VCRndObject@NDb@@@@ZZ
?AddInternal@CStructureSaver@@AAAXDHPAV?$CRndPtr@VCTemplVariant@NDb@@@@ZZ
?AddInternal@CStructureSaver@@AAAXDHPAV?$CTPoint@H@@ZZ
?AddInternal@CStructureSaver@@AAAXDHPAV?$CTRect@H@@ZZ
?AddInternal@CStructureSaver@@AAAXDHPAV?$basic_string@DU?$char_traits@D@std@@V?$allocator@D@_STL@@@_STL@@0@Z
?AddInternal@CStructureSaver@@AAAXDHPAV?$basic_string@GU?$char_traits@G@std@@V?$allocator@G@_STL@@@_STL@@0@Z
?AddInternal@CStructureSaver@@AAAXDHPAV?$hash_map@HUSAnimationVector@NDb@@U?$hash@H@_STL@@U?$equal_to@H@4@V?$allocator@U?$pair@$$CBHUSAnimationVector@NDb@@@_STL@@@4@@_STL@@0@Z
?AddInternal@CStructureSaver@@AAAXDHPAV?$hash_map@HUSPieceLinks@NDb@@U?$hash@H@_STL@@U?$equal_to@H@4@V?$allocator@U?$pair@$$CBHUSPieceLinks@NDb@@@_STL@@@4@@_STL@@0@Z
?AddInternal@CStructureSaver@@AAAXDHPAV?$vector@HV?$allocator@H@_STL@@@_STL@@0@Z
?AddInternal@CStructureSaver@@AAAXDHPAV?$vector@MV?$allocator@M@_STL@@@_STL@@0@Z
?AddInternal@CStructureSaver@@AAAXDHPAV?$vector@USAckVoice@NDb@@V?$allocator@USAckVoice@NDb@@@_STL@@@_STL@@0@Z
?AddInternal@CStructureSaver@@AAAXDHPAV?$vector@USItemAssign@NDb@@V?$allocator@USItemAssign@NDb@@@_STL@@@_STL@@0@Z
?AddInternal@CStructureSaver@@AAAXDHPAV?$vector@USUniformItem@NDb@@V?$allocator@USUniformItem@NDb@@@_STL@@@_STL@@0@Z
?AddInternal@CStructureSaver@@AAAXDHPAV?$vector@USVariantFlags@NDb@@V?$allocator@USVariantFlags@NDb@@@_STL@@@_STL@@0@Z
?AddInternal@CStructureSaver@@AAAXDHPAV?$vector@V?$CPtr@VCAmbientLight@NDb@@@@V?$allocator@V?$CPtr@VCAmbientLight@NDb@@@@@_STL@@@_STL@@0@Z
?AddInternal@CStructureSaver@@AAAXDHPAV?$vector@V?$CPtr@VCAnimation@NDb@@@@V?$allocator@V?$CPtr@VCAnimation@NDb@@@@@_STL@@@_STL@@0@Z
?AddInternal@CStructureSaver@@AAAXDHPAV?$vector@V?$CPtr@VCComplexHead@NDb@@@@V?$allocator@V?$CPtr@VCComplexHead@NDb@@@@@_STL@@@_STL@@0@Z
?AddInternal@CStructureSaver@@AAAXDHPAV?$vector@V?$CPtr@VCDBPerk@NDb@@@@V?$allocator@V?$CPtr@VCDBPerk@NDb@@@@@_STL@@@_STL@@0@Z
?AddInternal@CStructureSaver@@AAAXDHPAV?$vector@V?$CPtr@VCDBScenarioObjective@NDb@@@@V?$allocator@V?$CPtr@VCDBScenarioObjective@NDb@@@@@_STL@@@_STL@@0@Z
?AddInternal@CStructureSaver@@AAAXDHPAV?$vector@V?$CPtr@VCDBScenarioZone@NDb@@@@V?$allocator@V?$CPtr@VCDBScenarioZone@NDb@@@@@_STL@@@_STL@@0@Z
?AddInternal@CStructureSaver@@AAAXDHPAV?$vector@V?$CPtr@VCDebris@NDb@@@@V?$allocator@V?$CPtr@VCDebris@NDb@@@@@_STL@@@_STL@@0@Z
?AddInternal@CStructureSaver@@AAAXDHPAV?$vector@V?$CPtr@VCEffect@NDb@@@@V?$allocator@V?$CPtr@VCEffect@NDb@@@@@_STL@@@_STL@@0@Z
?AddInternal@CStructureSaver@@AAAXDHPAV?$vector@V?$CPtr@VCExplosion@NDb@@@@V?$allocator@V?$CPtr@VCExplosion@NDb@@@@@_STL@@@_STL@@0@Z
?AddInternal@CStructureSaver@@AAAXDHPAV?$vector@V?$CPtr@VCFinalElement@NDb@@@@V?$allocator@V?$CPtr@VCFinalElement@NDb@@@@@_STL@@@_STL@@0@Z
?AddInternal@CStructureSaver@@AAAXDHPAV?$vector@V?$CPtr@VCLightInstance@NDb@@@@V?$allocator@V?$CPtr@VCLightInstance@NDb@@@@@_STL@@@_STL@@0@Z
?AddInternal@CStructureSaver@@AAAXDHPAV?$vector@V?$CPtr@VCMaterial@NDb@@@@V?$allocator@V?$CPtr@VCMaterial@NDb@@@@@_STL@@@_STL@@0@Z
?AddInternal@CStructureSaver@@AAAXDHPAV?$vector@V?$CPtr@VCParticleInstance@NDb@@@@V?$allocator@V?$CPtr@VCParticleInstance@NDb@@@@@_STL@@@_STL@@0@Z
?AddInternal@CStructureSaver@@AAAXDHPAV?$vector@V?$CPtr@VCRPGPers@NDb@@@@V?$allocator@V?$CPtr@VCRPGPers@NDb@@@@@_STL@@@_STL@@0@Z
?AddInternal@CStructureSaver@@AAAXDHPAV?$vector@V?$CPtr@VCRectangle@NDb@@@@V?$allocator@V?$CPtr@VCRectangle@NDb@@@@@_STL@@@_STL@@0@Z
?AddInternal@CStructureSaver@@AAAXDHPAV?$vector@V?$CPtr@VCRndConstructionPart@NDb@@@@V?$allocator@V?$CPtr@VCRndConstructionPart@NDb@@@@@_STL@@@_STL@@0@Z
?AddInternal@CStructureSaver@@AAAXDHPAV?$vector@V?$CPtr@VCRndModel@NDb@@@@V?$allocator@V?$CPtr@VCRndModel@NDb@@@@@_STL@@@_STL@@0@Z
?AddInternal@CStructureSaver@@AAAXDHPAV?$vector@V?$CPtr@VCRndObject@NDb@@@@V?$allocator@V?$CPtr@VCRndObject@NDb@@@@@_STL@@@_STL@@0@Z
?AddInternal@CStructureSaver@@AAAXDHPAV?$vector@V?$CPtr@VCRndTerrainSpot@NDb@@@@V?$allocator@V?$CPtr@VCRndTerrainSpot@NDb@@@@@_STL@@@_STL@@0@Z
?AddInternal@CStructureSaver@@AAAXDHPAV?$vector@V?$CPtr@VCScript@NDb@@@@V?$allocator@V?$CPtr@VCScript@NDb@@@@@_STL@@@_STL@@0@Z
?AddInternal@CStructureSaver@@AAAXDHPAV?$vector@V?$CPtr@VCSoundInstance@NDb@@@@V?$allocator@V?$CPtr@VCSoundInstance@NDb@@@@@_STL@@@_STL@@0@Z
?AddInternal@CStructureSaver@@AAAXDHPAV?$vector@V?$CPtr@VCSoundVariant@NDb@@@@V?$allocator@V?$CPtr@VCSoundVariant@NDb@@@@@_STL@@@_STL@@0@Z
?AddInternal@CStructureSaver@@AAAXDHPAV?$vector@V?$CPtr@VCTRndModel@NDb@@@@V?$allocator@V?$CPtr@VCTRndModel@NDb@@@@@_STL@@@_STL@@0@Z
?AddInternal@CStructureSaver@@AAAXDHPAV?$vector@V?$CPtr@VCTemplVariant@NDb@@@@V?$allocator@V?$CPtr@VCTemplVariant@NDb@@@@@_STL@@@_STL@@0@Z
?AddInternal@CStructureSaver@@AAAXDHPAV?$vector@V?$CPtr@VCUIControl@NDb@@@@V?$allocator@V?$CPtr@VCUIControl@NDb@@@@@_STL@@@_STL@@0@Z
?AddInternal@CStructureSaver@@AAAXDHPAV?$vector@V?$CPtr@VCUnit@NDb@@@@V?$allocator@V?$CPtr@VCUnit@NDb@@@@@_STL@@@_STL@@0@Z
?AddInternal@CStructureSaver@@AAAXDHPAV?$vector@V?$CPtr@VCWaypoint@NDb@@@@V?$allocator@V?$CPtr@VCWaypoint@NDb@@@@@_STL@@@_STL@@0@Z
?AddInternal@CStructureSaver@@AAAXDHPAV?$vector@V?$basic_string@DU?$char_traits@D@std@@V?$allocator@D@_STL@@@_STL@@V?$allocator@V?$basic_string@DU?$char_traits@D@std@@V?$allocator@D@_STL@@@_STL@@@2@@_STL@@0@Z
?AddInternal@CStructureSaver@@AAAXDHPAV?$vector@VCVec3@@V?$allocator@VCVec3@@@_STL@@@_STL@@0@Z
?AddInternal@CStructureSaver@@AAAXDHPAVCDBRecord@@ZZ
?AddInternal@CStructureSaver@@AAAXDHPAVCQuat@@ZZ
?AddInternal@CStructureSaver@@AAAXDHPAVCRPGLink4Pers@NDb@@ZZ
?AddInternal@CStructureSaver@@AAAXDHPAVCRoulette@@ZZ
?AddInternal@CStructureSaver@@AAAXDHPAVCVec2@@ZZ
?AddInternal@CStructureSaver@@AAAXDHPAVCVec3@@ZZ
?AddInternal@CStructureSaver@@AAAXDHPAW4EAddressMode@CMaterial@NDb@@ZZ
?AddInternal@CStructureSaver@@AAAXDHPAW4EAlpha@CMaterial@NDb@@ZZ
?AddInternal@CStructureSaver@@AAAXDHPAW4EAmmoColor@NDb@@ZZ
?AddInternal@CStructureSaver@@AAAXDHPAW4ECanSave@NDb@@ZZ
?AddInternal@CStructureSaver@@AAAXDHPAW4ECritical@NDb@@ZZ
?AddInternal@CStructureSaver@@AAAXDHPAW4ECriticalLocation@NDb@@ZZ
?AddInternal@CStructureSaver@@AAAXDHPAW4EFirstAidEffect@NDb@@ZZ
?AddInternal@CStructureSaver@@AAAXDHPAW4EHMBlendType@NDb@@ZZ
?AddInternal@CStructureSaver@@AAAXDHPAW4EItemSubType@NDb@@ZZ
?AddInternal@CStructureSaver@@AAAXDHPAW4ELight@CParticleInstance@NDb@@ZZ
?AddInternal@CStructureSaver@@AAAXDHPAW4EMusicType@NDb@@ZZ
?AddInternal@CStructureSaver@@AAAXDHPAW4EScenarioClueType@NDb@@ZZ
?AddInternal@CStructureSaver@@AAAXDHPAW4EScenarioObjectiveType@NDb@@ZZ
?AddInternal@CStructureSaver@@AAAXDHPAW4ESoundType@NDb@@ZZ
?AddInternal@CStructureSaver@@AAAXDHPAW4EStatic@CParticleInstance@NDb@@ZZ
?AddInternal@CStructureSaver@@AAAXDHPAW4EStoreWeaponType@NDb@@ZZ
?AddInternal@CStructureSaver@@AAAXDHPAW4ETrafic@NDb@@ZZ
?AddInternal@CStructureSaver@@AAAXDHPAW4EType@CAnimation@NDb@@ZZ
?AddInternal@CStructureSaver@@AAAXDHPAW4EType@CTexture@NDb@@ZZ
?AddInternal@CStructureSaver@@AAAXDHPAW4EUIControl@NDb@@ZZ
?AddInternal@CStructureSaver@@AAAXDHPAW4EUnitLogic@NDb@@ZZ
?AddInternal@CStructureSaver@@AAAXDHPAW4EUnitPose@NDb@@ZZ
?AddInternal@CStructureSaver@@AAAXDHPAW4EWeaponType@NDb@@ZZ
?AddInternal@CStructureSaver@@AAAXDHPAY06_NZZ
?AddInternal@CStructureSaver@@AAAXDHPAY08W4EItemSubType@NDb@@ZZ
?AddInternal@CStructureSaver@@AAAXDHPAY0M@HZZ
?AddInternal@CStructureSaver@@AAAXDHPA_NZZ
?AddRef@CObjectBase@@AAEXXZ
?AddRef@SRef@CObjectBase@@QAEXPAV2@@Z
?AssignItems@NDb@@YAXPAV?$CRPGSomethingForPers@VCRPGFirstAid@NDb@@@1@@Z
?AssignItems@NDb@@YAXPAV?$CRPGSomethingForPers@VCRPGGrenade@NDb@@@1@@Z
?AssignItems@NDb@@YAXPAV?$CRPGSomethingForPers@VCRPGKey@NDb@@@1@@Z
?AssignItems@NDb@@YAXPAV?$CRPGSomethingForPers@VCRPGMeleeWeapon@NDb@@@1@@Z
?AssignItems@NDb@@YAXPAV?$CRPGSomethingForPers@VCRPGMine@NDb@@@1@@Z
?AssignItems@NDb@@YAXPAV?$CRPGSomethingForPers@VCRPGMineDetector@NDb@@@1@@Z
?AssignItems@NDb@@YAXPAV?$CRPGSomethingForPers@VCRPGTool@NDb@@@1@@Z
?AssignItems@NDb@@YAXPAV?$CRPGSomethingForPers@VCRPGWeapon@NDb@@@1@@Z
?AssignItems@NDb@@YAXPAVCRPGClip4Pers@1@@Z
?BuildMapLinks@NDb@@YAX_N@Z
?CallObjectSerialize@CStructureSaver@@AAAXDHPAHPAU?$SGenericNumberTemplate@$00@@@Z
?CallObjectSerialize@CStructureSaver@@AAAXDHPAKPAU?$SGenericNumberTemplate@$00@@@Z
?CallObjectSerialize@CStructureSaver@@AAAXDHPAMPAU?$SGenericNumberTemplate@$00@@@Z
?CallObjectSerialize@CStructureSaver@@AAAXDHPAU?$SSwitch@VCTEffect@NDb@@$03@CRPGGrenade@NDb@@ZZ
?CallObjectSerialize@CStructureSaver@@AAAXDHPAU?$SSwitch@VCTSound@NDb@@$03@CRPGGrenade@NDb@@ZZ
?CallObjectSerialize@CStructureSaver@@AAAXDHPAUSAISoundConstants@NDb@@ZZ
?CallObjectSerialize@CStructureSaver@@AAAXDHPAUSAckVoice@NDb@@ZZ
?CallObjectSerialize@CStructureSaver@@AAAXDHPAUSAnimationVector@NDb@@ZZ
?CallObjectSerialize@CStructureSaver@@AAAXDHPAUSBound@@PAU?$SGenericNumberTemplate@$00@@@Z
?CallObjectSerialize@CStructureSaver@@AAAXDHPAUSCameraParams@NDb@@PAU?$SGenericNumberTemplate@$00@@@Z
?CallObjectSerialize@CStructureSaver@@AAAXDHPAUSInterruptsConstants@NDb@@ZZ
?CallObjectSerialize@CStructureSaver@@AAAXDHPAUSItemAssign@NDb@@ZZ
?CallObjectSerialize@CStructureSaver@@AAAXDHPAUSPieceLinks@NDb@@ZZ
?CallObjectSerialize@CStructureSaver@@AAAXDHPAUSRPGSkills@NDb@@PAU?$SGenericNumberTemplate@$00@@@Z
?CallObjectSerialize@CStructureSaver@@AAAXDHPAUSToHitConstants@NDb@@ZZ
?CallObjectSerialize@CStructureSaver@@AAAXDHPAUSUniformItem@NDb@@ZZ
?CallObjectSerialize@CStructureSaver@@AAAXDHPAUSVariantFlags@NDb@@ZZ
?CallObjectSerialize@CStructureSaver@@AAAXDHPAV?$CDBPtr@VCCubeTexture@NDb@@@@ZZ
?CallObjectSerialize@CStructureSaver@@AAAXDHPAV?$CDBPtr@VCDebrisMaterial@NDb@@@@ZZ
?CallObjectSerialize@CStructureSaver@@AAAXDHPAV?$CDBPtr@VCDoor@NDb@@@@ZZ
?CallObjectSerialize@CStructureSaver@@AAAXDHPAV?$CDBPtr@VCEffect@NDb@@@@ZZ
?CallObjectSerialize@CStructureSaver@@AAAXDHPAV?$CDBPtr@VCGeometry@NDb@@@@ZZ
?CallObjectSerialize@CStructureSaver@@AAAXDHPAV?$CDBPtr@VCGun@NDb@@@@ZZ
?CallObjectSerialize@CStructureSaver@@AAAXDHPAV?$CDBPtr@VCMaterial@NDb@@@@ZZ
?CallObjectSerialize@CStructureSaver@@AAAXDHPAV?$CDBPtr@VCPassageObject@NDb@@@@ZZ
?CallObjectSerialize@CStructureSaver@@AAAXDHPAV?$CDBPtr@VCRPGArmor@NDb@@@@ZZ
?CallObjectSerialize@CStructureSaver@@AAAXDHPAV?$CDBPtr@VCSkeleton@NDb@@@@ZZ
?CallObjectSerialize@CStructureSaver@@AAAXDHPAV?$CDBPtr@VCSoundEffect@NDb@@@@ZZ
?CallObjectSerialize@CStructureSaver@@AAAXDHPAV?$CDBPtr@VCTSound@NDb@@@@ZZ
?CallObjectSerialize@CStructureSaver@@AAAXDHPAV?$CDBPtr@VCTexture@NDb@@@@ZZ
?CallObjectSerialize@CStructureSaver@@AAAXDHPAV?$CPtr@VCAIGeometry@NDb@@@@ZZ
?CallObjectSerialize@CStructureSaver@@AAAXDHPAV?$CPtr@VCAISound@NDb@@@@ZZ
?CallObjectSerialize@CStructureSaver@@AAAXDHPAV?$CPtr@VCAmbientLight@NDb@@@@ZZ
?CallObjectSerialize@CStructureSaver@@AAAXDHPAV?$CPtr@VCAmbientLightReal@NDb@@@@ZZ
?CallObjectSerialize@CStructureSaver@@AAAXDHPAV?$CPtr@VCAnimLight@NDb@@@@ZZ
?CallObjectSerialize@CStructureSaver@@AAAXDHPAV?$CPtr@VCAnimWeaponType@NDb@@@@ZZ
?CallObjectSerialize@CStructureSaver@@AAAXDHPAV?$CPtr@VCAnimation@NDb@@@@ZZ
?CallObjectSerialize@CStructureSaver@@AAAXDHPAV?$CPtr@VCBRDF@NDb@@@@ZZ
?CallObjectSerialize@CStructureSaver@@AAAXDHPAV?$CPtr@VCComplexHead@NDb@@@@ZZ
?CallObjectSerialize@CStructureSaver@@AAAXDHPAV?$CPtr@VCContainerModel@NDb@@@@ZZ
?CallObjectSerialize@CStructureSaver@@AAAXDHPAV?$CPtr@VCCubeTexture@NDb@@@@ZZ
?CallObjectSerialize@CStructureSaver@@AAAXDHPAV?$CPtr@VCDBAckInfo@NDb@@@@ZZ
?CallObjectSerialize@CStructureSaver@@AAAXDHPAV?$CPtr@VCDBAckSequence@NDb@@@@ZZ
?CallObjectSerialize@CStructureSaver@@AAAXDHPAV?$CPtr@VCDBDialogPers@NDb@@@@ZZ
?CallObjectSerialize@CStructureSaver@@AAAXDHPAV?$CPtr@VCDBDiplomacy@NDb@@@@ZZ
?CallObjectSerialize@CStructureSaver@@AAAXDHPAV?$CPtr@VCDBPerk@NDb@@@@ZZ
?CallObjectSerialize@CStructureSaver@@AAAXDHPAV?$CPtr@VCDBRecord@@@@ZZ
?CallObjectSerialize@CStructureSaver@@AAAXDHPAV?$CPtr@VCDBScenario@NDb@@@@ZZ
?CallObjectSerialize@CStructureSaver@@AAAXDHPAV?$CPtr@VCDBScenarioClue@NDb@@@@ZZ
?CallObjectSerialize@CStructureSaver@@AAAXDHPAV?$CPtr@VCDBScenarioObjective@NDb@@@@ZZ
?CallObjectSerialize@CStructureSaver@@AAAXDHPAV?$CPtr@VCDBScenarioState@NDb@@@@ZZ
?CallObjectSerialize@CStructureSaver@@AAAXDHPAV?$CPtr@VCDBScenarioZone@NDb@@@@ZZ
?CallObjectSerialize@CStructureSaver@@AAAXDHPAV?$CPtr@VCDebris@NDb@@@@ZZ
?CallObjectSerialize@CStructureSaver@@AAAXDHPAV?$CPtr@VCDebrisMaterial@NDb@@@@ZZ
?CallObjectSerialize@CStructureSaver@@AAAXDHPAV?$CPtr@VCDoor@NDb@@@@ZZ
?CallObjectSerialize@CStructureSaver@@AAAXDHPAV?$CPtr@VCEffect@NDb@@@@ZZ
?CallObjectSerialize@CStructureSaver@@AAAXDHPAV?$CPtr@VCExplosion@NDb@@@@ZZ
?CallObjectSerialize@CStructureSaver@@AAAXDHPAV?$CPtr@VCFinalElement@NDb@@@@ZZ
?CallObjectSerialize@CStructureSaver@@AAAXDHPAV?$CPtr@VCFloorModel@NDb@@@@ZZ
?CallObjectSerialize@CStructureSaver@@AAAXDHPAV?$CPtr@VCGeometry@NDb@@@@ZZ
?CallObjectSerialize@CStructureSaver@@AAAXDHPAV?$CPtr@VCGun@NDb@@@@ZZ
?CallObjectSerialize@CStructureSaver@@AAAXDHPAV?$CPtr@VCHead@NDb@@@@ZZ
?CallObjectSerialize@CStructureSaver@@AAAXDHPAV?$CPtr@VCLightInstance@NDb@@@@ZZ
?CallObjectSerialize@CStructureSaver@@AAAXDHPAV?$CPtr@VCMaterial@NDb@@@@ZZ
?CallObjectSerialize@CStructureSaver@@AAAXDHPAV?$CPtr@VCModel@NDb@@@@ZZ
?CallObjectSerialize@CStructureSaver@@AAAXDHPAV?$CPtr@VCMusic@NDb@@@@ZZ
?CallObjectSerialize@CStructureSaver@@AAAXDHPAV?$CPtr@VCNationality@NDb@@@@ZZ
?CallObjectSerialize@CStructureSaver@@AAAXDHPAV?$CPtr@VCObject@NDb@@@@ZZ
?CallObjectSerialize@CStructureSaver@@AAAXDHPAV?$CPtr@VCPanzerklein@NDb@@@@ZZ
?CallObjectSerialize@CStructureSaver@@AAAXDHPAV?$CPtr@VCParticle@NDb@@@@ZZ
?CallObjectSerialize@CStructureSaver@@AAAXDHPAV?$CPtr@VCParticleInstance@NDb@@@@ZZ
?CallObjectSerialize@CStructureSaver@@AAAXDHPAV?$CPtr@VCPassageObject@NDb@@@@ZZ
?CallObjectSerialize@CStructureSaver@@AAAXDHPAV?$CPtr@VCPlacableObject@NDb@@@@ZZ
?CallObjectSerialize@CStructureSaver@@AAAXDHPAV?$CPtr@VCRPGAmmo@NDb@@@@ZZ
?CallObjectSerialize@CStructureSaver@@AAAXDHPAV?$CPtr@VCRPGArmor@NDb@@@@ZZ
?CallObjectSerialize@CStructureSaver@@AAAXDHPAV?$CPtr@VCRPGBaseValue@NDb@@@@ZZ
?CallObjectSerialize@CStructureSaver@@AAAXDHPAV?$CPtr@VCRPGClass@NDb@@@@ZZ
?CallObjectSerialize@CStructureSaver@@AAAXDHPAV?$CPtr@VCRPGClip@NDb@@@@ZZ
?CallObjectSerialize@CStructureSaver@@AAAXDHPAV?$CPtr@VCRPGFirstAid@NDb@@@@ZZ
?CallObjectSerialize@CStructureSaver@@AAAXDHPAV?$CPtr@VCRPGGrenade@NDb@@@@ZZ
?CallObjectSerialize@CStructureSaver@@AAAXDHPAV?$CPtr@VCRPGItem@NDb@@@@ZZ
?CallObjectSerialize@CStructureSaver@@AAAXDHPAV?$CPtr@VCRPGKey@NDb@@@@ZZ
?CallObjectSerialize@CStructureSaver@@AAAXDHPAV?$CPtr@VCRPGMaterial@NDb@@@@ZZ
?CallObjectSerialize@CStructureSaver@@AAAXDHPAV?$CPtr@VCRPGMeleeWeapon@NDb@@@@ZZ
?CallObjectSerialize@CStructureSaver@@AAAXDHPAV?$CPtr@VCRPGMine@NDb@@@@ZZ
?CallObjectSerialize@CStructureSaver@@AAAXDHPAV?$CPtr@VCRPGMineDetector@NDb@@@@ZZ
?CallObjectSerialize@CStructureSaver@@AAAXDHPAV?$CPtr@VCRPGPers@NDb@@@@ZZ
?CallObjectSerialize@CStructureSaver@@AAAXDHPAV?$CPtr@VCRPGTool@NDb@@@@ZZ
?CallObjectSerialize@CStructureSaver@@AAAXDHPAV?$CPtr@VCRPGUniform@NDb@@@@ZZ
?CallObjectSerialize@CStructureSaver@@AAAXDHPAV?$CPtr@VCRPGWeapon@NDb@@@@ZZ
?CallObjectSerialize@CStructureSaver@@AAAXDHPAV?$CPtr@VCRPGWeaponType@NDb@@@@ZZ
?CallObjectSerialize@CStructureSaver@@AAAXDHPAV?$CPtr@VCRectangle@NDb@@@@ZZ
?CallObjectSerialize@CStructureSaver@@AAAXDHPAV?$CPtr@VCRndConstructionPart@NDb@@@@ZZ
?CallObjectSerialize@CStructureSaver@@AAAXDHPAV?$CPtr@VCRndContainerModel@NDb@@@@ZZ
?CallObjectSerialize@CStructureSaver@@AAAXDHPAV?$CPtr@VCRndModel@NDb@@@@ZZ
?CallObjectSerialize@CStructureSaver@@AAAXDHPAV?$CPtr@VCRndObject@NDb@@@@ZZ
?CallObjectSerialize@CStructureSaver@@AAAXDHPAV?$CPtr@VCRndTerrainSpot@NDb@@@@ZZ
?CallObjectSerialize@CStructureSaver@@AAAXDHPAV?$CPtr@VCScript@NDb@@@@ZZ
?CallObjectSerialize@CStructureSaver@@AAAXDHPAV?$CPtr@VCSequence@NDb@@@@ZZ
?CallObjectSerialize@CStructureSaver@@AAAXDHPAV?$CPtr@VCSide@NDb@@@@ZZ
?CallObjectSerialize@CStructureSaver@@AAAXDHPAV?$CPtr@VCSkeleton@NDb@@@@ZZ
?CallObjectSerialize@CStructureSaver@@AAAXDHPAV?$CPtr@VCSolidModel@NDb@@@@ZZ
?CallObjectSerialize@CStructureSaver@@AAAXDHPAV?$CPtr@VCSound@NDb@@@@ZZ
?CallObjectSerialize@CStructureSaver@@AAAXDHPAV?$CPtr@VCSoundEffect@NDb@@@@ZZ
?CallObjectSerialize@CStructureSaver@@AAAXDHPAV?$CPtr@VCSoundInstance@NDb@@@@ZZ
?CallObjectSerialize@CStructureSaver@@AAAXDHPAV?$CPtr@VCSoundVariant@NDb@@@@ZZ
?CallObjectSerialize@CStructureSaver@@AAAXDHPAV?$CPtr@VCSpot@NDb@@@@ZZ
?CallObjectSerialize@CStructureSaver@@AAAXDHPAV?$CPtr@VCString@NDb@@@@ZZ
?CallObjectSerialize@CStructureSaver@@AAAXDHPAV?$CPtr@VCTAmbientLight@NDb@@@@ZZ
?CallObjectSerialize@CStructureSaver@@AAAXDHPAV?$CPtr@VCTConstructionPart@NDb@@@@ZZ
?CallObjectSerialize@CStructureSaver@@AAAXDHPAV?$CPtr@VCTEffect@NDb@@@@ZZ
?CallObjectSerialize@CStructureSaver@@AAAXDHPAV?$CPtr@VCTMaterial@NDb@@@@ZZ
?CallObjectSerialize@CStructureSaver@@AAAXDHPAV?$CPtr@VCTRndModel@NDb@@@@ZZ
?CallObjectSerialize@CStructureSaver@@AAAXDHPAV?$CPtr@VCTRndObject@NDb@@@@ZZ
?CallObjectSerialize@CStructureSaver@@AAAXDHPAV?$CPtr@VCTSound@NDb@@@@ZZ
?CallObjectSerialize@CStructureSaver@@AAAXDHPAV?$CPtr@VCTemplVariant@NDb@@@@ZZ
?CallObjectSerialize@CStructureSaver@@AAAXDHPAV?$CPtr@VCTemplate@NDb@@@@ZZ
?CallObjectSerialize@CStructureSaver@@AAAXDHPAV?$CPtr@VCTexture@NDb@@@@ZZ
?CallObjectSerialize@CStructureSaver@@AAAXDHPAV?$CPtr@VCUIContainer@NDb@@@@ZZ
?CallObjectSerialize@CStructureSaver@@AAAXDHPAV?$CPtr@VCUIControl@NDb@@@@ZZ
?CallObjectSerialize@CStructureSaver@@AAAXDHPAV?$CPtr@VCUITexture@NDb@@@@ZZ
?CallObjectSerialize@CStructureSaver@@AAAXDHPAV?$CPtr@VCUnit@NDb@@@@ZZ
?CallObjectSerialize@CStructureSaver@@AAAXDHPAV?$CPtr@VCUnitGroup@NDb@@@@ZZ
?CallObjectSerialize@CStructureSaver@@AAAXDHPAV?$CPtr@VCWallModel@NDb@@@@ZZ
?CallObjectSerialize@CStructureSaver@@AAAXDHPAV?$CPtr@VCWaypoint@NDb@@@@ZZ
?CallObjectSerialize@CStructureSaver@@AAAXDHPAV?$CPtr@VCWaypointName@NDb@@@@ZZ
?CallObjectSerialize@CStructureSaver@@AAAXDHPAV?$CRndPtr@VCRndObject@NDb@@@@ZZ
?CallObjectSerialize@CStructureSaver@@AAAXDHPAV?$CRndPtr@VCTemplVariant@NDb@@@@ZZ
?CallObjectSerialize@CStructureSaver@@AAAXDHPAV?$CTPoint@H@@PAU?$SGenericNumberTemplate@$00@@@Z
?CallObjectSerialize@CStructureSaver@@AAAXDHPAV?$CTRect@H@@PAU?$SGenericNumberTemplate@$00@@@Z
?CallObjectSerialize@CStructureSaver@@AAAXDHPAVCDBRecord@@ZZ
?CallObjectSerialize@CStructureSaver@@AAAXDHPAVCQuat@@PAU?$SGenericNumberTemplate@$00@@@Z
?CallObjectSerialize@CStructureSaver@@AAAXDHPAVCRPGLink4Pers@NDb@@ZZ
?CallObjectSerialize@CStructureSaver@@AAAXDHPAVCRoulette@@ZZ
?CallObjectSerialize@CStructureSaver@@AAAXDHPAVCVec2@@PAU?$SGenericNumberTemplate@$00@@@Z
?CallObjectSerialize@CStructureSaver@@AAAXDHPAVCVec3@@PAU?$SGenericNumberTemplate@$00@@@Z
?CallObjectSerialize@CStructureSaver@@AAAXDHPAW4EAddressMode@CMaterial@NDb@@PAU?$SGenericNumberTemplate@$00@@@Z
?CallObjectSerialize@CStructureSaver@@AAAXDHPAW4EAlpha@CMaterial@NDb@@PAU?$SGenericNumberTemplate@$00@@@Z
?CallObjectSerialize@CStructureSaver@@AAAXDHPAW4EAmmoColor@NDb@@PAU?$SGenericNumberTemplate@$00@@@Z
?CallObjectSerialize@CStructureSaver@@AAAXDHPAW4ECanSave@NDb@@PAU?$SGenericNumberTemplate@$00@@@Z
?CallObjectSerialize@CStructureSaver@@AAAXDHPAW4ECritical@NDb@@PAU?$SGenericNumberTemplate@$00@@@Z
?CallObjectSerialize@CStructureSaver@@AAAXDHPAW4ECriticalLocation@NDb@@PAU?$SGenericNumberTemplate@$00@@@Z
?CallObjectSerialize@CStructureSaver@@AAAXDHPAW4EFirstAidEffect@NDb@@PAU?$SGenericNumberTemplate@$00@@@Z
?CallObjectSerialize@CStructureSaver@@AAAXDHPAW4EHMBlendType@NDb@@PAU?$SGenericNumberTemplate@$00@@@Z
?CallObjectSerialize@CStructureSaver@@AAAXDHPAW4EItemSubType@NDb@@PAU?$SGenericNumberTemplate@$00@@@Z
?CallObjectSerialize@CStructureSaver@@AAAXDHPAW4ELight@CParticleInstance@NDb@@PAU?$SGenericNumberTemplate@$00@@@Z
?CallObjectSerialize@CStructureSaver@@AAAXDHPAW4EMusicType@NDb@@PAU?$SGenericNumberTemplate@$00@@@Z
?CallObjectSerialize@CStructureSaver@@AAAXDHPAW4EScenarioClueType@NDb@@PAU?$SGenericNumberTemplate@$00@@@Z
?CallObjectSerialize@CStructureSaver@@AAAXDHPAW4EScenarioObjectiveType@NDb@@PAU?$SGenericNumberTemplate@$00@@@Z
?CallObjectSerialize@CStructureSaver@@AAAXDHPAW4ESoundType@NDb@@PAU?$SGenericNumberTemplate@$00@@@Z
?CallObjectSerialize@CStructureSaver@@AAAXDHPAW4EStatic@CParticleInstance@NDb@@PAU?$SGenericNumberTemplate@$00@@@Z
?CallObjectSerialize@CStructureSaver@@AAAXDHPAW4EStoreWeaponType@NDb@@PAU?$SGenericNumberTemplate@$00@@@Z
?CallObjectSerialize@CStructureSaver@@AAAXDHPAW4ETrafic@NDb@@PAU?$SGenericNumberTemplate@$00@@@Z
?CallObjectSerialize@CStructureSaver@@AAAXDHPAW4EType@CAnimation@NDb@@PAU?$SGenericNumberTemplate@$00@@@Z
?CallObjectSerialize@CStructureSaver@@AAAXDHPAW4EType@CTexture@NDb@@PAU?$SGenericNumberTemplate@$00@@@Z
?CallObjectSerialize@CStructureSaver@@AAAXDHPAW4EUIControl@NDb@@PAU?$SGenericNumberTemplate@$00@@@Z
?CallObjectSerialize@CStructureSaver@@AAAXDHPAW4EUnitLogic@NDb@@PAU?$SGenericNumberTemplate@$00@@@Z
?CallObjectSerialize@CStructureSaver@@AAAXDHPAW4EUnitPose@NDb@@PAU?$SGenericNumberTemplate@$00@@@Z
?CallObjectSerialize@CStructureSaver@@AAAXDHPAW4EWeaponType@NDb@@PAU?$SGenericNumberTemplate@$00@@@Z
?CallObjectSerialize@CStructureSaver@@AAAXDHPAY06_NPAU?$SGenericNumberTemplate@$00@@@Z
?CallObjectSerialize@CStructureSaver@@AAAXDHPAY08W4EItemSubType@NDb@@PAU?$SGenericNumberTemplate@$00@@@Z
?CallObjectSerialize@CStructureSaver@@AAAXDHPAY0M@HPAU?$SGenericNumberTemplate@$00@@@Z
?CallObjectSerialize@CStructureSaver@@AAAXDHPA_NPAU?$SGenericNumberTemplate@$00@@@Z
?CastToObjectBase@@YAPAVCObjectBase@@PAVCAIGeometry@NDb@@@Z
?CastToObjectBase@@YAPAVCObjectBase@@PAVCAISound@NDb@@@Z
?CastToObjectBase@@YAPAVCObjectBase@@PAVCAmbientLight@NDb@@@Z
?CastToObjectBase@@YAPAVCObjectBase@@PAVCAmbientLightReal@NDb@@@Z
?CastToObjectBase@@YAPAVCObjectBase@@PAVCAnimLight@NDb@@@Z
?CastToObjectBase@@YAPAVCObjectBase@@PAVCAnimWeaponType@NDb@@@Z
?CastToObjectBase@@YAPAVCObjectBase@@PAVCAnimation@NDb@@@Z
?CastToObjectBase@@YAPAVCObjectBase@@PAVCBRDF@NDb@@@Z
?CastToObjectBase@@YAPAVCObjectBase@@PAVCComplexHead@NDb@@@Z
?CastToObjectBase@@YAPAVCObjectBase@@PAVCContainerModel@NDb@@@Z
?CastToObjectBase@@YAPAVCObjectBase@@PAVCCubeTexture@NDb@@@Z
?CastToObjectBase@@YAPAVCObjectBase@@PAVCDBAckInfo@NDb@@@Z
?CastToObjectBase@@YAPAVCObjectBase@@PAVCDBAckSequence@NDb@@@Z
?CastToObjectBase@@YAPAVCObjectBase@@PAVCDBDialog@NDb@@@Z
?CastToObjectBase@@YAPAVCObjectBase@@PAVCDBDialogPers@NDb@@@Z
?CastToObjectBase@@YAPAVCObjectBase@@PAVCDBDiplomacy@NDb@@@Z
?CastToObjectBase@@YAPAVCObjectBase@@PAVCDBPerk@NDb@@@Z
?CastToObjectBase@@YAPAVCObjectBase@@PAVCDBRecord@@@Z
?CastToObjectBase@@YAPAVCObjectBase@@PAVCDBScenario@NDb@@@Z
?CastToObjectBase@@YAPAVCObjectBase@@PAVCDBScenarioClue@NDb@@@Z
?CastToObjectBase@@YAPAVCObjectBase@@PAVCDBScenarioObjective@NDb@@@Z
?CastToObjectBase@@YAPAVCObjectBase@@PAVCDBScenarioState@NDb@@@Z
?CastToObjectBase@@YAPAVCObjectBase@@PAVCDBScenarioZone@NDb@@@Z
?CastToObjectBase@@YAPAVCObjectBase@@PAVCDebris@NDb@@@Z
?CastToObjectBase@@YAPAVCObjectBase@@PAVCDebrisMaterial@NDb@@@Z
?CastToObjectBase@@YAPAVCObjectBase@@PAVCDoor@NDb@@@Z
?CastToObjectBase@@YAPAVCObjectBase@@PAVCEffect@NDb@@@Z
?CastToObjectBase@@YAPAVCObjectBase@@PAVCExplosion@NDb@@@Z
?CastToObjectBase@@YAPAVCObjectBase@@PAVCFinalElement@NDb@@@Z
?CastToObjectBase@@YAPAVCObjectBase@@PAVCFloorModel@NDb@@@Z
?CastToObjectBase@@YAPAVCObjectBase@@PAVCGeometry@NDb@@@Z
?CastToObjectBase@@YAPAVCObjectBase@@PAVCGun@NDb@@@Z
?CastToObjectBase@@YAPAVCObjectBase@@PAVCHead@NDb@@@Z
?CastToObjectBase@@YAPAVCObjectBase@@PAVCLightInstance@NDb@@@Z
?CastToObjectBase@@YAPAVCObjectBase@@PAVCMaterial@NDb@@@Z
?CastToObjectBase@@YAPAVCObjectBase@@PAVCModel@NDb@@@Z
?CastToObjectBase@@YAPAVCObjectBase@@PAVCMusic@NDb@@@Z
?CastToObjectBase@@YAPAVCObjectBase@@PAVCNationality@NDb@@@Z
?CastToObjectBase@@YAPAVCObjectBase@@PAVCObject@NDb@@@Z
?CastToObjectBase@@YAPAVCObjectBase@@PAVCPanzerklein@NDb@@@Z
?CastToObjectBase@@YAPAVCObjectBase@@PAVCParticle@NDb@@@Z
?CastToObjectBase@@YAPAVCObjectBase@@PAVCParticleInstance@NDb@@@Z
?CastToObjectBase@@YAPAVCObjectBase@@PAVCPassageObject@NDb@@@Z
?CastToObjectBase@@YAPAVCObjectBase@@PAVCPlacableObject@NDb@@@Z
?CastToObjectBase@@YAPAVCObjectBase@@PAVCRPGAmmo@NDb@@@Z
?CastToObjectBase@@YAPAVCObjectBase@@PAVCRPGArmor@NDb@@@Z
?CastToObjectBase@@YAPAVCObjectBase@@PAVCRPGBaseValue@NDb@@@Z
?CastToObjectBase@@YAPAVCObjectBase@@PAVCRPGClass@NDb@@@Z
?CastToObjectBase@@YAPAVCObjectBase@@PAVCRPGClip@NDb@@@Z
?CastToObjectBase@@YAPAVCObjectBase@@PAVCRPGFirstAid@NDb@@@Z
?CastToObjectBase@@YAPAVCObjectBase@@PAVCRPGGrenade@NDb@@@Z
?CastToObjectBase@@YAPAVCObjectBase@@PAVCRPGItem@NDb@@@Z
?CastToObjectBase@@YAPAVCObjectBase@@PAVCRPGKey@NDb@@@Z
?CastToObjectBase@@YAPAVCObjectBase@@PAVCRPGMaterial@NDb@@@Z
?CastToObjectBase@@YAPAVCObjectBase@@PAVCRPGMeleeWeapon@NDb@@@Z
?CastToObjectBase@@YAPAVCObjectBase@@PAVCRPGMine@NDb@@@Z
?CastToObjectBase@@YAPAVCObjectBase@@PAVCRPGMineDetector@NDb@@@Z
?CastToObjectBase@@YAPAVCObjectBase@@PAVCRPGPers@NDb@@@Z
?CastToObjectBase@@YAPAVCObjectBase@@PAVCRPGTool@NDb@@@Z
?CastToObjectBase@@YAPAVCObjectBase@@PAVCRPGUniform@NDb@@@Z
?CastToObjectBase@@YAPAVCObjectBase@@PAVCRPGWeapon@NDb@@@Z
?CastToObjectBase@@YAPAVCObjectBase@@PAVCRPGWeaponType@NDb@@@Z
?CastToObjectBase@@YAPAVCObjectBase@@PAVCRectangle@NDb@@@Z
?CastToObjectBase@@YAPAVCObjectBase@@PAVCRndConstructionPart@NDb@@@Z
?CastToObjectBase@@YAPAVCObjectBase@@PAVCRndContainerModel@NDb@@@Z
?CastToObjectBase@@YAPAVCObjectBase@@PAVCRndModel@NDb@@@Z
?CastToObjectBase@@YAPAVCObjectBase@@PAVCRndObject@NDb@@@Z
?CastToObjectBase@@YAPAVCObjectBase@@PAVCRndTerrainSpot@NDb@@@Z
?CastToObjectBase@@YAPAVCObjectBase@@PAVCScript@NDb@@@Z
?CastToObjectBase@@YAPAVCObjectBase@@PAVCSequence@NDb@@@Z
?CastToObjectBase@@YAPAVCObjectBase@@PAVCSide@NDb@@@Z
?CastToObjectBase@@YAPAVCObjectBase@@PAVCSkeleton@NDb@@@Z
?CastToObjectBase@@YAPAVCObjectBase@@PAVCSolidModel@NDb@@@Z
?CastToObjectBase@@YAPAVCObjectBase@@PAVCSound@NDb@@@Z
?CastToObjectBase@@YAPAVCObjectBase@@PAVCSoundEffect@NDb@@@Z
?CastToObjectBase@@YAPAVCObjectBase@@PAVCSoundInstance@NDb@@@Z
?CastToObjectBase@@YAPAVCObjectBase@@PAVCSoundVariant@NDb@@@Z
?CastToObjectBase@@YAPAVCObjectBase@@PAVCSpot@NDb@@@Z
?CastToObjectBase@@YAPAVCObjectBase@@PAVCString@NDb@@@Z
?CastToObjectBase@@YAPAVCObjectBase@@PAVCTAmbientLight@NDb@@@Z
?CastToObjectBase@@YAPAVCObjectBase@@PAVCTConstructionPart@NDb@@@Z
?CastToObjectBase@@YAPAVCObjectBase@@PAVCTEffect@NDb@@@Z
?CastToObjectBase@@YAPAVCObjectBase@@PAVCTMaterial@NDb@@@Z
?CastToObjectBase@@YAPAVCObjectBase@@PAVCTRndModel@NDb@@@Z
?CastToObjectBase@@YAPAVCObjectBase@@PAVCTRndObject@NDb@@@Z
?CastToObjectBase@@YAPAVCObjectBase@@PAVCTSound@NDb@@@Z
?CastToObjectBase@@YAPAVCObjectBase@@PAVCTemplVariant@NDb@@@Z
?CastToObjectBase@@YAPAVCObjectBase@@PAVCTemplate@NDb@@@Z
?CastToObjectBase@@YAPAVCObjectBase@@PAVCTexture@NDb@@@Z
?CastToObjectBase@@YAPAVCObjectBase@@PAVCUIContainer@NDb@@@Z
?CastToObjectBase@@YAPAVCObjectBase@@PAVCUIControl@NDb@@@Z
?CastToObjectBase@@YAPAVCObjectBase@@PAVCUITexture@NDb@@@Z
?CastToObjectBase@@YAPAVCObjectBase@@PAVCUnit@NDb@@@Z
?CastToObjectBase@@YAPAVCObjectBase@@PAVCUnitGroup@NDb@@@Z
?CastToObjectBase@@YAPAVCObjectBase@@PAVCWallModel@NDb@@@Z
?CastToObjectBase@@YAPAVCObjectBase@@PAVCWaypoint@NDb@@@Z
?CastToObjectBase@@YAPAVCObjectBase@@PAVCWaypointName@NDb@@@Z
?CastToObjectBaseImpl@@YAPAVCObjectBase@@PAV?$CRPGSomethingForPers@VCRPGFirstAid@NDb@@@NDb@@PAX@Z
?CastToObjectBaseImpl@@YAPAVCObjectBase@@PAV?$CRPGSomethingForPers@VCRPGGrenade@NDb@@@NDb@@PAX@Z
?CastToObjectBaseImpl@@YAPAVCObjectBase@@PAV?$CRPGSomethingForPers@VCRPGKey@NDb@@@NDb@@PAX@Z
?CastToObjectBaseImpl@@YAPAVCObjectBase@@PAV?$CRPGSomethingForPers@VCRPGMeleeWeapon@NDb@@@NDb@@PAX@Z
?CastToObjectBaseImpl@@YAPAVCObjectBase@@PAV?$CRPGSomethingForPers@VCRPGMine@NDb@@@NDb@@PAX@Z
?CastToObjectBaseImpl@@YAPAVCObjectBase@@PAV?$CRPGSomethingForPers@VCRPGMineDetector@NDb@@@NDb@@PAX@Z
?CastToObjectBaseImpl@@YAPAVCObjectBase@@PAV?$CRPGSomethingForPers@VCRPGTool@NDb@@@NDb@@PAX@Z
?CastToObjectBaseImpl@@YAPAVCObjectBase@@PAV?$CRPGSomethingForPers@VCRPGWeapon@NDb@@@NDb@@PAX@Z
?CastToObjectBaseImpl@@YAPAVCObjectBase@@PAVCAIGeometry@NDb@@PAV1@@Z
?CastToObjectBaseImpl@@YAPAVCObjectBase@@PAVCAIGeometry@NDb@@PAX@Z
?CastToObjectBaseImpl@@YAPAVCObjectBase@@PAVCAISound@NDb@@PAV1@@Z
?CastToObjectBaseImpl@@YAPAVCObjectBase@@PAVCAISound@NDb@@PAX@Z
?CastToObjectBaseImpl@@YAPAVCObjectBase@@PAVCAmbientLight@NDb@@PAV1@@Z
?CastToObjectBaseImpl@@YAPAVCObjectBase@@PAVCAmbientLight@NDb@@PAX@Z
?CastToObjectBaseImpl@@YAPAVCObjectBase@@PAVCAmbientLightReal@NDb@@PAV1@@Z
?CastToObjectBaseImpl@@YAPAVCObjectBase@@PAVCAmbientLightReal@NDb@@PAX@Z
?CastToObjectBaseImpl@@YAPAVCObjectBase@@PAVCAnimLight@NDb@@PAV1@@Z
?CastToObjectBaseImpl@@YAPAVCObjectBase@@PAVCAnimLight@NDb@@PAX@Z
?CastToObjectBaseImpl@@YAPAVCObjectBase@@PAVCAnimWeaponType@NDb@@PAV1@@Z
?CastToObjectBaseImpl@@YAPAVCObjectBase@@PAVCAnimWeaponType@NDb@@PAX@Z
?CastToObjectBaseImpl@@YAPAVCObjectBase@@PAVCAnimation@NDb@@PAV1@@Z
?CastToObjectBaseImpl@@YAPAVCObjectBase@@PAVCAnimation@NDb@@PAX@Z
?CastToObjectBaseImpl@@YAPAVCObjectBase@@PAVCAttribute@NDb@@PAX@Z
?CastToObjectBaseImpl@@YAPAVCObjectBase@@PAVCBRDF@NDb@@PAV1@@Z
?CastToObjectBaseImpl@@YAPAVCObjectBase@@PAVCBRDF@NDb@@PAX@Z
?CastToObjectBaseImpl@@YAPAVCObjectBase@@PAVCChapterMap@NDb@@PAX@Z
?CastToObjectBaseImpl@@YAPAVCObjectBase@@PAVCComplexHead@NDb@@PAV1@@Z
?CastToObjectBaseImpl@@YAPAVCObjectBase@@PAVCComplexHead@NDb@@PAX@Z
?CastToObjectBaseImpl@@YAPAVCObjectBase@@PAVCConstructionPart@NDb@@PAX@Z
?CastToObjectBaseImpl@@YAPAVCObjectBase@@PAVCContainer@NDb@@PAX@Z
?CastToObjectBaseImpl@@YAPAVCObjectBase@@PAVCContainerModel@NDb@@PAV1@@Z
?CastToObjectBaseImpl@@YAPAVCObjectBase@@PAVCContainerModel@NDb@@PAX@Z
?CastToObjectBaseImpl@@YAPAVCObjectBase@@PAVCCubeTexture@NDb@@PAV1@@Z
?CastToObjectBaseImpl@@YAPAVCObjectBase@@PAVCCubeTexture@NDb@@PAX@Z
?CastToObjectBaseImpl@@YAPAVCObjectBase@@PAVCDBAck@NDb@@PAX@Z
?CastToObjectBaseImpl@@YAPAVCObjectBase@@PAVCDBAckInfo@NDb@@PAV1@@Z
?CastToObjectBaseImpl@@YAPAVCObjectBase@@PAVCDBAckInfo@NDb@@PAX@Z
?CastToObjectBaseImpl@@YAPAVCObjectBase@@PAVCDBAckSequence@NDb@@PAV1@@Z
?CastToObjectBaseImpl@@YAPAVCObjectBase@@PAVCDBAckSequence@NDb@@PAX@Z
?CastToObjectBaseImpl@@YAPAVCObjectBase@@PAVCDBAutoLoadScript@NDb@@PAX@Z
?CastToObjectBaseImpl@@YAPAVCObjectBase@@PAVCDBCamera@NDb@@PAX@Z
?CastToObjectBaseImpl@@YAPAVCObjectBase@@PAVCDBDialog@NDb@@PAV1@@Z
?CastToObjectBaseImpl@@YAPAVCObjectBase@@PAVCDBDialog@NDb@@PAX@Z
?CastToObjectBaseImpl@@YAPAVCObjectBase@@PAVCDBDialogPers@NDb@@PAV1@@Z
?CastToObjectBaseImpl@@YAPAVCObjectBase@@PAVCDBDialogPers@NDb@@PAX@Z
?CastToObjectBaseImpl@@YAPAVCObjectBase@@PAVCDBDialogSeq@NDb@@PAX@Z
?CastToObjectBaseImpl@@YAPAVCObjectBase@@PAVCDBDifficulty@NDb@@PAX@Z
?CastToObjectBaseImpl@@YAPAVCObjectBase@@PAVCDBDiplomacy@NDb@@PAV1@@Z
?CastToObjectBaseImpl@@YAPAVCObjectBase@@PAVCDBDiplomacy@NDb@@PAX@Z
?CastToObjectBaseImpl@@YAPAVCObjectBase@@PAVCDBMinesConstants@NDb@@PAX@Z
?CastToObjectBaseImpl@@YAPAVCObjectBase@@PAVCDBPerk@NDb@@PAV1@@Z
?CastToObjectBaseImpl@@YAPAVCObjectBase@@PAVCDBPerk@NDb@@PAX@Z
?CastToObjectBaseImpl@@YAPAVCObjectBase@@PAVCDBPerkTreeNode@NDb@@PAX@Z
?CastToObjectBaseImpl@@YAPAVCObjectBase@@PAVCDBRecord@@PAV1@@Z
?CastToObjectBaseImpl@@YAPAVCObjectBase@@PAVCDBScenario@NDb@@PAV1@@Z
?CastToObjectBaseImpl@@YAPAVCObjectBase@@PAVCDBScenario@NDb@@PAX@Z
?CastToObjectBaseImpl@@YAPAVCObjectBase@@PAVCDBScenarioClue@NDb@@PAV1@@Z
?CastToObjectBaseImpl@@YAPAVCObjectBase@@PAVCDBScenarioClue@NDb@@PAX@Z
?CastToObjectBaseImpl@@YAPAVCObjectBase@@PAVCDBScenarioObjective2Clue@NDb@@PAX@Z
?CastToObjectBaseImpl@@YAPAVCObjectBase@@PAVCDBScenarioObjective@NDb@@PAV1@@Z
?CastToObjectBaseImpl@@YAPAVCObjectBase@@PAVCDBScenarioObjective@NDb@@PAX@Z
?CastToObjectBaseImpl@@YAPAVCObjectBase@@PAVCDBScenarioState@NDb@@PAV1@@Z
?CastToObjectBaseImpl@@YAPAVCObjectBase@@PAVCDBScenarioState@NDb@@PAX@Z
?CastToObjectBaseImpl@@YAPAVCObjectBase@@PAVCDBScenarioZone@NDb@@PAV1@@Z
?CastToObjectBaseImpl@@YAPAVCObjectBase@@PAVCDBScenarioZone@NDb@@PAX@Z
?CastToObjectBaseImpl@@YAPAVCObjectBase@@PAVCDebris@NDb@@PAV1@@Z
?CastToObjectBaseImpl@@YAPAVCObjectBase@@PAVCDebris@NDb@@PAX@Z
?CastToObjectBaseImpl@@YAPAVCObjectBase@@PAVCDebrisMaterial@NDb@@PAV1@@Z
?CastToObjectBaseImpl@@YAPAVCObjectBase@@PAVCDebrisMaterial@NDb@@PAX@Z
?CastToObjectBaseImpl@@YAPAVCObjectBase@@PAVCDoor@NDb@@PAV1@@Z
?CastToObjectBaseImpl@@YAPAVCObjectBase@@PAVCDoor@NDb@@PAX@Z
?CastToObjectBaseImpl@@YAPAVCObjectBase@@PAVCEffect@NDb@@PAV1@@Z
?CastToObjectBaseImpl@@YAPAVCObjectBase@@PAVCEffect@NDb@@PAX@Z
?CastToObjectBaseImpl@@YAPAVCObjectBase@@PAVCExplosion@NDb@@PAV1@@Z
?CastToObjectBaseImpl@@YAPAVCObjectBase@@PAVCExplosion@NDb@@PAX@Z
?CastToObjectBaseImpl@@YAPAVCObjectBase@@PAVCFinalElement@NDb@@PAV1@@Z
?CastToObjectBaseImpl@@YAPAVCObjectBase@@PAVCFinalElement@NDb@@PAX@Z
?CastToObjectBaseImpl@@YAPAVCObjectBase@@PAVCFloor@NDb@@PAX@Z
?CastToObjectBaseImpl@@YAPAVCObjectBase@@PAVCFloorModel@NDb@@PAV1@@Z
?CastToObjectBaseImpl@@YAPAVCObjectBase@@PAVCFloorModel@NDb@@PAX@Z
?CastToObjectBaseImpl@@YAPAVCObjectBase@@PAVCGeometry@NDb@@PAV1@@Z
?CastToObjectBaseImpl@@YAPAVCObjectBase@@PAVCGeometry@NDb@@PAX@Z
?CastToObjectBaseImpl@@YAPAVCObjectBase@@PAVCGlobalMap@NDb@@PAX@Z
?CastToObjectBaseImpl@@YAPAVCObjectBase@@PAVCGrass@NDb@@PAX@Z
?CastToObjectBaseImpl@@YAPAVCObjectBase@@PAVCGun@NDb@@PAV1@@Z
?CastToObjectBaseImpl@@YAPAVCObjectBase@@PAVCGun@NDb@@PAX@Z
?CastToObjectBaseImpl@@YAPAVCObjectBase@@PAVCHead@NDb@@PAV1@@Z
?CastToObjectBaseImpl@@YAPAVCObjectBase@@PAVCHead@NDb@@PAX@Z
?CastToObjectBaseImpl@@YAPAVCObjectBase@@PAVCIntermediateFloor@NDb@@PAX@Z
?CastToObjectBaseImpl@@YAPAVCObjectBase@@PAVCIntermediateSolid@NDb@@PAX@Z
?CastToObjectBaseImpl@@YAPAVCObjectBase@@PAVCLightInstance@NDb@@PAV1@@Z
?CastToObjectBaseImpl@@YAPAVCObjectBase@@PAVCLightInstance@NDb@@PAX@Z
?CastToObjectBaseImpl@@YAPAVCObjectBase@@PAVCMaterial@NDb@@PAV1@@Z
?CastToObjectBaseImpl@@YAPAVCObjectBase@@PAVCMaterial@NDb@@PAX@Z
?CastToObjectBaseImpl@@YAPAVCObjectBase@@PAVCModel@NDb@@PAV1@@Z
?CastToObjectBaseImpl@@YAPAVCObjectBase@@PAVCModel@NDb@@PAX@Z
?CastToObjectBaseImpl@@YAPAVCObjectBase@@PAVCMusic@NDb@@PAV1@@Z
?CastToObjectBaseImpl@@YAPAVCObjectBase@@PAVCMusic@NDb@@PAX@Z
?CastToObjectBaseImpl@@YAPAVCObjectBase@@PAVCNationality@NDb@@PAV1@@Z
?CastToObjectBaseImpl@@YAPAVCObjectBase@@PAVCNationality@NDb@@PAX@Z
?CastToObjectBaseImpl@@YAPAVCObjectBase@@PAVCObject@NDb@@PAV1@@Z
?CastToObjectBaseImpl@@YAPAVCObjectBase@@PAVCObject@NDb@@PAX@Z
?CastToObjectBaseImpl@@YAPAVCObjectBase@@PAVCPanzerklein@NDb@@PAV1@@Z
?CastToObjectBaseImpl@@YAPAVCObjectBase@@PAVCPanzerklein@NDb@@PAX@Z
?CastToObjectBaseImpl@@YAPAVCObjectBase@@PAVCParticle@NDb@@PAV1@@Z
?CastToObjectBaseImpl@@YAPAVCObjectBase@@PAVCParticle@NDb@@PAX@Z
?CastToObjectBaseImpl@@YAPAVCObjectBase@@PAVCParticleInstance@NDb@@PAV1@@Z
?CastToObjectBaseImpl@@YAPAVCObjectBase@@PAVCParticleInstance@NDb@@PAX@Z
?CastToObjectBaseImpl@@YAPAVCObjectBase@@PAVCPassageObject@NDb@@PAV1@@Z
?CastToObjectBaseImpl@@YAPAVCObjectBase@@PAVCPassageObject@NDb@@PAX@Z
?CastToObjectBaseImpl@@YAPAVCObjectBase@@PAVCPlacableObject@NDb@@PAV1@@Z
?CastToObjectBaseImpl@@YAPAVCObjectBase@@PAVCPlacableObject@NDb@@PAX@Z
?CastToObjectBaseImpl@@YAPAVCObjectBase@@PAVCRPGAISoundConstants@NDb@@PAX@Z
?CastToObjectBaseImpl@@YAPAVCObjectBase@@PAVCRPGAmmo@NDb@@PAV1@@Z
?CastToObjectBaseImpl@@YAPAVCObjectBase@@PAVCRPGAmmo@NDb@@PAX@Z
?CastToObjectBaseImpl@@YAPAVCObjectBase@@PAVCRPGArmor@NDb@@PAV1@@Z
?CastToObjectBaseImpl@@YAPAVCObjectBase@@PAVCRPGArmor@NDb@@PAX@Z
?CastToObjectBaseImpl@@YAPAVCObjectBase@@PAVCRPGBaseValue@NDb@@PAV1@@Z
?CastToObjectBaseImpl@@YAPAVCObjectBase@@PAVCRPGBaseValue@NDb@@PAX@Z
?CastToObjectBaseImpl@@YAPAVCObjectBase@@PAVCRPGClass@NDb@@PAV1@@Z
?CastToObjectBaseImpl@@YAPAVCObjectBase@@PAVCRPGClass@NDb@@PAX@Z
?CastToObjectBaseImpl@@YAPAVCObjectBase@@PAVCRPGClip4Pers@NDb@@PAX@Z
?CastToObjectBaseImpl@@YAPAVCObjectBase@@PAVCRPGClip@NDb@@PAV1@@Z
?CastToObjectBaseImpl@@YAPAVCObjectBase@@PAVCRPGClip@NDb@@PAX@Z
?CastToObjectBaseImpl@@YAPAVCObjectBase@@PAVCRPGCritical@NDb@@PAX@Z
?CastToObjectBaseImpl@@YAPAVCObjectBase@@PAVCRPGDmgToArmor@NDb@@PAX@Z
?CastToObjectBaseImpl@@YAPAVCObjectBase@@PAVCRPGFirstAid@NDb@@PAV1@@Z
?CastToObjectBaseImpl@@YAPAVCObjectBase@@PAVCRPGFirstAid@NDb@@PAX@Z
?CastToObjectBaseImpl@@YAPAVCObjectBase@@PAVCRPGGrenade@NDb@@PAV1@@Z
?CastToObjectBaseImpl@@YAPAVCObjectBase@@PAVCRPGGrenade@NDb@@PAX@Z
?CastToObjectBaseImpl@@YAPAVCObjectBase@@PAVCRPGInterruptsConstants@NDb@@PAX@Z
?CastToObjectBaseImpl@@YAPAVCObjectBase@@PAVCRPGItem2Uniform@NDb@@PAX@Z
?CastToObjectBaseImpl@@YAPAVCObjectBase@@PAVCRPGItem@NDb@@PAV1@@Z
?CastToObjectBaseImpl@@YAPAVCObjectBase@@PAVCRPGItem@NDb@@PAX@Z
?CastToObjectBaseImpl@@YAPAVCObjectBase@@PAVCRPGKey@NDb@@PAV1@@Z
?CastToObjectBaseImpl@@YAPAVCObjectBase@@PAVCRPGKey@NDb@@PAX@Z
?CastToObjectBaseImpl@@YAPAVCObjectBase@@PAVCRPGMaterial@NDb@@PAV1@@Z
?CastToObjectBaseImpl@@YAPAVCObjectBase@@PAVCRPGMaterial@NDb@@PAX@Z
?CastToObjectBaseImpl@@YAPAVCObjectBase@@PAVCRPGMeleeWeapon@NDb@@PAV1@@Z
?CastToObjectBaseImpl@@YAPAVCObjectBase@@PAVCRPGMeleeWeapon@NDb@@PAX@Z
?CastToObjectBaseImpl@@YAPAVCObjectBase@@PAVCRPGMine@NDb@@PAV1@@Z
?CastToObjectBaseImpl@@YAPAVCObjectBase@@PAVCRPGMine@NDb@@PAX@Z
?CastToObjectBaseImpl@@YAPAVCObjectBase@@PAVCRPGMineDetector@NDb@@PAV1@@Z
?CastToObjectBaseImpl@@YAPAVCObjectBase@@PAVCRPGMineDetector@NDb@@PAX@Z
?CastToObjectBaseImpl@@YAPAVCObjectBase@@PAVCRPGPers@NDb@@PAV1@@Z
?CastToObjectBaseImpl@@YAPAVCObjectBase@@PAVCRPGPers@NDb@@PAX@Z
?CastToObjectBaseImpl@@YAPAVCObjectBase@@PAVCRPGStoreItem@NDb@@PAX@Z
?CastToObjectBaseImpl@@YAPAVCObjectBase@@PAVCRPGToHit@NDb@@PAX@Z
?CastToObjectBaseImpl@@YAPAVCObjectBase@@PAVCRPGTool@NDb@@PAV1@@Z
?CastToObjectBaseImpl@@YAPAVCObjectBase@@PAVCRPGTool@NDb@@PAX@Z
?CastToObjectBaseImpl@@YAPAVCObjectBase@@PAVCRPGUniform@NDb@@PAV1@@Z
?CastToObjectBaseImpl@@YAPAVCObjectBase@@PAVCRPGUniform@NDb@@PAX@Z
?CastToObjectBaseImpl@@YAPAVCObjectBase@@PAVCRPGWeapon@NDb@@PAV1@@Z
?CastToObjectBaseImpl@@YAPAVCObjectBase@@PAVCRPGWeapon@NDb@@PAX@Z
?CastToObjectBaseImpl@@YAPAVCObjectBase@@PAVCRPGWeaponType@NDb@@PAV1@@Z
?CastToObjectBaseImpl@@YAPAVCObjectBase@@PAVCRPGWeaponType@NDb@@PAX@Z
?CastToObjectBaseImpl@@YAPAVCObjectBase@@PAVCRectangle@NDb@@PAV1@@Z
?CastToObjectBaseImpl@@YAPAVCObjectBase@@PAVCRectangle@NDb@@PAX@Z
?CastToObjectBaseImpl@@YAPAVCObjectBase@@PAVCRndConstructionPart@NDb@@PAV1@@Z
?CastToObjectBaseImpl@@YAPAVCObjectBase@@PAVCRndConstructionPart@NDb@@PAX@Z
?CastToObjectBaseImpl@@YAPAVCObjectBase@@PAVCRndContainerModel@NDb@@PAV1@@Z
?CastToObjectBaseImpl@@YAPAVCObjectBase@@PAVCRndContainerModel@NDb@@PAX@Z
?CastToObjectBaseImpl@@YAPAVCObjectBase@@PAVCRndModel@NDb@@PAV1@@Z
?CastToObjectBaseImpl@@YAPAVCObjectBase@@PAVCRndModel@NDb@@PAX@Z
?CastToObjectBaseImpl@@YAPAVCObjectBase@@PAVCRndObject@NDb@@PAV1@@Z
?CastToObjectBaseImpl@@YAPAVCObjectBase@@PAVCRndObject@NDb@@PAX@Z
?CastToObjectBaseImpl@@YAPAVCObjectBase@@PAVCRndTerrainSpot@NDb@@PAV1@@Z
?CastToObjectBaseImpl@@YAPAVCObjectBase@@PAVCRndTerrainSpot@NDb@@PAX@Z
?CastToObjectBaseImpl@@YAPAVCObjectBase@@PAVCRoom@NDb@@PAX@Z
?CastToObjectBaseImpl@@YAPAVCObjectBase@@PAVCScript@NDb@@PAV1@@Z
?CastToObjectBaseImpl@@YAPAVCObjectBase@@PAVCScript@NDb@@PAX@Z
?CastToObjectBaseImpl@@YAPAVCObjectBase@@PAVCSequence@NDb@@PAV1@@Z
?CastToObjectBaseImpl@@YAPAVCObjectBase@@PAVCSequence@NDb@@PAX@Z
?CastToObjectBaseImpl@@YAPAVCObjectBase@@PAVCSide@NDb@@PAV1@@Z
?CastToObjectBaseImpl@@YAPAVCObjectBase@@PAVCSide@NDb@@PAX@Z
?CastToObjectBaseImpl@@YAPAVCObjectBase@@PAVCSkeleton@NDb@@PAV1@@Z
?CastToObjectBaseImpl@@YAPAVCObjectBase@@PAVCSkeleton@NDb@@PAX@Z
?CastToObjectBaseImpl@@YAPAVCObjectBase@@PAVCSolid@NDb@@PAX@Z
?CastToObjectBaseImpl@@YAPAVCObjectBase@@PAVCSolidModel@NDb@@PAV1@@Z
?CastToObjectBaseImpl@@YAPAVCObjectBase@@PAVCSolidModel@NDb@@PAX@Z
?CastToObjectBaseImpl@@YAPAVCObjectBase@@PAVCSound@NDb@@PAV1@@Z
?CastToObjectBaseImpl@@YAPAVCObjectBase@@PAVCSound@NDb@@PAX@Z
?CastToObjectBaseImpl@@YAPAVCObjectBase@@PAVCSoundEffect@NDb@@PAV1@@Z
?CastToObjectBaseImpl@@YAPAVCObjectBase@@PAVCSoundEffect@NDb@@PAX@Z
?CastToObjectBaseImpl@@YAPAVCObjectBase@@PAVCSoundInstance@NDb@@PAV1@@Z
?CastToObjectBaseImpl@@YAPAVCObjectBase@@PAVCSoundInstance@NDb@@PAX@Z
?CastToObjectBaseImpl@@YAPAVCObjectBase@@PAVCSoundVariant@NDb@@PAV1@@Z
?CastToObjectBaseImpl@@YAPAVCObjectBase@@PAVCSoundVariant@NDb@@PAX@Z
?CastToObjectBaseImpl@@YAPAVCObjectBase@@PAVCSpot@NDb@@PAV1@@Z
?CastToObjectBaseImpl@@YAPAVCObjectBase@@PAVCSpot@NDb@@PAX@Z
?CastToObjectBaseImpl@@YAPAVCObjectBase@@PAVCString@NDb@@PAV1@@Z
?CastToObjectBaseImpl@@YAPAVCObjectBase@@PAVCString@NDb@@PAX@Z
?CastToObjectBaseImpl@@YAPAVCObjectBase@@PAVCTAmbientLight@NDb@@PAV1@@Z
?CastToObjectBaseImpl@@YAPAVCObjectBase@@PAVCTAmbientLight@NDb@@PAX@Z
?CastToObjectBaseImpl@@YAPAVCObjectBase@@PAVCTConstructionPart@NDb@@PAV1@@Z
?CastToObjectBaseImpl@@YAPAVCObjectBase@@PAVCTConstructionPart@NDb@@PAX@Z
?CastToObjectBaseImpl@@YAPAVCObjectBase@@PAVCTEffect@NDb@@PAV1@@Z
?CastToObjectBaseImpl@@YAPAVCObjectBase@@PAVCTEffect@NDb@@PAX@Z
?CastToObjectBaseImpl@@YAPAVCObjectBase@@PAVCTMaterial@NDb@@PAV1@@Z
?CastToObjectBaseImpl@@YAPAVCObjectBase@@PAVCTMaterial@NDb@@PAX@Z
?CastToObjectBaseImpl@@YAPAVCObjectBase@@PAVCTRndModel@NDb@@PAV1@@Z
?CastToObjectBaseImpl@@YAPAVCObjectBase@@PAVCTRndModel@NDb@@PAX@Z
?CastToObjectBaseImpl@@YAPAVCObjectBase@@PAVCTRndObject@NDb@@PAV1@@Z
?CastToObjectBaseImpl@@YAPAVCObjectBase@@PAVCTRndObject@NDb@@PAX@Z
?CastToObjectBaseImpl@@YAPAVCObjectBase@@PAVCTSound@NDb@@PAV1@@Z
?CastToObjectBaseImpl@@YAPAVCObjectBase@@PAVCTSound@NDb@@PAX@Z
?CastToObjectBaseImpl@@YAPAVCObjectBase@@PAVCTemplVariant@NDb@@PAV1@@Z
?CastToObjectBaseImpl@@YAPAVCObjectBase@@PAVCTemplVariant@NDb@@PAX@Z
?CastToObjectBaseImpl@@YAPAVCObjectBase@@PAVCTemplate@NDb@@PAV1@@Z
?CastToObjectBaseImpl@@YAPAVCObjectBase@@PAVCTemplate@NDb@@PAX@Z
?CastToObjectBaseImpl@@YAPAVCObjectBase@@PAVCTerrainSpot@NDb@@PAX@Z
?CastToObjectBaseImpl@@YAPAVCObjectBase@@PAVCTerrainTile@NDb@@PAX@Z
?CastToObjectBaseImpl@@YAPAVCObjectBase@@PAVCTexture@NDb@@PAV1@@Z
?CastToObjectBaseImpl@@YAPAVCObjectBase@@PAVCTexture@NDb@@PAX@Z
?CastToObjectBaseImpl@@YAPAVCObjectBase@@PAVCTranslatedString@NDb@@PAX@Z
?CastToObjectBaseImpl@@YAPAVCObjectBase@@PAVCTypeface@NDb@@PAX@Z
?CastToObjectBaseImpl@@YAPAVCObjectBase@@PAVCUIContainer@NDb@@PAV1@@Z
?CastToObjectBaseImpl@@YAPAVCObjectBase@@PAVCUIContainer@NDb@@PAX@Z
?CastToObjectBaseImpl@@YAPAVCObjectBase@@PAVCUIControl@NDb@@PAV1@@Z
?CastToObjectBaseImpl@@YAPAVCObjectBase@@PAVCUIControl@NDb@@PAX@Z
?CastToObjectBaseImpl@@YAPAVCObjectBase@@PAVCUITexture@NDb@@PAV1@@Z
?CastToObjectBaseImpl@@YAPAVCObjectBase@@PAVCUITexture@NDb@@PAX@Z
?CastToObjectBaseImpl@@YAPAVCObjectBase@@PAVCUnit@NDb@@PAV1@@Z
?CastToObjectBaseImpl@@YAPAVCObjectBase@@PAVCUnit@NDb@@PAX@Z
?CastToObjectBaseImpl@@YAPAVCObjectBase@@PAVCUnitGroup@NDb@@PAV1@@Z
?CastToObjectBaseImpl@@YAPAVCObjectBase@@PAVCUnitGroup@NDb@@PAX@Z
?CastToObjectBaseImpl@@YAPAVCObjectBase@@PAVCWall@NDb@@PAX@Z
?CastToObjectBaseImpl@@YAPAVCObjectBase@@PAVCWallModel@NDb@@PAV1@@Z
?CastToObjectBaseImpl@@YAPAVCObjectBase@@PAVCWallModel@NDb@@PAX@Z
?CastToObjectBaseImpl@@YAPAVCObjectBase@@PAVCWaypoint@NDb@@PAV1@@Z
?CastToObjectBaseImpl@@YAPAVCObjectBase@@PAVCWaypoint@NDb@@PAX@Z
?CastToObjectBaseImpl@@YAPAVCObjectBase@@PAVCWaypointName@NDb@@PAV1@@Z
?CastToObjectBaseImpl@@YAPAVCObjectBase@@PAVCWaypointName@NDb@@PAX@Z
?CastToUserObject@@YAPAVCAIGeometry@NDb@@PAVCObjectBase@@PAV12@@Z
?CastToUserObject@@YAPAVCAISound@NDb@@PAVCObjectBase@@PAV12@@Z
?CastToUserObject@@YAPAVCAmbientLight@NDb@@PAVCObjectBase@@PAV12@@Z
?CastToUserObject@@YAPAVCAmbientLightReal@NDb@@PAVCObjectBase@@PAV12@@Z
?CastToUserObject@@YAPAVCAnimLight@NDb@@PAVCObjectBase@@PAV12@@Z
?CastToUserObject@@YAPAVCAnimWeaponType@NDb@@PAVCObjectBase@@PAV12@@Z
?CastToUserObject@@YAPAVCAnimation@NDb@@PAVCObjectBase@@PAV12@@Z
?CastToUserObject@@YAPAVCBRDF@NDb@@PAVCObjectBase@@PAV12@@Z
?CastToUserObject@@YAPAVCComplexHead@NDb@@PAVCObjectBase@@PAV12@@Z
?CastToUserObject@@YAPAVCContainerModel@NDb@@PAVCObjectBase@@PAV12@@Z
?CastToUserObject@@YAPAVCCubeTexture@NDb@@PAVCObjectBase@@PAV12@@Z
?CastToUserObject@@YAPAVCDBAckInfo@NDb@@PAVCObjectBase@@PAV12@@Z
?CastToUserObject@@YAPAVCDBAckSequence@NDb@@PAVCObjectBase@@PAV12@@Z
?CastToUserObject@@YAPAVCDBDialogPers@NDb@@PAVCObjectBase@@PAV12@@Z
?CastToUserObject@@YAPAVCDBDiplomacy@NDb@@PAVCObjectBase@@PAV12@@Z
?CastToUserObject@@YAPAVCDBPerk@NDb@@PAVCObjectBase@@PAV12@@Z
?CastToUserObject@@YAPAVCDBRecord@@PAVCObjectBase@@PAV1@@Z
?CastToUserObject@@YAPAVCDBScenario@NDb@@PAVCObjectBase@@PAV12@@Z
?CastToUserObject@@YAPAVCDBScenarioClue@NDb@@PAVCObjectBase@@PAV12@@Z
?CastToUserObject@@YAPAVCDBScenarioObjective@NDb@@PAVCObjectBase@@PAV12@@Z
?CastToUserObject@@YAPAVCDBScenarioState@NDb@@PAVCObjectBase@@PAV12@@Z
?CastToUserObject@@YAPAVCDBScenarioZone@NDb@@PAVCObjectBase@@PAV12@@Z
?CastToUserObject@@YAPAVCDebris@NDb@@PAVCObjectBase@@PAV12@@Z
?CastToUserObject@@YAPAVCDebrisMaterial@NDb@@PAVCObjectBase@@PAV12@@Z
?CastToUserObject@@YAPAVCDoor@NDb@@PAVCObjectBase@@PAV12@@Z
?CastToUserObject@@YAPAVCEffect@NDb@@PAVCObjectBase@@PAV12@@Z
?CastToUserObject@@YAPAVCExplosion@NDb@@PAVCObjectBase@@PAV12@@Z
?CastToUserObject@@YAPAVCFinalElement@NDb@@PAVCObjectBase@@PAV12@@Z
?CastToUserObject@@YAPAVCFloorModel@NDb@@PAVCObjectBase@@PAV12@@Z
?CastToUserObject@@YAPAVCGeometry@NDb@@PAVCObjectBase@@PAV12@@Z
?CastToUserObject@@YAPAVCGun@NDb@@PAVCObjectBase@@PAV12@@Z
?CastToUserObject@@YAPAVCHead@NDb@@PAVCObjectBase@@PAV12@@Z
?CastToUserObject@@YAPAVCLightInstance@NDb@@PAVCObjectBase@@PAV12@@Z
?CastToUserObject@@YAPAVCMaterial@NDb@@PAVCObjectBase@@PAV12@@Z
?CastToUserObject@@YAPAVCModel@NDb@@PAVCObjectBase@@PAV12@@Z
?CastToUserObject@@YAPAVCMusic@NDb@@PAVCObjectBase@@PAV12@@Z
?CastToUserObject@@YAPAVCNationality@NDb@@PAVCObjectBase@@PAV12@@Z
?CastToUserObject@@YAPAVCObject@NDb@@PAVCObjectBase@@PAV12@@Z
?CastToUserObject@@YAPAVCPanzerklein@NDb@@PAVCObjectBase@@PAV12@@Z
?CastToUserObject@@YAPAVCParticle@NDb@@PAVCObjectBase@@PAV12@@Z
?CastToUserObject@@YAPAVCParticleInstance@NDb@@PAVCObjectBase@@PAV12@@Z
?CastToUserObject@@YAPAVCPassageObject@NDb@@PAVCObjectBase@@PAV12@@Z
?CastToUserObject@@YAPAVCPlacableObject@NDb@@PAVCObjectBase@@PAV12@@Z
?CastToUserObject@@YAPAVCRPGAmmo@NDb@@PAVCObjectBase@@PAV12@@Z
?CastToUserObject@@YAPAVCRPGArmor@NDb@@PAVCObjectBase@@PAV12@@Z
?CastToUserObject@@YAPAVCRPGBaseValue@NDb@@PAVCObjectBase@@PAV12@@Z
?CastToUserObject@@YAPAVCRPGClass@NDb@@PAVCObjectBase@@PAV12@@Z
?CastToUserObject@@YAPAVCRPGClip@NDb@@PAVCObjectBase@@PAV12@@Z
?CastToUserObject@@YAPAVCRPGFirstAid@NDb@@PAVCObjectBase@@PAV12@@Z
?CastToUserObject@@YAPAVCRPGGrenade@NDb@@PAVCObjectBase@@PAV12@@Z
?CastToUserObject@@YAPAVCRPGItem@NDb@@PAVCObjectBase@@PAV12@@Z
?CastToUserObject@@YAPAVCRPGKey@NDb@@PAVCObjectBase@@PAV12@@Z
?CastToUserObject@@YAPAVCRPGMaterial@NDb@@PAVCObjectBase@@PAV12@@Z
?CastToUserObject@@YAPAVCRPGMeleeWeapon@NDb@@PAVCObjectBase@@PAV12@@Z
?CastToUserObject@@YAPAVCRPGMine@NDb@@PAVCObjectBase@@PAV12@@Z
?CastToUserObject@@YAPAVCRPGMineDetector@NDb@@PAVCObjectBase@@PAV12@@Z
?CastToUserObject@@YAPAVCRPGPers@NDb@@PAVCObjectBase@@PAV12@@Z
?CastToUserObject@@YAPAVCRPGTool@NDb@@PAVCObjectBase@@PAV12@@Z
?CastToUserObject@@YAPAVCRPGUniform@NDb@@PAVCObjectBase@@PAV12@@Z
?CastToUserObject@@YAPAVCRPGWeapon@NDb@@PAVCObjectBase@@PAV12@@Z
?CastToUserObject@@YAPAVCRPGWeaponType@NDb@@PAVCObjectBase@@PAV12@@Z
?CastToUserObject@@YAPAVCRectangle@NDb@@PAVCObjectBase@@PAV12@@Z
?CastToUserObject@@YAPAVCRndConstructionPart@NDb@@PAVCObjectBase@@PAV12@@Z
?CastToUserObject@@YAPAVCRndContainerModel@NDb@@PAVCObjectBase@@PAV12@@Z
?CastToUserObject@@YAPAVCRndModel@NDb@@PAVCObjectBase@@PAV12@@Z
?CastToUserObject@@YAPAVCRndObject@NDb@@PAVCObjectBase@@PAV12@@Z
?CastToUserObject@@YAPAVCRndTerrainSpot@NDb@@PAVCObjectBase@@PAV12@@Z
?CastToUserObject@@YAPAVCScript@NDb@@PAVCObjectBase@@PAV12@@Z
?CastToUserObject@@YAPAVCSequence@NDb@@PAVCObjectBase@@PAV12@@Z
?CastToUserObject@@YAPAVCSide@NDb@@PAVCObjectBase@@PAV12@@Z
?CastToUserObject@@YAPAVCSkeleton@NDb@@PAVCObjectBase@@PAV12@@Z
?CastToUserObject@@YAPAVCSolidModel@NDb@@PAVCObjectBase@@PAV12@@Z
?CastToUserObject@@YAPAVCSound@NDb@@PAVCObjectBase@@PAV12@@Z
?CastToUserObject@@YAPAVCSoundEffect@NDb@@PAVCObjectBase@@PAV12@@Z
?CastToUserObject@@YAPAVCSoundInstance@NDb@@PAVCObjectBase@@PAV12@@Z
?CastToUserObject@@YAPAVCSoundVariant@NDb@@PAVCObjectBase@@PAV12@@Z
?CastToUserObject@@YAPAVCSpot@NDb@@PAVCObjectBase@@PAV12@@Z
?CastToUserObject@@YAPAVCString@NDb@@PAVCObjectBase@@PAV12@@Z
?CastToUserObject@@YAPAVCTAmbientLight@NDb@@PAVCObjectBase@@PAV12@@Z
?CastToUserObject@@YAPAVCTConstructionPart@NDb@@PAVCObjectBase@@PAV12@@Z
?CastToUserObject@@YAPAVCTEffect@NDb@@PAVCObjectBase@@PAV12@@Z
?CastToUserObject@@YAPAVCTMaterial@NDb@@PAVCObjectBase@@PAV12@@Z
?CastToUserObject@@YAPAVCTRndModel@NDb@@PAVCObjectBase@@PAV12@@Z
?CastToUserObject@@YAPAVCTRndObject@NDb@@PAVCObjectBase@@PAV12@@Z
?CastToUserObject@@YAPAVCTSound@NDb@@PAVCObjectBase@@PAV12@@Z
?CastToUserObject@@YAPAVCTemplVariant@NDb@@PAVCObjectBase@@PAV12@@Z
?CastToUserObject@@YAPAVCTemplate@NDb@@PAVCObjectBase@@PAV12@@Z
?CastToUserObject@@YAPAVCTexture@NDb@@PAVCObjectBase@@PAV12@@Z
?CastToUserObject@@YAPAVCUIContainer@NDb@@PAVCObjectBase@@PAV12@@Z
?CastToUserObject@@YAPAVCUIControl@NDb@@PAVCObjectBase@@PAV12@@Z
?CastToUserObject@@YAPAVCUITexture@NDb@@PAVCObjectBase@@PAV12@@Z
?CastToUserObject@@YAPAVCUnit@NDb@@PAVCObjectBase@@PAV12@@Z
?CastToUserObject@@YAPAVCUnitGroup@NDb@@PAVCObjectBase@@PAV12@@Z
?CastToUserObject@@YAPAVCWallModel@NDb@@PAVCObjectBase@@PAV12@@Z
?CastToUserObject@@YAPAVCWaypoint@NDb@@PAVCObjectBase@@PAV12@@Z
?CastToUserObject@@YAPAVCWaypointName@NDb@@PAVCObjectBase@@PAV12@@Z
?CastToUserObjectImpl@@YAPAV?$CRPGSomethingForPers@VCRPGFirstAid@NDb@@@NDb@@PAVCObjectBase@@PAV12@PAX@Z
?CastToUserObjectImpl@@YAPAV?$CRPGSomethingForPers@VCRPGGrenade@NDb@@@NDb@@PAVCObjectBase@@PAV12@PAX@Z
?CastToUserObjectImpl@@YAPAV?$CRPGSomethingForPers@VCRPGKey@NDb@@@NDb@@PAVCObjectBase@@PAV12@PAX@Z
?CastToUserObjectImpl@@YAPAV?$CRPGSomethingForPers@VCRPGMeleeWeapon@NDb@@@NDb@@PAVCObjectBase@@PAV12@PAX@Z
?CastToUserObjectImpl@@YAPAV?$CRPGSomethingForPers@VCRPGMine@NDb@@@NDb@@PAVCObjectBase@@PAV12@PAX@Z
?CastToUserObjectImpl@@YAPAV?$CRPGSomethingForPers@VCRPGMineDetector@NDb@@@NDb@@PAVCObjectBase@@PAV12@PAX@Z
?CastToUserObjectImpl@@YAPAV?$CRPGSomethingForPers@VCRPGTool@NDb@@@NDb@@PAVCObjectBase@@PAV12@PAX@Z
?CastToUserObjectImpl@@YAPAV?$CRPGSomethingForPers@VCRPGWeapon@NDb@@@NDb@@PAVCObjectBase@@PAV12@PAX@Z
?CastToUserObjectImpl@@YAPAVCAIGeometry@NDb@@PAVCObjectBase@@PAV12@0@Z
?CastToUserObjectImpl@@YAPAVCAIGeometry@NDb@@PAVCObjectBase@@PAV12@PAX@Z
?CastToUserObjectImpl@@YAPAVCAISound@NDb@@PAVCObjectBase@@PAV12@0@Z
?CastToUserObjectImpl@@YAPAVCAISound@NDb@@PAVCObjectBase@@PAV12@PAX@Z
?CastToUserObjectImpl@@YAPAVCAmbientLight@NDb@@PAVCObjectBase@@PAV12@0@Z
?CastToUserObjectImpl@@YAPAVCAmbientLight@NDb@@PAVCObjectBase@@PAV12@PAX@Z
?CastToUserObjectImpl@@YAPAVCAmbientLightReal@NDb@@PAVCObjectBase@@PAV12@0@Z
?CastToUserObjectImpl@@YAPAVCAmbientLightReal@NDb@@PAVCObjectBase@@PAV12@PAX@Z
?CastToUserObjectImpl@@YAPAVCAnimLight@NDb@@PAVCObjectBase@@PAV12@0@Z
?CastToUserObjectImpl@@YAPAVCAnimLight@NDb@@PAVCObjectBase@@PAV12@PAX@Z
?CastToUserObjectImpl@@YAPAVCAnimWeaponType@NDb@@PAVCObjectBase@@PAV12@0@Z
?CastToUserObjectImpl@@YAPAVCAnimWeaponType@NDb@@PAVCObjectBase@@PAV12@PAX@Z
?CastToUserObjectImpl@@YAPAVCAnimation@NDb@@PAVCObjectBase@@PAV12@0@Z
?CastToUserObjectImpl@@YAPAVCAnimation@NDb@@PAVCObjectBase@@PAV12@PAX@Z
?CastToUserObjectImpl@@YAPAVCAttribute@NDb@@PAVCObjectBase@@PAV12@PAX@Z
?CastToUserObjectImpl@@YAPAVCBRDF@NDb@@PAVCObjectBase@@PAV12@0@Z
?CastToUserObjectImpl@@YAPAVCBRDF@NDb@@PAVCObjectBase@@PAV12@PAX@Z
?CastToUserObjectImpl@@YAPAVCChapterMap@NDb@@PAVCObjectBase@@PAV12@PAX@Z
?CastToUserObjectImpl@@YAPAVCComplexHead@NDb@@PAVCObjectBase@@PAV12@0@Z
?CastToUserObjectImpl@@YAPAVCComplexHead@NDb@@PAVCObjectBase@@PAV12@PAX@Z
?CastToUserObjectImpl@@YAPAVCConstructionPart@NDb@@PAVCObjectBase@@PAV12@PAX@Z
?CastToUserObjectImpl@@YAPAVCContainer@NDb@@PAVCObjectBase@@PAV12@PAX@Z
?CastToUserObjectImpl@@YAPAVCContainerModel@NDb@@PAVCObjectBase@@PAV12@0@Z
?CastToUserObjectImpl@@YAPAVCContainerModel@NDb@@PAVCObjectBase@@PAV12@PAX@Z
?CastToUserObjectImpl@@YAPAVCCubeTexture@NDb@@PAVCObjectBase@@PAV12@0@Z
?CastToUserObjectImpl@@YAPAVCCubeTexture@NDb@@PAVCObjectBase@@PAV12@PAX@Z
?CastToUserObjectImpl@@YAPAVCDBAck@NDb@@PAVCObjectBase@@PAV12@PAX@Z
?CastToUserObjectImpl@@YAPAVCDBAckInfo@NDb@@PAVCObjectBase@@PAV12@0@Z
?CastToUserObjectImpl@@YAPAVCDBAckInfo@NDb@@PAVCObjectBase@@PAV12@PAX@Z
?CastToUserObjectImpl@@YAPAVCDBAckSequence@NDb@@PAVCObjectBase@@PAV12@0@Z
?CastToUserObjectImpl@@YAPAVCDBAckSequence@NDb@@PAVCObjectBase@@PAV12@PAX@Z
?CastToUserObjectImpl@@YAPAVCDBAutoLoadScript@NDb@@PAVCObjectBase@@PAV12@PAX@Z
?CastToUserObjectImpl@@YAPAVCDBCamera@NDb@@PAVCObjectBase@@PAV12@PAX@Z
?CastToUserObjectImpl@@YAPAVCDBDialog@NDb@@PAVCObjectBase@@PAV12@PAX@Z
?CastToUserObjectImpl@@YAPAVCDBDialogPers@NDb@@PAVCObjectBase@@PAV12@0@Z
?CastToUserObjectImpl@@YAPAVCDBDialogPers@NDb@@PAVCObjectBase@@PAV12@PAX@Z
?CastToUserObjectImpl@@YAPAVCDBDialogSeq@NDb@@PAVCObjectBase@@PAV12@PAX@Z
?CastToUserObjectImpl@@YAPAVCDBDifficulty@NDb@@PAVCObjectBase@@PAV12@PAX@Z
?CastToUserObjectImpl@@YAPAVCDBDiplomacy@NDb@@PAVCObjectBase@@PAV12@0@Z
?CastToUserObjectImpl@@YAPAVCDBDiplomacy@NDb@@PAVCObjectBase@@PAV12@PAX@Z
?CastToUserObjectImpl@@YAPAVCDBMinesConstants@NDb@@PAVCObjectBase@@PAV12@PAX@Z
?CastToUserObjectImpl@@YAPAVCDBPerk@NDb@@PAVCObjectBase@@PAV12@0@Z
?CastToUserObjectImpl@@YAPAVCDBPerk@NDb@@PAVCObjectBase@@PAV12@PAX@Z
?CastToUserObjectImpl@@YAPAVCDBPerkTreeNode@NDb@@PAVCObjectBase@@PAV12@PAX@Z
?CastToUserObjectImpl@@YAPAVCDBRecord@@PAVCObjectBase@@PAV1@0@Z
?CastToUserObjectImpl@@YAPAVCDBScenario@NDb@@PAVCObjectBase@@PAV12@0@Z
?CastToUserObjectImpl@@YAPAVCDBScenario@NDb@@PAVCObjectBase@@PAV12@PAX@Z
?CastToUserObjectImpl@@YAPAVCDBScenarioClue@NDb@@PAVCObjectBase@@PAV12@0@Z
?CastToUserObjectImpl@@YAPAVCDBScenarioClue@NDb@@PAVCObjectBase@@PAV12@PAX@Z
?CastToUserObjectImpl@@YAPAVCDBScenarioObjective2Clue@NDb@@PAVCObjectBase@@PAV12@PAX@Z
?CastToUserObjectImpl@@YAPAVCDBScenarioObjective@NDb@@PAVCObjectBase@@PAV12@0@Z
?CastToUserObjectImpl@@YAPAVCDBScenarioObjective@NDb@@PAVCObjectBase@@PAV12@PAX@Z
?CastToUserObjectImpl@@YAPAVCDBScenarioState@NDb@@PAVCObjectBase@@PAV12@0@Z
?CastToUserObjectImpl@@YAPAVCDBScenarioState@NDb@@PAVCObjectBase@@PAV12@PAX@Z
?CastToUserObjectImpl@@YAPAVCDBScenarioZone@NDb@@PAVCObjectBase@@PAV12@0@Z
?CastToUserObjectImpl@@YAPAVCDBScenarioZone@NDb@@PAVCObjectBase@@PAV12@PAX@Z
?CastToUserObjectImpl@@YAPAVCDebris@NDb@@PAVCObjectBase@@PAV12@0@Z
?CastToUserObjectImpl@@YAPAVCDebris@NDb@@PAVCObjectBase@@PAV12@PAX@Z
?CastToUserObjectImpl@@YAPAVCDebrisMaterial@NDb@@PAVCObjectBase@@PAV12@0@Z
?CastToUserObjectImpl@@YAPAVCDebrisMaterial@NDb@@PAVCObjectBase@@PAV12@PAX@Z
?CastToUserObjectImpl@@YAPAVCDoor@NDb@@PAVCObjectBase@@PAV12@0@Z
?CastToUserObjectImpl@@YAPAVCDoor@NDb@@PAVCObjectBase@@PAV12@PAX@Z
?CastToUserObjectImpl@@YAPAVCEffect@NDb@@PAVCObjectBase@@PAV12@0@Z
?CastToUserObjectImpl@@YAPAVCEffect@NDb@@PAVCObjectBase@@PAV12@PAX@Z
?CastToUserObjectImpl@@YAPAVCExplosion@NDb@@PAVCObjectBase@@PAV12@0@Z
?CastToUserObjectImpl@@YAPAVCExplosion@NDb@@PAVCObjectBase@@PAV12@PAX@Z
?CastToUserObjectImpl@@YAPAVCFinalElement@NDb@@PAVCObjectBase@@PAV12@0@Z
?CastToUserObjectImpl@@YAPAVCFinalElement@NDb@@PAVCObjectBase@@PAV12@PAX@Z
?CastToUserObjectImpl@@YAPAVCFloor@NDb@@PAVCObjectBase@@PAV12@PAX@Z
?CastToUserObjectImpl@@YAPAVCFloorModel@NDb@@PAVCObjectBase@@PAV12@0@Z
?CastToUserObjectImpl@@YAPAVCFloorModel@NDb@@PAVCObjectBase@@PAV12@PAX@Z
?CastToUserObjectImpl@@YAPAVCGeometry@NDb@@PAVCObjectBase@@PAV12@0@Z
?CastToUserObjectImpl@@YAPAVCGeometry@NDb@@PAVCObjectBase@@PAV12@PAX@Z
?CastToUserObjectImpl@@YAPAVCGlobalMap@NDb@@PAVCObjectBase@@PAV12@PAX@Z
?CastToUserObjectImpl@@YAPAVCGrass@NDb@@PAVCObjectBase@@PAV12@PAX@Z
?CastToUserObjectImpl@@YAPAVCGun@NDb@@PAVCObjectBase@@PAV12@0@Z
?CastToUserObjectImpl@@YAPAVCGun@NDb@@PAVCObjectBase@@PAV12@PAX@Z
?CastToUserObjectImpl@@YAPAVCHead@NDb@@PAVCObjectBase@@PAV12@0@Z
?CastToUserObjectImpl@@YAPAVCHead@NDb@@PAVCObjectBase@@PAV12@PAX@Z
?CastToUserObjectImpl@@YAPAVCIntermediateFloor@NDb@@PAVCObjectBase@@PAV12@PAX@Z
?CastToUserObjectImpl@@YAPAVCIntermediateSolid@NDb@@PAVCObjectBase@@PAV12@PAX@Z
?CastToUserObjectImpl@@YAPAVCLightInstance@NDb@@PAVCObjectBase@@PAV12@0@Z
?CastToUserObjectImpl@@YAPAVCLightInstance@NDb@@PAVCObjectBase@@PAV12@PAX@Z
?CastToUserObjectImpl@@YAPAVCMaterial@NDb@@PAVCObjectBase@@PAV12@0@Z
?CastToUserObjectImpl@@YAPAVCMaterial@NDb@@PAVCObjectBase@@PAV12@PAX@Z
?CastToUserObjectImpl@@YAPAVCModel@NDb@@PAVCObjectBase@@PAV12@0@Z
?CastToUserObjectImpl@@YAPAVCModel@NDb@@PAVCObjectBase@@PAV12@PAX@Z
?CastToUserObjectImpl@@YAPAVCMusic@NDb@@PAVCObjectBase@@PAV12@0@Z
?CastToUserObjectImpl@@YAPAVCMusic@NDb@@PAVCObjectBase@@PAV12@PAX@Z
?CastToUserObjectImpl@@YAPAVCNationality@NDb@@PAVCObjectBase@@PAV12@0@Z
?CastToUserObjectImpl@@YAPAVCNationality@NDb@@PAVCObjectBase@@PAV12@PAX@Z
?CastToUserObjectImpl@@YAPAVCObject@NDb@@PAVCObjectBase@@PAV12@0@Z
?CastToUserObjectImpl@@YAPAVCObject@NDb@@PAVCObjectBase@@PAV12@PAX@Z
?CastToUserObjectImpl@@YAPAVCPanzerklein@NDb@@PAVCObjectBase@@PAV12@0@Z
?CastToUserObjectImpl@@YAPAVCPanzerklein@NDb@@PAVCObjectBase@@PAV12@PAX@Z
?CastToUserObjectImpl@@YAPAVCParticle@NDb@@PAVCObjectBase@@PAV12@0@Z
?CastToUserObjectImpl@@YAPAVCParticle@NDb@@PAVCObjectBase@@PAV12@PAX@Z
?CastToUserObjectImpl@@YAPAVCParticleInstance@NDb@@PAVCObjectBase@@PAV12@0@Z
?CastToUserObjectImpl@@YAPAVCParticleInstance@NDb@@PAVCObjectBase@@PAV12@PAX@Z
?CastToUserObjectImpl@@YAPAVCPassageObject@NDb@@PAVCObjectBase@@PAV12@0@Z
?CastToUserObjectImpl@@YAPAVCPassageObject@NDb@@PAVCObjectBase@@PAV12@PAX@Z
?CastToUserObjectImpl@@YAPAVCPlacableObject@NDb@@PAVCObjectBase@@PAV12@0@Z
?CastToUserObjectImpl@@YAPAVCPlacableObject@NDb@@PAVCObjectBase@@PAV12@PAX@Z
?CastToUserObjectImpl@@YAPAVCRPGAISoundConstants@NDb@@PAVCObjectBase@@PAV12@PAX@Z
?CastToUserObjectImpl@@YAPAVCRPGAmmo@NDb@@PAVCObjectBase@@PAV12@0@Z
?CastToUserObjectImpl@@YAPAVCRPGAmmo@NDb@@PAVCObjectBase@@PAV12@PAX@Z
?CastToUserObjectImpl@@YAPAVCRPGArmor@NDb@@PAVCObjectBase@@PAV12@0@Z
?CastToUserObjectImpl@@YAPAVCRPGArmor@NDb@@PAVCObjectBase@@PAV12@PAX@Z
?CastToUserObjectImpl@@YAPAVCRPGBaseValue@NDb@@PAVCObjectBase@@PAV12@0@Z
?CastToUserObjectImpl@@YAPAVCRPGBaseValue@NDb@@PAVCObjectBase@@PAV12@PAX@Z
?CastToUserObjectImpl@@YAPAVCRPGClass@NDb@@PAVCObjectBase@@PAV12@0@Z
?CastToUserObjectImpl@@YAPAVCRPGClass@NDb@@PAVCObjectBase@@PAV12@PAX@Z
?CastToUserObjectImpl@@YAPAVCRPGClip4Pers@NDb@@PAVCObjectBase@@PAV12@PAX@Z
?CastToUserObjectImpl@@YAPAVCRPGClip@NDb@@PAVCObjectBase@@PAV12@0@Z
?CastToUserObjectImpl@@YAPAVCRPGClip@NDb@@PAVCObjectBase@@PAV12@PAX@Z
?CastToUserObjectImpl@@YAPAVCRPGCritical@NDb@@PAVCObjectBase@@PAV12@PAX@Z
?CastToUserObjectImpl@@YAPAVCRPGDmgToArmor@NDb@@PAVCObjectBase@@PAV12@PAX@Z
?CastToUserObjectImpl@@YAPAVCRPGFirstAid@NDb@@PAVCObjectBase@@PAV12@0@Z
?CastToUserObjectImpl@@YAPAVCRPGFirstAid@NDb@@PAVCObjectBase@@PAV12@PAX@Z
?CastToUserObjectImpl@@YAPAVCRPGGrenade@NDb@@PAVCObjectBase@@PAV12@0@Z
?CastToUserObjectImpl@@YAPAVCRPGGrenade@NDb@@PAVCObjectBase@@PAV12@PAX@Z
?CastToUserObjectImpl@@YAPAVCRPGInterruptsConstants@NDb@@PAVCObjectBase@@PAV12@PAX@Z
?CastToUserObjectImpl@@YAPAVCRPGItem2Uniform@NDb@@PAVCObjectBase@@PAV12@PAX@Z
?CastToUserObjectImpl@@YAPAVCRPGItem@NDb@@PAVCObjectBase@@PAV12@0@Z
?CastToUserObjectImpl@@YAPAVCRPGItem@NDb@@PAVCObjectBase@@PAV12@PAX@Z
?CastToUserObjectImpl@@YAPAVCRPGKey@NDb@@PAVCObjectBase@@PAV12@0@Z
?CastToUserObjectImpl@@YAPAVCRPGKey@NDb@@PAVCObjectBase@@PAV12@PAX@Z
?CastToUserObjectImpl@@YAPAVCRPGMaterial@NDb@@PAVCObjectBase@@PAV12@0@Z
?CastToUserObjectImpl@@YAPAVCRPGMaterial@NDb@@PAVCObjectBase@@PAV12@PAX@Z
?CastToUserObjectImpl@@YAPAVCRPGMeleeWeapon@NDb@@PAVCObjectBase@@PAV12@0@Z
?CastToUserObjectImpl@@YAPAVCRPGMeleeWeapon@NDb@@PAVCObjectBase@@PAV12@PAX@Z
?CastToUserObjectImpl@@YAPAVCRPGMine@NDb@@PAVCObjectBase@@PAV12@0@Z
?CastToUserObjectImpl@@YAPAVCRPGMine@NDb@@PAVCObjectBase@@PAV12@PAX@Z
?CastToUserObjectImpl@@YAPAVCRPGMineDetector@NDb@@PAVCObjectBase@@PAV12@0@Z
?CastToUserObjectImpl@@YAPAVCRPGMineDetector@NDb@@PAVCObjectBase@@PAV12@PAX@Z
?CastToUserObjectImpl@@YAPAVCRPGPers@NDb@@PAVCObjectBase@@PAV12@0@Z
?CastToUserObjectImpl@@YAPAVCRPGPers@NDb@@PAVCObjectBase@@PAV12@PAX@Z
?CastToUserObjectImpl@@YAPAVCRPGStoreItem@NDb@@PAVCObjectBase@@PAV12@PAX@Z
?CastToUserObjectImpl@@YAPAVCRPGToHit@NDb@@PAVCObjectBase@@PAV12@PAX@Z
?CastToUserObjectImpl@@YAPAVCRPGTool@NDb@@PAVCObjectBase@@PAV12@0@Z
?CastToUserObjectImpl@@YAPAVCRPGTool@NDb@@PAVCObjectBase@@PAV12@PAX@Z
?CastToUserObjectImpl@@YAPAVCRPGUniform@NDb@@PAVCObjectBase@@PAV12@0@Z
?CastToUserObjectImpl@@YAPAVCRPGUniform@NDb@@PAVCObjectBase@@PAV12@PAX@Z
?CastToUserObjectImpl@@YAPAVCRPGWeapon@NDb@@PAVCObjectBase@@PAV12@0@Z
?CastToUserObjectImpl@@YAPAVCRPGWeapon@NDb@@PAVCObjectBase@@PAV12@PAX@Z
?CastToUserObjectImpl@@YAPAVCRPGWeaponType@NDb@@PAVCObjectBase@@PAV12@0@Z
?CastToUserObjectImpl@@YAPAVCRPGWeaponType@NDb@@PAVCObjectBase@@PAV12@PAX@Z
?CastToUserObjectImpl@@YAPAVCRectangle@NDb@@PAVCObjectBase@@PAV12@0@Z
?CastToUserObjectImpl@@YAPAVCRectangle@NDb@@PAVCObjectBase@@PAV12@PAX@Z
?CastToUserObjectImpl@@YAPAVCRndConstructionPart@NDb@@PAVCObjectBase@@PAV12@0@Z
?CastToUserObjectImpl@@YAPAVCRndConstructionPart@NDb@@PAVCObjectBase@@PAV12@PAX@Z
?CastToUserObjectImpl@@YAPAVCRndContainerModel@NDb@@PAVCObjectBase@@PAV12@0@Z
?CastToUserObjectImpl@@YAPAVCRndContainerModel@NDb@@PAVCObjectBase@@PAV12@PAX@Z
?CastToUserObjectImpl@@YAPAVCRndModel@NDb@@PAVCObjectBase@@PAV12@0@Z
?CastToUserObjectImpl@@YAPAVCRndModel@NDb@@PAVCObjectBase@@PAV12@PAX@Z
?CastToUserObjectImpl@@YAPAVCRndObject@NDb@@PAVCObjectBase@@PAV12@0@Z
?CastToUserObjectImpl@@YAPAVCRndObject@NDb@@PAVCObjectBase@@PAV12@PAX@Z
?CastToUserObjectImpl@@YAPAVCRndTerrainSpot@NDb@@PAVCObjectBase@@PAV12@0@Z
?CastToUserObjectImpl@@YAPAVCRndTerrainSpot@NDb@@PAVCObjectBase@@PAV12@PAX@Z
?CastToUserObjectImpl@@YAPAVCRoom@NDb@@PAVCObjectBase@@PAV12@PAX@Z
?CastToUserObjectImpl@@YAPAVCScript@NDb@@PAVCObjectBase@@PAV12@0@Z
?CastToUserObjectImpl@@YAPAVCScript@NDb@@PAVCObjectBase@@PAV12@PAX@Z
?CastToUserObjectImpl@@YAPAVCSequence@NDb@@PAVCObjectBase@@PAV12@0@Z
?CastToUserObjectImpl@@YAPAVCSequence@NDb@@PAVCObjectBase@@PAV12@PAX@Z
?CastToUserObjectImpl@@YAPAVCSide@NDb@@PAVCObjectBase@@PAV12@0@Z
?CastToUserObjectImpl@@YAPAVCSide@NDb@@PAVCObjectBase@@PAV12@PAX@Z
?CastToUserObjectImpl@@YAPAVCSkeleton@NDb@@PAVCObjectBase@@PAV12@0@Z
?CastToUserObjectImpl@@YAPAVCSkeleton@NDb@@PAVCObjectBase@@PAV12@PAX@Z
?CastToUserObjectImpl@@YAPAVCSolid@NDb@@PAVCObjectBase@@PAV12@PAX@Z
?CastToUserObjectImpl@@YAPAVCSolidModel@NDb@@PAVCObjectBase@@PAV12@0@Z
?CastToUserObjectImpl@@YAPAVCSolidModel@NDb@@PAVCObjectBase@@PAV12@PAX@Z
?CastToUserObjectImpl@@YAPAVCSound@NDb@@PAVCObjectBase@@PAV12@0@Z
?CastToUserObjectImpl@@YAPAVCSound@NDb@@PAVCObjectBase@@PAV12@PAX@Z
?CastToUserObjectImpl@@YAPAVCSoundEffect@NDb@@PAVCObjectBase@@PAV12@0@Z
?CastToUserObjectImpl@@YAPAVCSoundEffect@NDb@@PAVCObjectBase@@PAV12@PAX@Z
?CastToUserObjectImpl@@YAPAVCSoundInstance@NDb@@PAVCObjectBase@@PAV12@0@Z
?CastToUserObjectImpl@@YAPAVCSoundInstance@NDb@@PAVCObjectBase@@PAV12@PAX@Z
?CastToUserObjectImpl@@YAPAVCSoundVariant@NDb@@PAVCObjectBase@@PAV12@0@Z
?CastToUserObjectImpl@@YAPAVCSoundVariant@NDb@@PAVCObjectBase@@PAV12@PAX@Z
?CastToUserObjectImpl@@YAPAVCSpot@NDb@@PAVCObjectBase@@PAV12@0@Z
?CastToUserObjectImpl@@YAPAVCSpot@NDb@@PAVCObjectBase@@PAV12@PAX@Z
?CastToUserObjectImpl@@YAPAVCString@NDb@@PAVCObjectBase@@PAV12@0@Z
?CastToUserObjectImpl@@YAPAVCString@NDb@@PAVCObjectBase@@PAV12@PAX@Z
?CastToUserObjectImpl@@YAPAVCTAmbientLight@NDb@@PAVCObjectBase@@PAV12@0@Z
?CastToUserObjectImpl@@YAPAVCTAmbientLight@NDb@@PAVCObjectBase@@PAV12@PAX@Z
?CastToUserObjectImpl@@YAPAVCTConstructionPart@NDb@@PAVCObjectBase@@PAV12@0@Z
?CastToUserObjectImpl@@YAPAVCTConstructionPart@NDb@@PAVCObjectBase@@PAV12@PAX@Z
?CastToUserObjectImpl@@YAPAVCTEffect@NDb@@PAVCObjectBase@@PAV12@0@Z
?CastToUserObjectImpl@@YAPAVCTEffect@NDb@@PAVCObjectBase@@PAV12@PAX@Z
?CastToUserObjectImpl@@YAPAVCTMaterial@NDb@@PAVCObjectBase@@PAV12@0@Z
?CastToUserObjectImpl@@YAPAVCTMaterial@NDb@@PAVCObjectBase@@PAV12@PAX@Z
?CastToUserObjectImpl@@YAPAVCTRndModel@NDb@@PAVCObjectBase@@PAV12@0@Z
?CastToUserObjectImpl@@YAPAVCTRndModel@NDb@@PAVCObjectBase@@PAV12@PAX@Z
?CastToUserObjectImpl@@YAPAVCTRndObject@NDb@@PAVCObjectBase@@PAV12@0@Z
?CastToUserObjectImpl@@YAPAVCTRndObject@NDb@@PAVCObjectBase@@PAV12@PAX@Z
?CastToUserObjectImpl@@YAPAVCTSound@NDb@@PAVCObjectBase@@PAV12@0@Z
?CastToUserObjectImpl@@YAPAVCTSound@NDb@@PAVCObjectBase@@PAV12@PAX@Z
?CastToUserObjectImpl@@YAPAVCTemplVariant@NDb@@PAVCObjectBase@@PAV12@0@Z
?CastToUserObjectImpl@@YAPAVCTemplVariant@NDb@@PAVCObjectBase@@PAV12@PAX@Z
?CastToUserObjectImpl@@YAPAVCTemplate@NDb@@PAVCObjectBase@@PAV12@0@Z
?CastToUserObjectImpl@@YAPAVCTemplate@NDb@@PAVCObjectBase@@PAV12@PAX@Z
?CastToUserObjectImpl@@YAPAVCTerrainSpot@NDb@@PAVCObjectBase@@PAV12@PAX@Z
?CastToUserObjectImpl@@YAPAVCTerrainTile@NDb@@PAVCObjectBase@@PAV12@PAX@Z
?CastToUserObjectImpl@@YAPAVCTexture@NDb@@PAVCObjectBase@@PAV12@0@Z
?CastToUserObjectImpl@@YAPAVCTexture@NDb@@PAVCObjectBase@@PAV12@PAX@Z
?CastToUserObjectImpl@@YAPAVCTranslatedString@NDb@@PAVCObjectBase@@PAV12@PAX@Z
?CastToUserObjectImpl@@YAPAVCTypeface@NDb@@PAVCObjectBase@@PAV12@PAX@Z
?CastToUserObjectImpl@@YAPAVCUIContainer@NDb@@PAVCObjectBase@@PAV12@0@Z
?CastToUserObjectImpl@@YAPAVCUIContainer@NDb@@PAVCObjectBase@@PAV12@PAX@Z
?CastToUserObjectImpl@@YAPAVCUIControl@NDb@@PAVCObjectBase@@PAV12@0@Z
?CastToUserObjectImpl@@YAPAVCUIControl@NDb@@PAVCObjectBase@@PAV12@PAX@Z
?CastToUserObjectImpl@@YAPAVCUITexture@NDb@@PAVCObjectBase@@PAV12@0@Z
?CastToUserObjectImpl@@YAPAVCUITexture@NDb@@PAVCObjectBase@@PAV12@PAX@Z
?CastToUserObjectImpl@@YAPAVCUnit@NDb@@PAVCObjectBase@@PAV12@0@Z
?CastToUserObjectImpl@@YAPAVCUnit@NDb@@PAVCObjectBase@@PAV12@PAX@Z
?CastToUserObjectImpl@@YAPAVCUnitGroup@NDb@@PAVCObjectBase@@PAV12@0@Z
?CastToUserObjectImpl@@YAPAVCUnitGroup@NDb@@PAVCObjectBase@@PAV12@PAX@Z
?CastToUserObjectImpl@@YAPAVCWall@NDb@@PAVCObjectBase@@PAV12@PAX@Z
?CastToUserObjectImpl@@YAPAVCWallModel@NDb@@PAVCObjectBase@@PAV12@0@Z
?CastToUserObjectImpl@@YAPAVCWallModel@NDb@@PAVCObjectBase@@PAV12@PAX@Z
?CastToUserObjectImpl@@YAPAVCWaypoint@NDb@@PAVCObjectBase@@PAV12@0@Z
?CastToUserObjectImpl@@YAPAVCWaypoint@NDb@@PAVCObjectBase@@PAV12@PAX@Z
?CastToUserObjectImpl@@YAPAVCWaypointName@NDb@@PAVCObjectBase@@PAV12@0@Z
?CastToUserObjectImpl@@YAPAVCWaypointName@NDb@@PAVCObjectBase@@PAV12@PAX@Z
?Clamp@@YA?BMABM00@Z
?Clear@SRPGSkills@NDb@@QAEXXZ
?CreateConstructionPart@CRndConstructionPart@NDb@@QAEPAVCConstructionPart@2@PAUSRand@@ABV?$vector@HV?$allocator@H@_STL@@@_STL@@@Z
?CreateConstructionPart@CTConstructionPart@NDb@@QBEPAVCConstructionPart@2@PAUSRand@@@Z
?CreateConstructionPart@CTConstructionPart@NDb@@QBEPAVCConstructionPart@2@PAUSRand@@ABV?$vector@HV?$allocator@H@_STL@@@_STL@@@Z
?CreateConstructionPartVariant@NDb@@YAPAVCConstructionPart@1@H@Z
?CreateContainer@CRndContainerModel@NDb@@QAEPAVCContainerModel@2@PAUSRand@@ABV?$vector@HV?$allocator@H@_STL@@@_STL@@@Z
?CreateModel@CRndModel@NDb@@QAEPAVCModel@2@PAUSRand@@ABV?$vector@HV?$allocator@H@_STL@@@_STL@@@Z
?CreateModel@CTRndModel@NDb@@QAEPAVCModel@2@PAUSRand@@@Z
?CreateModel@CTRndModel@NDb@@QAEPAVCModel@2@PAUSRand@@ABV?$vector@HV?$allocator@H@_STL@@@_STL@@@Z
?CreateObject@CRndObject@NDb@@QAEPAVCObject@2@PAUSRand@@ABV?$vector@HV?$allocator@H@_STL@@@_STL@@@Z
?CreateObject@CTRndObject@NDb@@QAEPAVCObject@2@PAUSRand@@@Z
?CreateObject@CTRndObject@NDb@@QAEPAVCObject@2@PAUSRand@@ABV?$vector@HV?$allocator@H@_STL@@@_STL@@@Z
?CreateTerrainSpot@CRndTerrainSpot@NDb@@QBEPAVCTerrainSpot@2@PAUSRand@@@Z
?CreateTerrainSpot@CRndTerrainSpot@NDb@@QBEPAVCTerrainSpot@2@PAUSRand@@ABV?$vector@HV?$allocator@H@_STL@@@_STL@@@Z
?DestroyContents@?$CRPGSomethingForPers@VCRPGFirstAid@NDb@@@NDb@@MAEXXZ
?DestroyContents@?$CRPGSomethingForPers@VCRPGGrenade@NDb@@@NDb@@MAEXXZ
?DestroyContents@?$CRPGSomethingForPers@VCRPGKey@NDb@@@NDb@@MAEXXZ
?DestroyContents@?$CRPGSomethingForPers@VCRPGMeleeWeapon@NDb@@@NDb@@MAEXXZ
?DestroyContents@?$CRPGSomethingForPers@VCRPGMine@NDb@@@NDb@@MAEXXZ
?DestroyContents@?$CRPGSomethingForPers@VCRPGMineDetector@NDb@@@NDb@@MAEXXZ
?DestroyContents@?$CRPGSomethingForPers@VCRPGTool@NDb@@@NDb@@MAEXXZ
?DestroyContents@?$CRPGSomethingForPers@VCRPGWeapon@NDb@@@NDb@@MAEXXZ
?DestroyContents@CAIGeometry@NDb@@MAEXXZ
?DestroyContents@CAISound@NDb@@MAEXXZ
?DestroyContents@CAmbientLight@NDb@@MAEXXZ
?DestroyContents@CAmbientLightReal@NDb@@MAEXXZ
?DestroyContents@CAnimLight@NDb@@MAEXXZ
?DestroyContents@CAnimWeaponType@NDb@@MAEXXZ
?DestroyContents@CAnimation@NDb@@MAEXXZ
?DestroyContents@CAttribute@NDb@@MAEXXZ
?DestroyContents@CBRDF@NDb@@MAEXXZ
?DestroyContents@CChapterMap@NDb@@MAEXXZ
?DestroyContents@CComplexHead@NDb@@MAEXXZ
?DestroyContents@CConstructionPart@NDb@@MAEXXZ
?DestroyContents@CContainer@NDb@@MAEXXZ
?DestroyContents@CContainerModel@NDb@@MAEXXZ
?DestroyContents@CCubeTexture@NDb@@MAEXXZ
?DestroyContents@CDBAck@NDb@@MAEXXZ
?DestroyContents@CDBAckInfo@NDb@@MAEXXZ
?DestroyContents@CDBAckSequence@NDb@@MAEXXZ
?DestroyContents@CDBAutoLoadScript@NDb@@MAEXXZ
?DestroyContents@CDBCamera@NDb@@MAEXXZ
?DestroyContents@CDBDialog@NDb@@MAEXXZ
?DestroyContents@CDBDialogPers@NDb@@MAEXXZ
?DestroyContents@CDBDialogSeq@NDb@@MAEXXZ
?DestroyContents@CDBDifficulty@NDb@@MAEXXZ
?DestroyContents@CDBDiplomacy@NDb@@MAEXXZ
?DestroyContents@CDBMinesConstants@NDb@@MAEXXZ
?DestroyContents@CDBPerk@NDb@@MAEXXZ
?DestroyContents@CDBPerkTreeNode@NDb@@MAEXXZ
?DestroyContents@CDBScenario@NDb@@MAEXXZ
?DestroyContents@CDBScenarioClue@NDb@@MAEXXZ
?DestroyContents@CDBScenarioObjective2Clue@NDb@@MAEXXZ
?DestroyContents@CDBScenarioObjective@NDb@@MAEXXZ
?DestroyContents@CDBScenarioState@NDb@@MAEXXZ
?DestroyContents@CDBScenarioZone@NDb@@MAEXXZ
?DestroyContents@CDebris@NDb@@MAEXXZ
?DestroyContents@CDebrisMaterial@NDb@@MAEXXZ
?DestroyContents@CDoor@NDb@@MAEXXZ
?DestroyContents@CEffect@NDb@@MAEXXZ
?DestroyContents@CExplosion@NDb@@MAEXXZ
?DestroyContents@CFinalElement@NDb@@MAEXXZ
?DestroyContents@CFloor@NDb@@MAEXXZ
?DestroyContents@CFloorModel@NDb@@MAEXXZ
?DestroyContents@CGeometry@NDb@@MAEXXZ
?DestroyContents@CGlobalMap@NDb@@MAEXXZ
?DestroyContents@CGrass@NDb@@MAEXXZ
?DestroyContents@CGun@NDb@@MAEXXZ
?DestroyContents@CHead@NDb@@MAEXXZ
?DestroyContents@CIntermediateFloor@NDb@@MAEXXZ
?DestroyContents@CIntermediateSolid@NDb@@MAEXXZ
?DestroyContents@CLightInstance@NDb@@MAEXXZ
?DestroyContents@CMaterial@NDb@@MAEXXZ
?DestroyContents@CModel@NDb@@MAEXXZ
?DestroyContents@CMusic@NDb@@MAEXXZ
?DestroyContents@CNationality@NDb@@MAEXXZ
?DestroyContents@CObject@NDb@@MAEXXZ
?DestroyContents@CPanzerklein@NDb@@MAEXXZ
?DestroyContents@CParticle@NDb@@MAEXXZ
?DestroyContents@CParticleInstance@NDb@@MAEXXZ
?DestroyContents@CPassageObject@NDb@@MAEXXZ
?DestroyContents@CPlacableObject@NDb@@MAEXXZ
?DestroyContents@CRPGAISoundConstants@NDb@@MAEXXZ
?DestroyContents@CRPGAmmo@NDb@@MAEXXZ
?DestroyContents@CRPGArmor@NDb@@MAEXXZ
?DestroyContents@CRPGBaseValue@NDb@@MAEXXZ
?DestroyContents@CRPGClass@NDb@@MAEXXZ
?DestroyContents@CRPGClip4Pers@NDb@@MAEXXZ
?DestroyContents@CRPGClip@NDb@@MAEXXZ
?DestroyContents@CRPGCritical@NDb@@MAEXXZ
?DestroyContents@CRPGDmgToArmor@NDb@@MAEXXZ
?DestroyContents@CRPGFirstAid@NDb@@MAEXXZ
?DestroyContents@CRPGGrenade@NDb@@MAEXXZ
?DestroyContents@CRPGInterruptsConstants@NDb@@MAEXXZ
?DestroyContents@CRPGItem2Uniform@NDb@@MAEXXZ
?DestroyContents@CRPGItem@NDb@@MAEXXZ
?DestroyContents@CRPGKey@NDb@@MAEXXZ
?DestroyContents@CRPGMaterial@NDb@@MAEXXZ
?DestroyContents@CRPGMeleeWeapon@NDb@@MAEXXZ
?DestroyContents@CRPGMine@NDb@@MAEXXZ
?DestroyContents@CRPGMineDetector@NDb@@MAEXXZ
?DestroyContents@CRPGPers@NDb@@MAEXXZ
?DestroyContents@CRPGStoreItem@NDb@@MAEXXZ
?DestroyContents@CRPGToHit@NDb@@MAEXXZ
?DestroyContents@CRPGTool@NDb@@MAEXXZ
?DestroyContents@CRPGUniform@NDb@@MAEXXZ
?DestroyContents@CRPGWeapon@NDb@@MAEXXZ
?DestroyContents@CRPGWeaponType@NDb@@MAEXXZ
?DestroyContents@CRectangle@NDb@@MAEXXZ
?DestroyContents@CRndConstructionPart@NDb@@MAEXXZ
?DestroyContents@CRndContainerModel@NDb@@MAEXXZ
?DestroyContents@CRndModel@NDb@@MAEXXZ
?DestroyContents@CRndObject@NDb@@MAEXXZ
?DestroyContents@CRndTerrainSpot@NDb@@MAEXXZ
?DestroyContents@CRoom@NDb@@MAEXXZ
?DestroyContents@CScript@NDb@@MAEXXZ
?DestroyContents@CSequence@NDb@@MAEXXZ
?DestroyContents@CSide@NDb@@MAEXXZ
?DestroyContents@CSkeleton@NDb@@MAEXXZ
?DestroyContents@CSolid@NDb@@MAEXXZ
?DestroyContents@CSolidModel@NDb@@MAEXXZ
?DestroyContents@CSound@NDb@@MAEXXZ
?DestroyContents@CSoundEffect@NDb@@MAEXXZ
?DestroyContents@CSoundInstance@NDb@@MAEXXZ
?DestroyContents@CSoundVariant@NDb@@MAEXXZ
?DestroyContents@CSpot@NDb@@MAEXXZ
?DestroyContents@CString@NDb@@MAEXXZ
?DestroyContents@CTAmbientLight@NDb@@MAEXXZ
?DestroyContents@CTConstructionPart@NDb@@MAEXXZ
?DestroyContents@CTEffect@NDb@@MAEXXZ
?DestroyContents@CTMaterial@NDb@@MAEXXZ
?DestroyContents@CTRndModel@NDb@@MAEXXZ
?DestroyContents@CTRndObject@NDb@@MAEXXZ
?DestroyContents@CTSound@NDb@@MAEXXZ
?DestroyContents@CTemplVariant@NDb@@MAEXXZ
?DestroyContents@CTemplate@NDb@@MAEXXZ
?DestroyContents@CTerrainSpot@NDb@@MAEXXZ
?DestroyContents@CTerrainTile@NDb@@MAEXXZ
?DestroyContents@CTexture@NDb@@MAEXXZ
?DestroyContents@CTranslatedString@NDb@@MAEXXZ
?DestroyContents@CTypeface@NDb@@MAEXXZ
?DestroyContents@CUIContainer@NDb@@MAEXXZ
?DestroyContents@CUIControl@NDb@@MAEXXZ
?DestroyContents@CUITexture@NDb@@MAEXXZ
?DestroyContents@CUnit@NDb@@MAEXXZ
?DestroyContents@CUnitGroup@NDb@@MAEXXZ
?DestroyContents@CWall@NDb@@MAEXXZ
?DestroyContents@CWallModel@NDb@@MAEXXZ
?DestroyContents@CWaypoint@NDb@@MAEXXZ
?DestroyContents@CWaypointName@NDb@@MAEXXZ
?DoDataVector@CStructureSaver@@AAEXAAV?$vector@HV?$allocator@H@_STL@@@_STL@@@Z
?DoDataVector@CStructureSaver@@AAEXAAV?$vector@MV?$allocator@M@_STL@@@_STL@@@Z
?DoDataVector@CStructureSaver@@AAEXAAV?$vector@USAckVoice@NDb@@V?$allocator@USAckVoice@NDb@@@_STL@@@_STL@@@Z
?DoDataVector@CStructureSaver@@AAEXAAV?$vector@USItemAssign@NDb@@V?$allocator@USItemAssign@NDb@@@_STL@@@_STL@@@Z
?DoDataVector@CStructureSaver@@AAEXAAV?$vector@USUniformItem@NDb@@V?$allocator@USUniformItem@NDb@@@_STL@@@_STL@@@Z
?DoDataVector@CStructureSaver@@AAEXAAV?$vector@USVariantFlags@NDb@@V?$allocator@USVariantFlags@NDb@@@_STL@@@_STL@@@Z
?DoDataVector@CStructureSaver@@AAEXAAV?$vector@V?$CPtr@VCAmbientLight@NDb@@@@V?$allocator@V?$CPtr@VCAmbientLight@NDb@@@@@_STL@@@_STL@@@Z
?DoDataVector@CStructureSaver@@AAEXAAV?$vector@V?$CPtr@VCAnimation@NDb@@@@V?$allocator@V?$CPtr@VCAnimation@NDb@@@@@_STL@@@_STL@@@Z
?DoDataVector@CStructureSaver@@AAEXAAV?$vector@V?$CPtr@VCComplexHead@NDb@@@@V?$allocator@V?$CPtr@VCComplexHead@NDb@@@@@_STL@@@_STL@@@Z
?DoDataVector@CStructureSaver@@AAEXAAV?$vector@V?$CPtr@VCDBPerk@NDb@@@@V?$allocator@V?$CPtr@VCDBPerk@NDb@@@@@_STL@@@_STL@@@Z
?DoDataVector@CStructureSaver@@AAEXAAV?$vector@V?$CPtr@VCDBScenarioObjective@NDb@@@@V?$allocator@V?$CPtr@VCDBScenarioObjective@NDb@@@@@_STL@@@_STL@@@Z
?DoDataVector@CStructureSaver@@AAEXAAV?$vector@V?$CPtr@VCDBScenarioZone@NDb@@@@V?$allocator@V?$CPtr@VCDBScenarioZone@NDb@@@@@_STL@@@_STL@@@Z
?DoDataVector@CStructureSaver@@AAEXAAV?$vector@V?$CPtr@VCDebris@NDb@@@@V?$allocator@V?$CPtr@VCDebris@NDb@@@@@_STL@@@_STL@@@Z
?DoDataVector@CStructureSaver@@AAEXAAV?$vector@V?$CPtr@VCEffect@NDb@@@@V?$allocator@V?$CPtr@VCEffect@NDb@@@@@_STL@@@_STL@@@Z
?DoDataVector@CStructureSaver@@AAEXAAV?$vector@V?$CPtr@VCExplosion@NDb@@@@V?$allocator@V?$CPtr@VCExplosion@NDb@@@@@_STL@@@_STL@@@Z
?DoDataVector@CStructureSaver@@AAEXAAV?$vector@V?$CPtr@VCFinalElement@NDb@@@@V?$allocator@V?$CPtr@VCFinalElement@NDb@@@@@_STL@@@_STL@@@Z
?DoDataVector@CStructureSaver@@AAEXAAV?$vector@V?$CPtr@VCLightInstance@NDb@@@@V?$allocator@V?$CPtr@VCLightInstance@NDb@@@@@_STL@@@_STL@@@Z
?DoDataVector@CStructureSaver@@AAEXAAV?$vector@V?$CPtr@VCMaterial@NDb@@@@V?$allocator@V?$CPtr@VCMaterial@NDb@@@@@_STL@@@_STL@@@Z
?DoDataVector@CStructureSaver@@AAEXAAV?$vector@V?$CPtr@VCParticleInstance@NDb@@@@V?$allocator@V?$CPtr@VCParticleInstance@NDb@@@@@_STL@@@_STL@@@Z
?DoDataVector@CStructureSaver@@AAEXAAV?$vector@V?$CPtr@VCRPGPers@NDb@@@@V?$allocator@V?$CPtr@VCRPGPers@NDb@@@@@_STL@@@_STL@@@Z
?DoDataVector@CStructureSaver@@AAEXAAV?$vector@V?$CPtr@VCRectangle@NDb@@@@V?$allocator@V?$CPtr@VCRectangle@NDb@@@@@_STL@@@_STL@@@Z
?DoDataVector@CStructureSaver@@AAEXAAV?$vector@V?$CPtr@VCRndConstructionPart@NDb@@@@V?$allocator@V?$CPtr@VCRndConstructionPart@NDb@@@@@_STL@@@_STL@@@Z
?DoDataVector@CStructureSaver@@AAEXAAV?$vector@V?$CPtr@VCRndModel@NDb@@@@V?$allocator@V?$CPtr@VCRndModel@NDb@@@@@_STL@@@_STL@@@Z
?DoDataVector@CStructureSaver@@AAEXAAV?$vector@V?$CPtr@VCRndObject@NDb@@@@V?$allocator@V?$CPtr@VCRndObject@NDb@@@@@_STL@@@_STL@@@Z
?DoDataVector@CStructureSaver@@AAEXAAV?$vector@V?$CPtr@VCRndTerrainSpot@NDb@@@@V?$allocator@V?$CPtr@VCRndTerrainSpot@NDb@@@@@_STL@@@_STL@@@Z
?DoDataVector@CStructureSaver@@AAEXAAV?$vector@V?$CPtr@VCScript@NDb@@@@V?$allocator@V?$CPtr@VCScript@NDb@@@@@_STL@@@_STL@@@Z
?DoDataVector@CStructureSaver@@AAEXAAV?$vector@V?$CPtr@VCSoundInstance@NDb@@@@V?$allocator@V?$CPtr@VCSoundInstance@NDb@@@@@_STL@@@_STL@@@Z
?DoDataVector@CStructureSaver@@AAEXAAV?$vector@V?$CPtr@VCSoundVariant@NDb@@@@V?$allocator@V?$CPtr@VCSoundVariant@NDb@@@@@_STL@@@_STL@@@Z
?DoDataVector@CStructureSaver@@AAEXAAV?$vector@V?$CPtr@VCTRndModel@NDb@@@@V?$allocator@V?$CPtr@VCTRndModel@NDb@@@@@_STL@@@_STL@@@Z
?DoDataVector@CStructureSaver@@AAEXAAV?$vector@V?$CPtr@VCTemplVariant@NDb@@@@V?$allocator@V?$CPtr@VCTemplVariant@NDb@@@@@_STL@@@_STL@@@Z
?DoDataVector@CStructureSaver@@AAEXAAV?$vector@V?$CPtr@VCUIControl@NDb@@@@V?$allocator@V?$CPtr@VCUIControl@NDb@@@@@_STL@@@_STL@@@Z
?DoDataVector@CStructureSaver@@AAEXAAV?$vector@V?$CPtr@VCUnit@NDb@@@@V?$allocator@V?$CPtr@VCUnit@NDb@@@@@_STL@@@_STL@@@Z
?DoDataVector@CStructureSaver@@AAEXAAV?$vector@V?$CPtr@VCWaypoint@NDb@@@@V?$allocator@V?$CPtr@VCWaypoint@NDb@@@@@_STL@@@_STL@@@Z
?DoDataVector@CStructureSaver@@AAEXAAV?$vector@V?$basic_string@DU?$char_traits@D@std@@V?$allocator@D@_STL@@@_STL@@V?$allocator@V?$basic_string@DU?$char_traits@D@std@@V?$allocator@D@_STL@@@_STL@@@2@@_STL@@@Z
?DoDataVector@CStructureSaver@@AAEXAAV?$vector@VCVec3@@V?$allocator@VCVec3@@@_STL@@@_STL@@@Z
?DoHashMap@CStructureSaver@@AAEXAAV?$hash_map@HUSAnimationVector@NDb@@U?$hash@H@_STL@@U?$equal_to@H@4@V?$allocator@U?$pair@$$CBHUSAnimationVector@NDb@@@_STL@@@4@@_STL@@@Z
?DoHashMap@CStructureSaver@@AAEXAAV?$hash_map@HUSPieceLinks@NDb@@U?$hash@H@_STL@@U?$equal_to@H@4@V?$allocator@U?$pair@$$CBHUSPieceLinks@NDb@@@_STL@@@4@@_STL@@@Z
?DoPtr@CStructureSaver@@QAEXPAV?$CPtrBase@VCAIGeometry@NDb@@USRef@CObjectBase@@@@@Z
?DoPtr@CStructureSaver@@QAEXPAV?$CPtrBase@VCAISound@NDb@@USRef@CObjectBase@@@@@Z
?DoPtr@CStructureSaver@@QAEXPAV?$CPtrBase@VCAmbientLight@NDb@@USRef@CObjectBase@@@@@Z
?DoPtr@CStructureSaver@@QAEXPAV?$CPtrBase@VCAmbientLightReal@NDb@@USRef@CObjectBase@@@@@Z
?DoPtr@CStructureSaver@@QAEXPAV?$CPtrBase@VCAnimLight@NDb@@USRef@CObjectBase@@@@@Z
?DoPtr@CStructureSaver@@QAEXPAV?$CPtrBase@VCAnimWeaponType@NDb@@USRef@CObjectBase@@@@@Z
?DoPtr@CStructureSaver@@QAEXPAV?$CPtrBase@VCAnimation@NDb@@USRef@CObjectBase@@@@@Z
?DoPtr@CStructureSaver@@QAEXPAV?$CPtrBase@VCBRDF@NDb@@USRef@CObjectBase@@@@@Z
?DoPtr@CStructureSaver@@QAEXPAV?$CPtrBase@VCComplexHead@NDb@@USRef@CObjectBase@@@@@Z
?DoPtr@CStructureSaver@@QAEXPAV?$CPtrBase@VCContainerModel@NDb@@USRef@CObjectBase@@@@@Z
?DoPtr@CStructureSaver@@QAEXPAV?$CPtrBase@VCCubeTexture@NDb@@USRef@CObjectBase@@@@@Z
?DoPtr@CStructureSaver@@QAEXPAV?$CPtrBase@VCDBAckInfo@NDb@@USRef@CObjectBase@@@@@Z
?DoPtr@CStructureSaver@@QAEXPAV?$CPtrBase@VCDBAckSequence@NDb@@USRef@CObjectBase@@@@@Z
?DoPtr@CStructureSaver@@QAEXPAV?$CPtrBase@VCDBDialogPers@NDb@@USRef@CObjectBase@@@@@Z
?DoPtr@CStructureSaver@@QAEXPAV?$CPtrBase@VCDBDiplomacy@NDb@@USRef@CObjectBase@@@@@Z
?DoPtr@CStructureSaver@@QAEXPAV?$CPtrBase@VCDBPerk@NDb@@USRef@CObjectBase@@@@@Z
?DoPtr@CStructureSaver@@QAEXPAV?$CPtrBase@VCDBRecord@@USRef@CObjectBase@@@@@Z
?DoPtr@CStructureSaver@@QAEXPAV?$CPtrBase@VCDBScenario@NDb@@USRef@CObjectBase@@@@@Z
?DoPtr@CStructureSaver@@QAEXPAV?$CPtrBase@VCDBScenarioClue@NDb@@USRef@CObjectBase@@@@@Z
?DoPtr@CStructureSaver@@QAEXPAV?$CPtrBase@VCDBScenarioObjective@NDb@@USRef@CObjectBase@@@@@Z
?DoPtr@CStructureSaver@@QAEXPAV?$CPtrBase@VCDBScenarioState@NDb@@USRef@CObjectBase@@@@@Z
?DoPtr@CStructureSaver@@QAEXPAV?$CPtrBase@VCDBScenarioZone@NDb@@USRef@CObjectBase@@@@@Z
?DoPtr@CStructureSaver@@QAEXPAV?$CPtrBase@VCDebris@NDb@@USRef@CObjectBase@@@@@Z
?DoPtr@CStructureSaver@@QAEXPAV?$CPtrBase@VCDebrisMaterial@NDb@@USRef@CObjectBase@@@@@Z
?DoPtr@CStructureSaver@@QAEXPAV?$CPtrBase@VCDoor@NDb@@USRef@CObjectBase@@@@@Z
?DoPtr@CStructureSaver@@QAEXPAV?$CPtrBase@VCEffect@NDb@@USRef@CObjectBase@@@@@Z
?DoPtr@CStructureSaver@@QAEXPAV?$CPtrBase@VCExplosion@NDb@@USRef@CObjectBase@@@@@Z
?DoPtr@CStructureSaver@@QAEXPAV?$CPtrBase@VCFinalElement@NDb@@USRef@CObjectBase@@@@@Z
?DoPtr@CStructureSaver@@QAEXPAV?$CPtrBase@VCFloorModel@NDb@@USRef@CObjectBase@@@@@Z
?DoPtr@CStructureSaver@@QAEXPAV?$CPtrBase@VCGeometry@NDb@@USRef@CObjectBase@@@@@Z
?DoPtr@CStructureSaver@@QAEXPAV?$CPtrBase@VCGun@NDb@@USRef@CObjectBase@@@@@Z
?DoPtr@CStructureSaver@@QAEXPAV?$CPtrBase@VCHead@NDb@@USRef@CObjectBase@@@@@Z
?DoPtr@CStructureSaver@@QAEXPAV?$CPtrBase@VCLightInstance@NDb@@USRef@CObjectBase@@@@@Z
?DoPtr@CStructureSaver@@QAEXPAV?$CPtrBase@VCMaterial@NDb@@USRef@CObjectBase@@@@@Z
?DoPtr@CStructureSaver@@QAEXPAV?$CPtrBase@VCModel@NDb@@USRef@CObjectBase@@@@@Z
?DoPtr@CStructureSaver@@QAEXPAV?$CPtrBase@VCMusic@NDb@@USRef@CObjectBase@@@@@Z
?DoPtr@CStructureSaver@@QAEXPAV?$CPtrBase@VCNationality@NDb@@USRef@CObjectBase@@@@@Z
?DoPtr@CStructureSaver@@QAEXPAV?$CPtrBase@VCObject@NDb@@USRef@CObjectBase@@@@@Z
?DoPtr@CStructureSaver@@QAEXPAV?$CPtrBase@VCPanzerklein@NDb@@USRef@CObjectBase@@@@@Z
?DoPtr@CStructureSaver@@QAEXPAV?$CPtrBase@VCParticle@NDb@@USRef@CObjectBase@@@@@Z
?DoPtr@CStructureSaver@@QAEXPAV?$CPtrBase@VCParticleInstance@NDb@@USRef@CObjectBase@@@@@Z
?DoPtr@CStructureSaver@@QAEXPAV?$CPtrBase@VCPassageObject@NDb@@USRef@CObjectBase@@@@@Z
?DoPtr@CStructureSaver@@QAEXPAV?$CPtrBase@VCPlacableObject@NDb@@USRef@CObjectBase@@@@@Z
?DoPtr@CStructureSaver@@QAEXPAV?$CPtrBase@VCRPGAmmo@NDb@@USRef@CObjectBase@@@@@Z
?DoPtr@CStructureSaver@@QAEXPAV?$CPtrBase@VCRPGArmor@NDb@@USRef@CObjectBase@@@@@Z
?DoPtr@CStructureSaver@@QAEXPAV?$CPtrBase@VCRPGBaseValue@NDb@@USRef@CObjectBase@@@@@Z
?DoPtr@CStructureSaver@@QAEXPAV?$CPtrBase@VCRPGClass@NDb@@USRef@CObjectBase@@@@@Z
?DoPtr@CStructureSaver@@QAEXPAV?$CPtrBase@VCRPGClip@NDb@@USRef@CObjectBase@@@@@Z
?DoPtr@CStructureSaver@@QAEXPAV?$CPtrBase@VCRPGFirstAid@NDb@@USRef@CObjectBase@@@@@Z
?DoPtr@CStructureSaver@@QAEXPAV?$CPtrBase@VCRPGGrenade@NDb@@USRef@CObjectBase@@@@@Z
?DoPtr@CStructureSaver@@QAEXPAV?$CPtrBase@VCRPGItem@NDb@@USRef@CObjectBase@@@@@Z
?DoPtr@CStructureSaver@@QAEXPAV?$CPtrBase@VCRPGKey@NDb@@USRef@CObjectBase@@@@@Z
?DoPtr@CStructureSaver@@QAEXPAV?$CPtrBase@VCRPGMaterial@NDb@@USRef@CObjectBase@@@@@Z
?DoPtr@CStructureSaver@@QAEXPAV?$CPtrBase@VCRPGMeleeWeapon@NDb@@USRef@CObjectBase@@@@@Z
?DoPtr@CStructureSaver@@QAEXPAV?$CPtrBase@VCRPGMine@NDb@@USRef@CObjectBase@@@@@Z
?DoPtr@CStructureSaver@@QAEXPAV?$CPtrBase@VCRPGMineDetector@NDb@@USRef@CObjectBase@@@@@Z
?DoPtr@CStructureSaver@@QAEXPAV?$CPtrBase@VCRPGPers@NDb@@USRef@CObjectBase@@@@@Z
?DoPtr@CStructureSaver@@QAEXPAV?$CPtrBase@VCRPGTool@NDb@@USRef@CObjectBase@@@@@Z
?DoPtr@CStructureSaver@@QAEXPAV?$CPtrBase@VCRPGUniform@NDb@@USRef@CObjectBase@@@@@Z
?DoPtr@CStructureSaver@@QAEXPAV?$CPtrBase@VCRPGWeapon@NDb@@USRef@CObjectBase@@@@@Z
?DoPtr@CStructureSaver@@QAEXPAV?$CPtrBase@VCRPGWeaponType@NDb@@USRef@CObjectBase@@@@@Z
?DoPtr@CStructureSaver@@QAEXPAV?$CPtrBase@VCRectangle@NDb@@USRef@CObjectBase@@@@@Z
?DoPtr@CStructureSaver@@QAEXPAV?$CPtrBase@VCRndConstructionPart@NDb@@USRef@CObjectBase@@@@@Z
?DoPtr@CStructureSaver@@QAEXPAV?$CPtrBase@VCRndContainerModel@NDb@@USRef@CObjectBase@@@@@Z
?DoPtr@CStructureSaver@@QAEXPAV?$CPtrBase@VCRndModel@NDb@@USRef@CObjectBase@@@@@Z
?DoPtr@CStructureSaver@@QAEXPAV?$CPtrBase@VCRndObject@NDb@@USRef@CObjectBase@@@@@Z
?DoPtr@CStructureSaver@@QAEXPAV?$CPtrBase@VCRndTerrainSpot@NDb@@USRef@CObjectBase@@@@@Z
?DoPtr@CStructureSaver@@QAEXPAV?$CPtrBase@VCScript@NDb@@USRef@CObjectBase@@@@@Z
?DoPtr@CStructureSaver@@QAEXPAV?$CPtrBase@VCSequence@NDb@@USRef@CObjectBase@@@@@Z
?DoPtr@CStructureSaver@@QAEXPAV?$CPtrBase@VCSide@NDb@@USRef@CObjectBase@@@@@Z
?DoPtr@CStructureSaver@@QAEXPAV?$CPtrBase@VCSkeleton@NDb@@USRef@CObjectBase@@@@@Z
?DoPtr@CStructureSaver@@QAEXPAV?$CPtrBase@VCSolidModel@NDb@@USRef@CObjectBase@@@@@Z
?DoPtr@CStructureSaver@@QAEXPAV?$CPtrBase@VCSound@NDb@@USRef@CObjectBase@@@@@Z
?DoPtr@CStructureSaver@@QAEXPAV?$CPtrBase@VCSoundEffect@NDb@@USRef@CObjectBase@@@@@Z
?DoPtr@CStructureSaver@@QAEXPAV?$CPtrBase@VCSoundInstance@NDb@@USRef@CObjectBase@@@@@Z
?DoPtr@CStructureSaver@@QAEXPAV?$CPtrBase@VCSoundVariant@NDb@@USRef@CObjectBase@@@@@Z
?DoPtr@CStructureSaver@@QAEXPAV?$CPtrBase@VCSpot@NDb@@USRef@CObjectBase@@@@@Z
?DoPtr@CStructureSaver@@QAEXPAV?$CPtrBase@VCString@NDb@@USRef@CObjectBase@@@@@Z
?DoPtr@CStructureSaver@@QAEXPAV?$CPtrBase@VCTAmbientLight@NDb@@USRef@CObjectBase@@@@@Z
?DoPtr@CStructureSaver@@QAEXPAV?$CPtrBase@VCTConstructionPart@NDb@@USRef@CObjectBase@@@@@Z
?DoPtr@CStructureSaver@@QAEXPAV?$CPtrBase@VCTEffect@NDb@@USRef@CObjectBase@@@@@Z
?DoPtr@CStructureSaver@@QAEXPAV?$CPtrBase@VCTMaterial@NDb@@USRef@CObjectBase@@@@@Z
?DoPtr@CStructureSaver@@QAEXPAV?$CPtrBase@VCTRndModel@NDb@@USRef@CObjectBase@@@@@Z
?DoPtr@CStructureSaver@@QAEXPAV?$CPtrBase@VCTRndObject@NDb@@USRef@CObjectBase@@@@@Z
?DoPtr@CStructureSaver@@QAEXPAV?$CPtrBase@VCTSound@NDb@@USRef@CObjectBase@@@@@Z
?DoPtr@CStructureSaver@@QAEXPAV?$CPtrBase@VCTemplVariant@NDb@@USRef@CObjectBase@@@@@Z
?DoPtr@CStructureSaver@@QAEXPAV?$CPtrBase@VCTemplate@NDb@@USRef@CObjectBase@@@@@Z
?DoPtr@CStructureSaver@@QAEXPAV?$CPtrBase@VCTexture@NDb@@USRef@CObjectBase@@@@@Z
?DoPtr@CStructureSaver@@QAEXPAV?$CPtrBase@VCUIContainer@NDb@@USRef@CObjectBase@@@@@Z
?DoPtr@CStructureSaver@@QAEXPAV?$CPtrBase@VCUIControl@NDb@@USRef@CObjectBase@@@@@Z
?DoPtr@CStructureSaver@@QAEXPAV?$CPtrBase@VCUITexture@NDb@@USRef@CObjectBase@@@@@Z
?DoPtr@CStructureSaver@@QAEXPAV?$CPtrBase@VCUnit@NDb@@USRef@CObjectBase@@@@@Z
?DoPtr@CStructureSaver@@QAEXPAV?$CPtrBase@VCUnitGroup@NDb@@USRef@CObjectBase@@@@@Z
?DoPtr@CStructureSaver@@QAEXPAV?$CPtrBase@VCWallModel@NDb@@USRef@CObjectBase@@@@@Z
?DoPtr@CStructureSaver@@QAEXPAV?$CPtrBase@VCWaypoint@NDb@@USRef@CObjectBase@@@@@Z
?DoPtr@CStructureSaver@@QAEXPAV?$CPtrBase@VCWaypointName@NDb@@USRef@CObjectBase@@@@@Z
?DoVector@CStructureSaver@@AAEXAAV?$vector@HV?$allocator@H@_STL@@@_STL@@@Z
?DoVector@CStructureSaver@@AAEXAAV?$vector@MV?$allocator@M@_STL@@@_STL@@@Z
?DoVector@CStructureSaver@@AAEXAAV?$vector@USAckVoice@NDb@@V?$allocator@USAckVoice@NDb@@@_STL@@@_STL@@@Z
?DoVector@CStructureSaver@@AAEXAAV?$vector@USItemAssign@NDb@@V?$allocator@USItemAssign@NDb@@@_STL@@@_STL@@@Z
?DoVector@CStructureSaver@@AAEXAAV?$vector@USUniformItem@NDb@@V?$allocator@USUniformItem@NDb@@@_STL@@@_STL@@@Z
?DoVector@CStructureSaver@@AAEXAAV?$vector@USVariantFlags@NDb@@V?$allocator@USVariantFlags@NDb@@@_STL@@@_STL@@@Z
?DoVector@CStructureSaver@@AAEXAAV?$vector@V?$CPtr@VCAmbientLight@NDb@@@@V?$allocator@V?$CPtr@VCAmbientLight@NDb@@@@@_STL@@@_STL@@@Z
?DoVector@CStructureSaver@@AAEXAAV?$vector@V?$CPtr@VCAnimation@NDb@@@@V?$allocator@V?$CPtr@VCAnimation@NDb@@@@@_STL@@@_STL@@@Z
?DoVector@CStructureSaver@@AAEXAAV?$vector@V?$CPtr@VCComplexHead@NDb@@@@V?$allocator@V?$CPtr@VCComplexHead@NDb@@@@@_STL@@@_STL@@@Z
?DoVector@CStructureSaver@@AAEXAAV?$vector@V?$CPtr@VCDBPerk@NDb@@@@V?$allocator@V?$CPtr@VCDBPerk@NDb@@@@@_STL@@@_STL@@@Z
?DoVector@CStructureSaver@@AAEXAAV?$vector@V?$CPtr@VCDBScenarioObjective@NDb@@@@V?$allocator@V?$CPtr@VCDBScenarioObjective@NDb@@@@@_STL@@@_STL@@@Z
?DoVector@CStructureSaver@@AAEXAAV?$vector@V?$CPtr@VCDBScenarioZone@NDb@@@@V?$allocator@V?$CPtr@VCDBScenarioZone@NDb@@@@@_STL@@@_STL@@@Z
?DoVector@CStructureSaver@@AAEXAAV?$vector@V?$CPtr@VCDebris@NDb@@@@V?$allocator@V?$CPtr@VCDebris@NDb@@@@@_STL@@@_STL@@@Z
?DoVector@CStructureSaver@@AAEXAAV?$vector@V?$CPtr@VCEffect@NDb@@@@V?$allocator@V?$CPtr@VCEffect@NDb@@@@@_STL@@@_STL@@@Z
?DoVector@CStructureSaver@@AAEXAAV?$vector@V?$CPtr@VCExplosion@NDb@@@@V?$allocator@V?$CPtr@VCExplosion@NDb@@@@@_STL@@@_STL@@@Z
?DoVector@CStructureSaver@@AAEXAAV?$vector@V?$CPtr@VCFinalElement@NDb@@@@V?$allocator@V?$CPtr@VCFinalElement@NDb@@@@@_STL@@@_STL@@@Z
?DoVector@CStructureSaver@@AAEXAAV?$vector@V?$CPtr@VCLightInstance@NDb@@@@V?$allocator@V?$CPtr@VCLightInstance@NDb@@@@@_STL@@@_STL@@@Z
?DoVector@CStructureSaver@@AAEXAAV?$vector@V?$CPtr@VCMaterial@NDb@@@@V?$allocator@V?$CPtr@VCMaterial@NDb@@@@@_STL@@@_STL@@@Z
?DoVector@CStructureSaver@@AAEXAAV?$vector@V?$CPtr@VCParticleInstance@NDb@@@@V?$allocator@V?$CPtr@VCParticleInstance@NDb@@@@@_STL@@@_STL@@@Z
?DoVector@CStructureSaver@@AAEXAAV?$vector@V?$CPtr@VCRPGPers@NDb@@@@V?$allocator@V?$CPtr@VCRPGPers@NDb@@@@@_STL@@@_STL@@@Z
?DoVector@CStructureSaver@@AAEXAAV?$vector@V?$CPtr@VCRectangle@NDb@@@@V?$allocator@V?$CPtr@VCRectangle@NDb@@@@@_STL@@@_STL@@@Z
?DoVector@CStructureSaver@@AAEXAAV?$vector@V?$CPtr@VCRndConstructionPart@NDb@@@@V?$allocator@V?$CPtr@VCRndConstructionPart@NDb@@@@@_STL@@@_STL@@@Z
?DoVector@CStructureSaver@@AAEXAAV?$vector@V?$CPtr@VCRndModel@NDb@@@@V?$allocator@V?$CPtr@VCRndModel@NDb@@@@@_STL@@@_STL@@@Z
?DoVector@CStructureSaver@@AAEXAAV?$vector@V?$CPtr@VCRndObject@NDb@@@@V?$allocator@V?$CPtr@VCRndObject@NDb@@@@@_STL@@@_STL@@@Z
?DoVector@CStructureSaver@@AAEXAAV?$vector@V?$CPtr@VCRndTerrainSpot@NDb@@@@V?$allocator@V?$CPtr@VCRndTerrainSpot@NDb@@@@@_STL@@@_STL@@@Z
?DoVector@CStructureSaver@@AAEXAAV?$vector@V?$CPtr@VCScript@NDb@@@@V?$allocator@V?$CPtr@VCScript@NDb@@@@@_STL@@@_STL@@@Z
?DoVector@CStructureSaver@@AAEXAAV?$vector@V?$CPtr@VCSoundInstance@NDb@@@@V?$allocator@V?$CPtr@VCSoundInstance@NDb@@@@@_STL@@@_STL@@@Z
?DoVector@CStructureSaver@@AAEXAAV?$vector@V?$CPtr@VCSoundVariant@NDb@@@@V?$allocator@V?$CPtr@VCSoundVariant@NDb@@@@@_STL@@@_STL@@@Z
?DoVector@CStructureSaver@@AAEXAAV?$vector@V?$CPtr@VCTRndModel@NDb@@@@V?$allocator@V?$CPtr@VCTRndModel@NDb@@@@@_STL@@@_STL@@@Z
?DoVector@CStructureSaver@@AAEXAAV?$vector@V?$CPtr@VCTemplVariant@NDb@@@@V?$allocator@V?$CPtr@VCTemplVariant@NDb@@@@@_STL@@@_STL@@@Z
?DoVector@CStructureSaver@@AAEXAAV?$vector@V?$CPtr@VCUIControl@NDb@@@@V?$allocator@V?$CPtr@VCUIControl@NDb@@@@@_STL@@@_STL@@@Z
?DoVector@CStructureSaver@@AAEXAAV?$vector@V?$CPtr@VCUnit@NDb@@@@V?$allocator@V?$CPtr@VCUnit@NDb@@@@@_STL@@@_STL@@@Z
?DoVector@CStructureSaver@@AAEXAAV?$vector@V?$CPtr@VCWaypoint@NDb@@@@V?$allocator@V?$CPtr@VCWaypoint@NDb@@@@@_STL@@@_STL@@@Z
?DoVector@CStructureSaver@@AAEXAAV?$vector@V?$basic_string@DU?$char_traits@D@std@@V?$allocator@D@_STL@@@_STL@@V?$allocator@V?$basic_string@DU?$char_traits@D@std@@V?$allocator@D@_STL@@@_STL@@@2@@_STL@@@Z
?DoVector@CStructureSaver@@AAEXAAV?$vector@VCVec3@@V?$allocator@VCVec3@@@_STL@@@_STL@@@Z
?ExportRectCoords@NDb@@YAXPAVCVec2@@MMM@Z
?FromAngleAxis@CQuat@@QAEXMABVCVec3@@_N@Z
?FromEulerAngles@CQuat@@QAEXMMM@Z
?Get@?$CDBIterator@V?$CRPGSomethingForPers@VCRPGFirstAid@NDb@@@NDb@@@@QBEPAV?$CRPGSomethingForPers@VCRPGFirstAid@NDb@@@NDb@@XZ
?Get@?$CDBIterator@V?$CRPGSomethingForPers@VCRPGGrenade@NDb@@@NDb@@@@QBEPAV?$CRPGSomethingForPers@VCRPGGrenade@NDb@@@NDb@@XZ
?Get@?$CDBIterator@V?$CRPGSomethingForPers@VCRPGKey@NDb@@@NDb@@@@QBEPAV?$CRPGSomethingForPers@VCRPGKey@NDb@@@NDb@@XZ
?Get@?$CDBIterator@V?$CRPGSomethingForPers@VCRPGMeleeWeapon@NDb@@@NDb@@@@QBEPAV?$CRPGSomethingForPers@VCRPGMeleeWeapon@NDb@@@NDb@@XZ
?Get@?$CDBIterator@V?$CRPGSomethingForPers@VCRPGMine@NDb@@@NDb@@@@QBEPAV?$CRPGSomethingForPers@VCRPGMine@NDb@@@NDb@@XZ
?Get@?$CDBIterator@V?$CRPGSomethingForPers@VCRPGMineDetector@NDb@@@NDb@@@@QBEPAV?$CRPGSomethingForPers@VCRPGMineDetector@NDb@@@NDb@@XZ
?Get@?$CDBIterator@V?$CRPGSomethingForPers@VCRPGTool@NDb@@@NDb@@@@QBEPAV?$CRPGSomethingForPers@VCRPGTool@NDb@@@NDb@@XZ
?Get@?$CDBIterator@V?$CRPGSomethingForPers@VCRPGWeapon@NDb@@@NDb@@@@QBEPAV?$CRPGSomethingForPers@VCRPGWeapon@NDb@@@NDb@@XZ
?Get@?$CDBIterator@VCAnimWeaponType@NDb@@@@QBEPAVCAnimWeaponType@NDb@@XZ
?Get@?$CDBIterator@VCAnimation@NDb@@@@QBEPAVCAnimation@NDb@@XZ
?Get@?$CDBIterator@VCDBDialog@NDb@@@@QBEPAVCDBDialog@NDb@@XZ
?Get@?$CDBIterator@VCDebris@NDb@@@@QBEPAVCDebris@NDb@@XZ
?Get@?$CDBIterator@VCRPGClip4Pers@NDb@@@@QBEPAVCRPGClip4Pers@NDb@@XZ
?Get@?$CDBIterator@VCRPGItem2Uniform@NDb@@@@QBEPAVCRPGItem2Uniform@NDb@@XZ
?Get@?$CDBIterator@VCTranslatedString@NDb@@@@QBEPAVCTranslatedString@NDb@@XZ
?Get@CDBIteratorBase@@IBEPAVCDBRecord@@XZ
?Get@CRandomGenerator@@QAEII@Z
?Get@CRandomGenerator@@QAEIXZ
?Get@NDb@@YAPAVCAIGeometry@1@HPAV21@@Z
?Get@NDb@@YAPAVCAISound@1@HPAV21@@Z
?Get@NDb@@YAPAVCAmbientLight@1@HPAV21@@Z
?Get@NDb@@YAPAVCAnimation@1@HPAV21@@Z
?Get@NDb@@YAPAVCAttribute@1@HPAV21@@Z
?Get@NDb@@YAPAVCChapterMap@1@HPAV21@@Z
?Get@NDb@@YAPAVCComplexHead@1@HPAV21@@Z
?Get@NDb@@YAPAVCCubeTexture@1@HPAV21@@Z
?Get@NDb@@YAPAVCDBCamera@1@HPAV21@@Z
?Get@NDb@@YAPAVCDBDialog@1@HPAV21@@Z
?Get@NDb@@YAPAVCDBDifficulty@1@HPAV21@@Z
?Get@NDb@@YAPAVCDBDiplomacy@1@HPAV21@@Z
?Get@NDb@@YAPAVCDBMinesConstants@1@HPAV21@@Z
?Get@NDb@@YAPAVCDBPerk@1@HPAV21@@Z
?Get@NDb@@YAPAVCDBScenarioZone@1@HPAV21@@Z
?Get@NDb@@YAPAVCDoor@1@HPAV21@@Z
?Get@NDb@@YAPAVCEffect@1@HPAV21@@Z
?Get@NDb@@YAPAVCFinalElement@1@HPAV21@@Z
?Get@NDb@@YAPAVCGeometry@1@HPAV21@@Z
?Get@NDb@@YAPAVCGlobalMap@1@HPAV21@@Z
?Get@NDb@@YAPAVCGrass@1@HPAV21@@Z
?Get@NDb@@YAPAVCMaterial@1@HPAV21@@Z
?Get@NDb@@YAPAVCMusic@1@HPAV21@@Z
?Get@NDb@@YAPAVCPlacableObject@1@HPAV21@@Z
?Get@NDb@@YAPAVCRPGAISoundConstants@1@HPAV21@@Z
?Get@NDb@@YAPAVCRPGArmor@1@HPAV21@@Z
?Get@NDb@@YAPAVCRPGCritical@1@HPAV21@@Z
?Get@NDb@@YAPAVCRPGDmgToArmor@1@HPAV21@@Z
?Get@NDb@@YAPAVCRPGGrenade@1@HPAV21@@Z
?Get@NDb@@YAPAVCRPGInterruptsConstants@1@HPAV21@@Z
?Get@NDb@@YAPAVCRPGItem@1@HPAV21@@Z
?Get@NDb@@YAPAVCRPGMaterial@1@HPAV21@@Z
?Get@NDb@@YAPAVCRPGMeleeWeapon@1@HPAV21@@Z
?Get@NDb@@YAPAVCRPGPers@1@HPAV21@@Z
?Get@NDb@@YAPAVCRPGToHit@1@HPAV21@@Z
?Get@NDb@@YAPAVCRPGWeapon@1@HPAV21@@Z
?Get@NDb@@YAPAVCRectangle@1@HPAV21@@Z
?Get@NDb@@YAPAVCRndConstructionPart@1@HPAV21@@Z
?Get@NDb@@YAPAVCRndContainerModel@1@HPAV21@@Z
?Get@NDb@@YAPAVCRndModel@1@HPAV21@@Z
?Get@NDb@@YAPAVCRndObject@1@HPAV21@@Z
?Get@NDb@@YAPAVCRndTerrainSpot@1@HPAV21@@Z
?Get@NDb@@YAPAVCScript@1@HPAV21@@Z
?Get@NDb@@YAPAVCSequence@1@HPAV21@@Z
?Get@NDb@@YAPAVCSide@1@HPAV21@@Z
?Get@NDb@@YAPAVCSkeleton@1@HPAV21@@Z
?Get@NDb@@YAPAVCSound@1@HPAV21@@Z
?Get@NDb@@YAPAVCSoundEffect@1@HPAV21@@Z
?Get@NDb@@YAPAVCSpot@1@HPAV21@@Z
?Get@NDb@@YAPAVCString@1@HPAV21@@Z
?Get@NDb@@YAPAVCTAmbientLight@1@HPAV21@@Z
?Get@NDb@@YAPAVCTConstructionPart@1@HPAV21@@Z
?Get@NDb@@YAPAVCTEffect@1@HPAV21@@Z
?Get@NDb@@YAPAVCTMaterial@1@HPAV21@@Z
?Get@NDb@@YAPAVCTRndModel@1@HPAV21@@Z
?Get@NDb@@YAPAVCTRndObject@1@HPAV21@@Z
?Get@NDb@@YAPAVCTSound@1@HPAV21@@Z
?Get@NDb@@YAPAVCTemplVariant@1@HPAV21@@Z
?Get@NDb@@YAPAVCTemplate@1@HPAV21@@Z
?Get@NDb@@YAPAVCTerrainTile@1@HPAV21@@Z
?Get@NDb@@YAPAVCTexture@1@HPAV21@@Z
?Get@NDb@@YAPAVCTranslatedString@1@HPAV21@@Z
?Get@NDb@@YAPAVCUIContainer@1@HPAV21@@Z
?Get@NDb@@YAPAVCUITexture@1@HPAV21@@Z
?Get@NDb@@YAPAVCUnit@1@HPAV21@@Z
?Get@NDb@@YAPAVCWaypoint@1@HPAV21@@Z
?Get@NDb@@YAPAVCWaypointName@1@HPAV21@@Z
?GetAIGeometry@NDb@@YAPAVCAIGeometry@1@H@Z
?GetAISound@NDb@@YAPAVCAISound@1@H@Z
?GetAISoundConstants@NDb@@YAPAVCRPGAISoundConstants@1@H@Z
?GetAmbientLight@NDb@@YAPAVCAmbientLight@1@H@Z
?GetAnimWeaponType@NDb@@YAPAVCAnimWeaponType@1@H@Z
?GetAnimation@CSkeleton@NDb@@QBEPAVCAnimation@2@W4EType@32@HPBDHPAVCSide@2@_N@Z
?GetAnimation@NDb@@YAPAVCAnimation@1@H@Z
?GetAnimation@SAnimationVector@NDb@@QBEPAVCAnimation@2@HPBDHPAVCSide@2@_N@Z
?GetAnimationType@NDb@@YA?AW4EWeaponType@1@ABV?$basic_string@DU?$char_traits@D@std@@V?$allocator@D@_STL@@@_STL@@@Z
?GetArmor@NDb@@YAPAVCRPGArmor@1@H@Z
?GetAttribute@NDb@@YAPAVCAttribute@1@H@Z
?GetCanSaveByString@NDb@@YA?AW4ECanSave@1@ABV?$basic_string@DU?$char_traits@D@std@@V?$allocator@D@_STL@@@_STL@@@Z
?GetChapterMap@NDb@@YAPAVCChapterMap@1@H@Z
?GetClueTypeByName@NDb@@YA?AW4EScenarioClueType@1@ABV?$basic_string@DU?$char_traits@D@std@@V?$allocator@D@_STL@@@_STL@@@Z
?GetColor@@YA?AVCVec3@@K@Z
?GetComplexHead@NDb@@YAPAVCComplexHead@1@H@Z
?GetContainer@NDb@@YAPAVCContainerModel@1@H@Z
?GetCubeTexture@NDb@@YAPAVCCubeTexture@1@H@Z
?GetDBAck@NDb@@YAPAVCDBAck@1@H@Z
?GetDBAnimation@NDb@@YAPAVCAnimation@1@H@Z
?GetDBCamera@NDb@@YAPAVCDBCamera@1@H@Z
?GetDBCritical@NDb@@YAPAVCRPGCritical@1@H@Z
?GetDBDialog@NDb@@YAPAVCDBDialog@1@H@Z
?GetDBDialogByCode@NDb@@YAPAVCDBDialog@1@ABV?$basic_string@DU?$char_traits@D@std@@V?$allocator@D@_STL@@@_STL@@@Z
?GetDBDifficulty@NDb@@YAPAVCDBDifficulty@1@H@Z
?GetDBDiplomacy@NDb@@YAPAVCDBDiplomacy@1@H@Z
?GetDBDmg2Armor@NDb@@YAPAVCRPGDmgToArmor@1@H@Z
?GetDBMinesConstants@NDb@@YAPAVCDBMinesConstants@1@XZ
?GetDBPerk@NDb@@YAPAVCDBPerk@1@H@Z
?GetDBRndObject@NDb@@YAPAVCRndObject@1@H@Z
?GetDBScenarioZone@NDb@@YAPAVCDBScenarioZone@1@H@Z
?GetDBScript@NDb@@YAPAVCScript@1@H@Z
?GetDBSide@NDb@@YAPAVCSide@1@H@Z
?GetDebris@CDebrisMaterial@NDb@@QAEPAVCDebris@2@XZ
?GetDoorWindow@NDb@@YAPAVCDoor@1@H@Z
?GetEffect@CTEffect@NDb@@QBEPAVCEffect@2@PAUSRand@@@Z
?GetEffect@CTEffect@NDb@@QBEPAVCEffect@2@PAUSRand@@ABV?$vector@HV?$allocator@H@_STL@@@_STL@@@Z
?GetEffect@NDb@@YAPAVCEffect@1@H@Z
?GetEnumByString@?$@W4ECanSave@NDb@@@NDb@@YA?AW4ECanSave@1@ABV?$basic_string@DU?$char_traits@D@std@@V?$allocator@D@_STL@@@_STL@@PAPBDH@Z
?GetFinalElement@NDb@@YAPAVCFinalElement@1@H@Z
?GetGeometry@NDb@@YAPAVCGeometry@1@H@Z
?GetGlobalMap@NDb@@YAPAVCGlobalMap@1@H@Z
?GetGrass@NDb@@YAPAVCGrass@1@H@Z
?GetInterruptsConstants@NDb@@YAPAVCRPGInterruptsConstants@1@H@Z
?GetItemModel@CRPGItem@NDb@@QAEPAVCTRndModel@2@_NPAVCRPGUniform@2@@Z
?GetLight@CTAmbientLight@NDb@@QBEPAVCAmbientLightReal@2@PAUSRand@@@Z
?GetLight@CTAmbientLight@NDb@@QBEPAVCAmbientLightReal@2@PAUSRand@@ABV?$vector@HV?$allocator@H@_STL@@@_STL@@@Z
?GetMaterial@CTMaterial@NDb@@QBEPAVCMaterial@2@PAUSRand@@@Z
?GetMaterial@CTMaterial@NDb@@QBEPAVCMaterial@2@PAUSRand@@ABV?$vector@HV?$allocator@H@_STL@@@_STL@@@Z
?GetMaterial@NDb@@YAPAVCMaterial@1@H@Z
?GetMaxVP@CModel@NDb@@QAEHXZ
?GetMeleeWeapon@NDb@@YAPAVCRPGMeleeWeapon@1@H@Z
?GetModel@CRPGWeapon@NDb@@QAEPAVCModel@2@XZ
?GetModel@NDb@@YAPAVCModel@1@H@Z
?GetModelVariant@NDb@@YAPAVCModel@1@HPAUSRand@@@Z
?GetMusic@NDb@@YAPAVCMusic@1@H@Z
?GetObjectiveTypeByName@NDb@@YA?AW4EScenarioObjectiveType@1@ABV?$basic_string@DU?$char_traits@D@std@@V?$allocator@D@_STL@@@_STL@@@Z
?GetPers@NDb@@YAPAVCRPGPers@1@H@Z
?GetPlacableObject@NDb@@YAPAVCPlacableObject@1@H@Z
?GetRPGGrenade@NDb@@YAPAVCRPGGrenade@1@H@Z
?GetRPGItem@NDb@@YAPAVCRPGItem@1@H@Z
?GetRPGMaterial@NDb@@YAPAVCRPGMaterial@1@H@Z
?GetRadiusFromAISoundType@CAISound@NDb@@UAEHH@Z
?GetRecord@?$CDBTable@VCAIGeometry@NDb@@@@QAEPAVCAIGeometry@NDb@@H@Z
?GetRecord@?$CDBTable@VCAISound@NDb@@@@QAEPAVCAISound@NDb@@H@Z
?GetRecord@?$CDBTable@VCAmbientLight@NDb@@@@QAEPAVCAmbientLight@NDb@@H@Z
?GetRecord@?$CDBTable@VCAnimation@NDb@@@@QAEPAVCAnimation@NDb@@H@Z
?GetRecord@?$CDBTable@VCAttribute@NDb@@@@QAEPAVCAttribute@NDb@@H@Z
?GetRecord@?$CDBTable@VCChapterMap@NDb@@@@QAEPAVCChapterMap@NDb@@H@Z
?GetRecord@?$CDBTable@VCComplexHead@NDb@@@@QAEPAVCComplexHead@NDb@@H@Z
?GetRecord@?$CDBTable@VCCubeTexture@NDb@@@@QAEPAVCCubeTexture@NDb@@H@Z
?GetRecord@?$CDBTable@VCDBAck@NDb@@@@QAEPAVCDBAck@NDb@@H@Z
?GetRecord@?$CDBTable@VCDBCamera@NDb@@@@QAEPAVCDBCamera@NDb@@H@Z
?GetRecord@?$CDBTable@VCDBDialog@NDb@@@@QAEPAVCDBDialog@NDb@@H@Z
?GetRecord@?$CDBTable@VCDBDifficulty@NDb@@@@QAEPAVCDBDifficulty@NDb@@H@Z
?GetRecord@?$CDBTable@VCDBDiplomacy@NDb@@@@QAEPAVCDBDiplomacy@NDb@@H@Z
?GetRecord@?$CDBTable@VCDBMinesConstants@NDb@@@@QAEPAVCDBMinesConstants@NDb@@H@Z
?GetRecord@?$CDBTable@VCDBPerk@NDb@@@@QAEPAVCDBPerk@NDb@@H@Z
?GetRecord@?$CDBTable@VCDBScenarioZone@NDb@@@@QAEPAVCDBScenarioZone@NDb@@H@Z
?GetRecord@?$CDBTable@VCDebrisMaterial@NDb@@@@QAEPAVCDebrisMaterial@NDb@@H@Z
?GetRecord@?$CDBTable@VCDoor@NDb@@@@QAEPAVCDoor@NDb@@H@Z
?GetRecord@?$CDBTable@VCEffect@NDb@@@@QAEPAVCEffect@NDb@@H@Z
?GetRecord@?$CDBTable@VCFinalElement@NDb@@@@QAEPAVCFinalElement@NDb@@H@Z
?GetRecord@?$CDBTable@VCGeometry@NDb@@@@QAEPAVCGeometry@NDb@@H@Z
?GetRecord@?$CDBTable@VCGlobalMap@NDb@@@@QAEPAVCGlobalMap@NDb@@H@Z
?GetRecord@?$CDBTable@VCGrass@NDb@@@@QAEPAVCGrass@NDb@@H@Z
?GetRecord@?$CDBTable@VCGun@NDb@@@@QAEPAVCGun@NDb@@H@Z
?GetRecord@?$CDBTable@VCMaterial@NDb@@@@QAEPAVCMaterial@NDb@@H@Z
?GetRecord@?$CDBTable@VCMusic@NDb@@@@QAEPAVCMusic@NDb@@H@Z
?GetRecord@?$CDBTable@VCPassageObject@NDb@@@@QAEPAVCPassageObject@NDb@@H@Z
?GetRecord@?$CDBTable@VCPlacableObject@NDb@@@@QAEPAVCPlacableObject@NDb@@H@Z
?GetRecord@?$CDBTable@VCRPGAISoundConstants@NDb@@@@QAEPAVCRPGAISoundConstants@NDb@@H@Z
?GetRecord@?$CDBTable@VCRPGArmor@NDb@@@@QAEPAVCRPGArmor@NDb@@H@Z
?GetRecord@?$CDBTable@VCRPGCritical@NDb@@@@QAEPAVCRPGCritical@NDb@@H@Z
?GetRecord@?$CDBTable@VCRPGDmgToArmor@NDb@@@@QAEPAVCRPGDmgToArmor@NDb@@H@Z
?GetRecord@?$CDBTable@VCRPGGrenade@NDb@@@@QAEPAVCRPGGrenade@NDb@@H@Z
?GetRecord@?$CDBTable@VCRPGInterruptsConstants@NDb@@@@QAEPAVCRPGInterruptsConstants@NDb@@H@Z
?GetRecord@?$CDBTable@VCRPGItem@NDb@@@@QAEPAVCRPGItem@NDb@@H@Z
?GetRecord@?$CDBTable@VCRPGMaterial@NDb@@@@QAEPAVCRPGMaterial@NDb@@H@Z
?GetRecord@?$CDBTable@VCRPGMeleeWeapon@NDb@@@@QAEPAVCRPGMeleeWeapon@NDb@@H@Z
?GetRecord@?$CDBTable@VCRPGPers@NDb@@@@QAEPAVCRPGPers@NDb@@H@Z
?GetRecord@?$CDBTable@VCRPGToHit@NDb@@@@QAEPAVCRPGToHit@NDb@@H@Z
?GetRecord@?$CDBTable@VCRPGWeapon@NDb@@@@QAEPAVCRPGWeapon@NDb@@H@Z
?GetRecord@?$CDBTable@VCRectangle@NDb@@@@QAEPAVCRectangle@NDb@@H@Z
?GetRecord@?$CDBTable@VCRndConstructionPart@NDb@@@@QAEPAVCRndConstructionPart@NDb@@H@Z
?GetRecord@?$CDBTable@VCRndContainerModel@NDb@@@@QAEPAVCRndContainerModel@NDb@@H@Z
?GetRecord@?$CDBTable@VCRndModel@NDb@@@@QAEPAVCRndModel@NDb@@H@Z
?GetRecord@?$CDBTable@VCRndObject@NDb@@@@QAEPAVCRndObject@NDb@@H@Z
?GetRecord@?$CDBTable@VCRndTerrainSpot@NDb@@@@QAEPAVCRndTerrainSpot@NDb@@H@Z
?GetRecord@?$CDBTable@VCScript@NDb@@@@QAEPAVCScript@NDb@@H@Z
?GetRecord@?$CDBTable@VCSequence@NDb@@@@QAEPAVCSequence@NDb@@H@Z
?GetRecord@?$CDBTable@VCSide@NDb@@@@QAEPAVCSide@NDb@@H@Z
?GetRecord@?$CDBTable@VCSkeleton@NDb@@@@QAEPAVCSkeleton@NDb@@H@Z
?GetRecord@?$CDBTable@VCSound@NDb@@@@QAEPAVCSound@NDb@@H@Z
?GetRecord@?$CDBTable@VCSoundEffect@NDb@@@@QAEPAVCSoundEffect@NDb@@H@Z
?GetRecord@?$CDBTable@VCSpot@NDb@@@@QAEPAVCSpot@NDb@@H@Z
?GetRecord@?$CDBTable@VCString@NDb@@@@QAEPAVCString@NDb@@H@Z
?GetRecord@?$CDBTable@VCTAmbientLight@NDb@@@@QAEPAVCTAmbientLight@NDb@@H@Z
?GetRecord@?$CDBTable@VCTConstructionPart@NDb@@@@QAEPAVCTConstructionPart@NDb@@H@Z
?GetRecord@?$CDBTable@VCTEffect@NDb@@@@QAEPAVCTEffect@NDb@@H@Z
?GetRecord@?$CDBTable@VCTMaterial@NDb@@@@QAEPAVCTMaterial@NDb@@H@Z
?GetRecord@?$CDBTable@VCTRndModel@NDb@@@@QAEPAVCTRndModel@NDb@@H@Z
?GetRecord@?$CDBTable@VCTRndObject@NDb@@@@QAEPAVCTRndObject@NDb@@H@Z
?GetRecord@?$CDBTable@VCTSound@NDb@@@@QAEPAVCTSound@NDb@@H@Z
?GetRecord@?$CDBTable@VCTemplVariant@NDb@@@@QAEPAVCTemplVariant@NDb@@H@Z
?GetRecord@?$CDBTable@VCTemplate@NDb@@@@QAEPAVCTemplate@NDb@@H@Z
?GetRecord@?$CDBTable@VCTerrainTile@NDb@@@@QAEPAVCTerrainTile@NDb@@H@Z
?GetRecord@?$CDBTable@VCTexture@NDb@@@@QAEPAVCTexture@NDb@@H@Z
?GetRecord@?$CDBTable@VCTranslatedString@NDb@@@@QAEPAVCTranslatedString@NDb@@H@Z
?GetRecord@?$CDBTable@VCUIContainer@NDb@@@@QAEPAVCUIContainer@NDb@@H@Z
?GetRecord@?$CDBTable@VCUITexture@NDb@@@@QAEPAVCUITexture@NDb@@H@Z
?GetRecord@?$CDBTable@VCUnit@NDb@@@@QAEPAVCUnit@NDb@@H@Z
?GetRecord@?$CDBTable@VCWaypoint@NDb@@@@QAEPAVCWaypoint@NDb@@H@Z
?GetRecord@?$CDBTable@VCWaypointName@NDb@@@@QAEPAVCWaypointName@NDb@@H@Z
?GetRecordID@CDBRecord@@QBEHXZ
?GetRectangle@NDb@@YAPAVCRectangle@1@H@Z
?GetRnd@?$CRndPtr@VCAmbientLight@NDb@@@@QBEPAVCAmbientLight@NDb@@PAUSRand@@@Z
?GetRnd@?$CRndPtr@VCAmbientLight@NDb@@@@QBEPAVCAmbientLight@NDb@@PAUSRand@@ABV?$vector@HV?$allocator@H@_STL@@@_STL@@@Z
?GetRnd@?$CRndPtr@VCEffect@NDb@@@@QBEPAVCEffect@NDb@@PAUSRand@@@Z
?GetRnd@?$CRndPtr@VCEffect@NDb@@@@QBEPAVCEffect@NDb@@PAUSRand@@ABV?$vector@HV?$allocator@H@_STL@@@_STL@@@Z
?GetRnd@?$CRndPtr@VCMaterial@NDb@@@@QBEPAVCMaterial@NDb@@PAUSRand@@@Z
?GetRnd@?$CRndPtr@VCMaterial@NDb@@@@QBEPAVCMaterial@NDb@@PAUSRand@@ABV?$vector@HV?$allocator@H@_STL@@@_STL@@@Z
?GetRnd@?$CRndPtr@VCRndConstructionPart@NDb@@@@QBEPAVCRndConstructionPart@NDb@@PAUSRand@@@Z
?GetRnd@?$CRndPtr@VCRndConstructionPart@NDb@@@@QBEPAVCRndConstructionPart@NDb@@PAUSRand@@ABV?$vector@HV?$allocator@H@_STL@@@_STL@@@Z
?GetRnd@?$CRndPtr@VCRndModel@NDb@@@@QBEPAVCRndModel@NDb@@PAUSRand@@@Z
?GetRnd@?$CRndPtr@VCRndModel@NDb@@@@QBEPAVCRndModel@NDb@@PAUSRand@@ABV?$vector@HV?$allocator@H@_STL@@@_STL@@@Z
?GetRnd@?$CRndPtr@VCRndObject@NDb@@@@QBEPAVCRndObject@NDb@@PAUSRand@@@Z
?GetRnd@?$CRndPtr@VCRndObject@NDb@@@@QBEPAVCRndObject@NDb@@PAUSRand@@ABV?$vector@HV?$allocator@H@_STL@@@_STL@@@Z
?GetRnd@?$CRndPtr@VCSoundVariant@NDb@@@@QBEPAVCSoundVariant@NDb@@PAUSRand@@@Z
?GetRnd@?$CRndPtr@VCSoundVariant@NDb@@@@QBEPAVCSoundVariant@NDb@@PAUSRand@@ABV?$vector@HV?$allocator@H@_STL@@@_STL@@@Z
?GetRnd@?$CRndPtr@VCTemplVariant@NDb@@@@QBEPAVCTemplVariant@NDb@@PAUSRand@@ABV?$vector@HV?$allocator@H@_STL@@@_STL@@@Z
?GetRndTerrainSpot@NDb@@YAPAVCRndTerrainSpot@1@H@Z
?GetSectorValue@CRoulette@@QBEMH@Z
?GetSequence@NDb@@YAPAVCSequence@1@H@Z
?GetSkeleton@NDb@@YAPAVCSkeleton@1@H@Z
?GetSound@CTSound@NDb@@QBEPAVCSoundVariant@2@PAUSRand@@@Z
?GetSound@CTSound@NDb@@QBEPAVCSoundVariant@2@PAUSRand@@ABV?$vector@HV?$allocator@H@_STL@@@_STL@@@Z
?GetSound@NDb@@YAPAVCSound@1@H@Z
?GetSound@NDb@@YAPAVCSound@1@PAVCTSound@1@@Z
?GetSoundEffect@NDb@@YAPAVCSoundEffect@1@H@Z
?GetSpot@NDb@@YAPAVCSpot@1@H@Z
?GetStagesQuantity@CObject@NDb@@QAEHXZ
?GetString@NDb@@YAPAVCString@1@H@Z
?GetSubTypeByName@NDb@@YA?AW4EItemSubType@1@ABV?$basic_string@DU?$char_traits@D@std@@V?$allocator@D@_STL@@@_STL@@@Z
?GetTAmbientLight@NDb@@YAPAVCTAmbientLight@1@H@Z
?GetTConstructionPart@NDb@@YAPAVCTConstructionPart@1@H@Z
?GetTEffect@NDb@@YAPAVCTEffect@1@H@Z
?GetTMaterial@NDb@@YAPAVCTMaterial@1@H@Z
?GetTRndModel@NDb@@YAPAVCTRndModel@1@H@Z
?GetTRndObject@NDb@@YAPAVCTRndObject@1@H@Z
?GetTSound@NDb@@YAPAVCTSound@1@H@Z
?GetTable@NDatabase@@YAPAV?$CDBTable@V?$CRPGSomethingForPers@VCRPGFirstAid@NDb@@@NDb@@@@PAPAV2@@Z
?GetTable@NDatabase@@YAPAV?$CDBTable@V?$CRPGSomethingForPers@VCRPGGrenade@NDb@@@NDb@@@@PAPAV2@@Z
?GetTable@NDatabase@@YAPAV?$CDBTable@V?$CRPGSomethingForPers@VCRPGKey@NDb@@@NDb@@@@PAPAV2@@Z
?GetTable@NDatabase@@YAPAV?$CDBTable@V?$CRPGSomethingForPers@VCRPGMeleeWeapon@NDb@@@NDb@@@@PAPAV2@@Z
?GetTable@NDatabase@@YAPAV?$CDBTable@V?$CRPGSomethingForPers@VCRPGMine@NDb@@@NDb@@@@PAPAV2@@Z
?GetTable@NDatabase@@YAPAV?$CDBTable@V?$CRPGSomethingForPers@VCRPGMineDetector@NDb@@@NDb@@@@PAPAV2@@Z
?GetTable@NDatabase@@YAPAV?$CDBTable@V?$CRPGSomethingForPers@VCRPGTool@NDb@@@NDb@@@@PAPAV2@@Z
?GetTable@NDatabase@@YAPAV?$CDBTable@V?$CRPGSomethingForPers@VCRPGWeapon@NDb@@@NDb@@@@PAPAV2@@Z
?GetTable@NDatabase@@YAPAV?$CDBTable@VCAIGeometry@NDb@@@@PAPAV2@@Z
?GetTable@NDatabase@@YAPAV?$CDBTable@VCAISound@NDb@@@@PAPAV2@@Z
?GetTable@NDatabase@@YAPAV?$CDBTable@VCAmbientLight@NDb@@@@PAPAV2@@Z
?GetTable@NDatabase@@YAPAV?$CDBTable@VCAnimLight@NDb@@@@PAPAV2@@Z
?GetTable@NDatabase@@YAPAV?$CDBTable@VCAnimWeaponType@NDb@@@@PAPAV2@@Z
?GetTable@NDatabase@@YAPAV?$CDBTable@VCAnimation@NDb@@@@PAPAV2@@Z
?GetTable@NDatabase@@YAPAV?$CDBTable@VCAttribute@NDb@@@@PAPAV2@@Z
?GetTable@NDatabase@@YAPAV?$CDBTable@VCBRDF@NDb@@@@PAPAV2@@Z
?GetTable@NDatabase@@YAPAV?$CDBTable@VCChapterMap@NDb@@@@PAPAV2@@Z
?GetTable@NDatabase@@YAPAV?$CDBTable@VCComplexHead@NDb@@@@PAPAV2@@Z
?GetTable@NDatabase@@YAPAV?$CDBTable@VCCubeTexture@NDb@@@@PAPAV2@@Z
?GetTable@NDatabase@@YAPAV?$CDBTable@VCDBAck@NDb@@@@PAPAV2@@Z
?GetTable@NDatabase@@YAPAV?$CDBTable@VCDBAckInfo@NDb@@@@PAPAV2@@Z
?GetTable@NDatabase@@YAPAV?$CDBTable@VCDBAckSequence@NDb@@@@PAPAV2@@Z
?GetTable@NDatabase@@YAPAV?$CDBTable@VCDBCamera@NDb@@@@PAPAV2@@Z
?GetTable@NDatabase@@YAPAV?$CDBTable@VCDBDialog@NDb@@@@PAPAV2@@Z
?GetTable@NDatabase@@YAPAV?$CDBTable@VCDBDialogPers@NDb@@@@PAPAV2@@Z
?GetTable@NDatabase@@YAPAV?$CDBTable@VCDBDifficulty@NDb@@@@PAPAV2@@Z
?GetTable@NDatabase@@YAPAV?$CDBTable@VCDBDiplomacy@NDb@@@@PAPAV2@@Z
?GetTable@NDatabase@@YAPAV?$CDBTable@VCDBMinesConstants@NDb@@@@PAPAV2@@Z
?GetTable@NDatabase@@YAPAV?$CDBTable@VCDBPerk@NDb@@@@PAPAV2@@Z
?GetTable@NDatabase@@YAPAV?$CDBTable@VCDBScenario@NDb@@@@PAPAV2@@Z
?GetTable@NDatabase@@YAPAV?$CDBTable@VCDBScenarioClue@NDb@@@@PAPAV2@@Z
?GetTable@NDatabase@@YAPAV?$CDBTable@VCDBScenarioObjective@NDb@@@@PAPAV2@@Z
?GetTable@NDatabase@@YAPAV?$CDBTable@VCDBScenarioState@NDb@@@@PAPAV2@@Z
?GetTable@NDatabase@@YAPAV?$CDBTable@VCDBScenarioZone@NDb@@@@PAPAV2@@Z
?GetTable@NDatabase@@YAPAV?$CDBTable@VCDebris@NDb@@@@PAPAV2@@Z
?GetTable@NDatabase@@YAPAV?$CDBTable@VCDebrisMaterial@NDb@@@@PAPAV2@@Z
?GetTable@NDatabase@@YAPAV?$CDBTable@VCDoor@NDb@@@@PAPAV2@@Z
?GetTable@NDatabase@@YAPAV?$CDBTable@VCEffect@NDb@@@@PAPAV2@@Z
?GetTable@NDatabase@@YAPAV?$CDBTable@VCFinalElement@NDb@@@@PAPAV2@@Z
?GetTable@NDatabase@@YAPAV?$CDBTable@VCFloorModel@NDb@@@@PAPAV2@@Z
?GetTable@NDatabase@@YAPAV?$CDBTable@VCGeometry@NDb@@@@PAPAV2@@Z
?GetTable@NDatabase@@YAPAV?$CDBTable@VCGlobalMap@NDb@@@@PAPAV2@@Z
?GetTable@NDatabase@@YAPAV?$CDBTable@VCGrass@NDb@@@@PAPAV2@@Z
?GetTable@NDatabase@@YAPAV?$CDBTable@VCGun@NDb@@@@PAPAV2@@Z
?GetTable@NDatabase@@YAPAV?$CDBTable@VCHead@NDb@@@@PAPAV2@@Z
?GetTable@NDatabase@@YAPAV?$CDBTable@VCMaterial@NDb@@@@PAPAV2@@Z
?GetTable@NDatabase@@YAPAV?$CDBTable@VCMusic@NDb@@@@PAPAV2@@Z
?GetTable@NDatabase@@YAPAV?$CDBTable@VCNationality@NDb@@@@PAPAV2@@Z
?GetTable@NDatabase@@YAPAV?$CDBTable@VCParticle@NDb@@@@PAPAV2@@Z
?GetTable@NDatabase@@YAPAV?$CDBTable@VCPassageObject@NDb@@@@PAPAV2@@Z
?GetTable@NDatabase@@YAPAV?$CDBTable@VCPlacableObject@NDb@@@@PAPAV2@@Z
?GetTable@NDatabase@@YAPAV?$CDBTable@VCRPGAISoundConstants@NDb@@@@PAPAV2@@Z
?GetTable@NDatabase@@YAPAV?$CDBTable@VCRPGAmmo@NDb@@@@PAPAV2@@Z
?GetTable@NDatabase@@YAPAV?$CDBTable@VCRPGArmor@NDb@@@@PAPAV2@@Z
?GetTable@NDatabase@@YAPAV?$CDBTable@VCRPGBaseValue@NDb@@@@PAPAV2@@Z
?GetTable@NDatabase@@YAPAV?$CDBTable@VCRPGClass@NDb@@@@PAPAV2@@Z
?GetTable@NDatabase@@YAPAV?$CDBTable@VCRPGClip4Pers@NDb@@@@PAPAV2@@Z
?GetTable@NDatabase@@YAPAV?$CDBTable@VCRPGClip@NDb@@@@PAPAV2@@Z
?GetTable@NDatabase@@YAPAV?$CDBTable@VCRPGCritical@NDb@@@@PAPAV2@@Z
?GetTable@NDatabase@@YAPAV?$CDBTable@VCRPGDmgToArmor@NDb@@@@PAPAV2@@Z
?GetTable@NDatabase@@YAPAV?$CDBTable@VCRPGFirstAid@NDb@@@@PAPAV2@@Z
?GetTable@NDatabase@@YAPAV?$CDBTable@VCRPGGrenade@NDb@@@@PAPAV2@@Z
?GetTable@NDatabase@@YAPAV?$CDBTable@VCRPGInterruptsConstants@NDb@@@@PAPAV2@@Z
?GetTable@NDatabase@@YAPAV?$CDBTable@VCRPGItem2Uniform@NDb@@@@PAPAV2@@Z
?GetTable@NDatabase@@YAPAV?$CDBTable@VCRPGItem@NDb@@@@PAPAV2@@Z
?GetTable@NDatabase@@YAPAV?$CDBTable@VCRPGKey@NDb@@@@PAPAV2@@Z
?GetTable@NDatabase@@YAPAV?$CDBTable@VCRPGMaterial@NDb@@@@PAPAV2@@Z
?GetTable@NDatabase@@YAPAV?$CDBTable@VCRPGMeleeWeapon@NDb@@@@PAPAV2@@Z
?GetTable@NDatabase@@YAPAV?$CDBTable@VCRPGMine@NDb@@@@PAPAV2@@Z
?GetTable@NDatabase@@YAPAV?$CDBTable@VCRPGMineDetector@NDb@@@@PAPAV2@@Z
?GetTable@NDatabase@@YAPAV?$CDBTable@VCRPGPers@NDb@@@@PAPAV2@@Z
?GetTable@NDatabase@@YAPAV?$CDBTable@VCRPGToHit@NDb@@@@PAPAV2@@Z
?GetTable@NDatabase@@YAPAV?$CDBTable@VCRPGTool@NDb@@@@PAPAV2@@Z
?GetTable@NDatabase@@YAPAV?$CDBTable@VCRPGUniform@NDb@@@@PAPAV2@@Z
?GetTable@NDatabase@@YAPAV?$CDBTable@VCRPGWeapon@NDb@@@@PAPAV2@@Z
?GetTable@NDatabase@@YAPAV?$CDBTable@VCRPGWeaponType@NDb@@@@PAPAV2@@Z
?GetTable@NDatabase@@YAPAV?$CDBTable@VCRectangle@NDb@@@@PAPAV2@@Z
?GetTable@NDatabase@@YAPAV?$CDBTable@VCRndConstructionPart@NDb@@@@PAPAV2@@Z
?GetTable@NDatabase@@YAPAV?$CDBTable@VCRndContainerModel@NDb@@@@PAPAV2@@Z
?GetTable@NDatabase@@YAPAV?$CDBTable@VCRndModel@NDb@@@@PAPAV2@@Z
?GetTable@NDatabase@@YAPAV?$CDBTable@VCRndObject@NDb@@@@PAPAV2@@Z
?GetTable@NDatabase@@YAPAV?$CDBTable@VCRndTerrainSpot@NDb@@@@PAPAV2@@Z
?GetTable@NDatabase@@YAPAV?$CDBTable@VCScript@NDb@@@@PAPAV2@@Z
?GetTable@NDatabase@@YAPAV?$CDBTable@VCSequence@NDb@@@@PAPAV2@@Z
?GetTable@NDatabase@@YAPAV?$CDBTable@VCSide@NDb@@@@PAPAV2@@Z
?GetTable@NDatabase@@YAPAV?$CDBTable@VCSkeleton@NDb@@@@PAPAV2@@Z
?GetTable@NDatabase@@YAPAV?$CDBTable@VCSolidModel@NDb@@@@PAPAV2@@Z
?GetTable@NDatabase@@YAPAV?$CDBTable@VCSound@NDb@@@@PAPAV2@@Z
?GetTable@NDatabase@@YAPAV?$CDBTable@VCSoundEffect@NDb@@@@PAPAV2@@Z
?GetTable@NDatabase@@YAPAV?$CDBTable@VCSpot@NDb@@@@PAPAV2@@Z
?GetTable@NDatabase@@YAPAV?$CDBTable@VCString@NDb@@@@PAPAV2@@Z
?GetTable@NDatabase@@YAPAV?$CDBTable@VCTAmbientLight@NDb@@@@PAPAV2@@Z
?GetTable@NDatabase@@YAPAV?$CDBTable@VCTConstructionPart@NDb@@@@PAPAV2@@Z
?GetTable@NDatabase@@YAPAV?$CDBTable@VCTEffect@NDb@@@@PAPAV2@@Z
?GetTable@NDatabase@@YAPAV?$CDBTable@VCTMaterial@NDb@@@@PAPAV2@@Z
?GetTable@NDatabase@@YAPAV?$CDBTable@VCTRndModel@NDb@@@@PAPAV2@@Z
?GetTable@NDatabase@@YAPAV?$CDBTable@VCTRndObject@NDb@@@@PAPAV2@@Z
?GetTable@NDatabase@@YAPAV?$CDBTable@VCTSound@NDb@@@@PAPAV2@@Z
?GetTable@NDatabase@@YAPAV?$CDBTable@VCTemplVariant@NDb@@@@PAPAV2@@Z
?GetTable@NDatabase@@YAPAV?$CDBTable@VCTemplate@NDb@@@@PAPAV2@@Z
?GetTable@NDatabase@@YAPAV?$CDBTable@VCTerrainTile@NDb@@@@PAPAV2@@Z
?GetTable@NDatabase@@YAPAV?$CDBTable@VCTexture@NDb@@@@PAPAV2@@Z
?GetTable@NDatabase@@YAPAV?$CDBTable@VCTranslatedString@NDb@@@@PAPAV2@@Z
?GetTable@NDatabase@@YAPAV?$CDBTable@VCUIContainer@NDb@@@@PAPAV2@@Z
?GetTable@NDatabase@@YAPAV?$CDBTable@VCUITexture@NDb@@@@PAPAV2@@Z
?GetTable@NDatabase@@YAPAV?$CDBTable@VCUnit@NDb@@@@PAPAV2@@Z
?GetTable@NDatabase@@YAPAV?$CDBTable@VCUnitGroup@NDb@@@@PAPAV2@@Z
?GetTable@NDatabase@@YAPAV?$CDBTable@VCWallModel@NDb@@@@PAPAV2@@Z
?GetTable@NDatabase@@YAPAV?$CDBTable@VCWaypoint@NDb@@@@PAPAV2@@Z
?GetTable@NDatabase@@YAPAV?$CDBTable@VCWaypointName@NDb@@@@PAPAV2@@Z
?GetTemplVariant@NDb@@YAPAVCTemplVariant@1@H@Z
?GetTemplVariant@NDb@@YAPAVCTemplVariant@1@PBVCTemplate@1@ABV?$vector@HV?$allocator@H@_STL@@@_STL@@HPAUSRand@@@Z
?GetTemplate@NDb@@YAPAVCTemplate@1@H@Z
?GetTerrainTile@NDb@@YAPAVCTerrainTile@1@H@Z
?GetTexture@NDb@@YAPAVCTexture@1@H@Z
?GetToHitConstants@NDb@@YAPAVCRPGToHit@1@H@Z
?GetTranslatedString@NDb@@YAPAVCTranslatedString@1@H@Z
?GetTypeID@?$CClassFactory@VCDBRecord@@@@QAEHPAV?$CRPGSomethingForPers@VCRPGFirstAid@NDb@@@NDb@@@Z
?GetTypeID@?$CClassFactory@VCDBRecord@@@@QAEHPAV?$CRPGSomethingForPers@VCRPGGrenade@NDb@@@NDb@@@Z
?GetTypeID@?$CClassFactory@VCDBRecord@@@@QAEHPAV?$CRPGSomethingForPers@VCRPGKey@NDb@@@NDb@@@Z
?GetTypeID@?$CClassFactory@VCDBRecord@@@@QAEHPAV?$CRPGSomethingForPers@VCRPGMeleeWeapon@NDb@@@NDb@@@Z
?GetTypeID@?$CClassFactory@VCDBRecord@@@@QAEHPAV?$CRPGSomethingForPers@VCRPGMine@NDb@@@NDb@@@Z
?GetTypeID@?$CClassFactory@VCDBRecord@@@@QAEHPAV?$CRPGSomethingForPers@VCRPGMineDetector@NDb@@@NDb@@@Z
?GetTypeID@?$CClassFactory@VCDBRecord@@@@QAEHPAV?$CRPGSomethingForPers@VCRPGTool@NDb@@@NDb@@@Z
?GetTypeID@?$CClassFactory@VCDBRecord@@@@QAEHPAV?$CRPGSomethingForPers@VCRPGWeapon@NDb@@@NDb@@@Z
?GetTypeID@?$CClassFactory@VCDBRecord@@@@QAEHPAVCAIGeometry@NDb@@@Z
?GetTypeID@?$CClassFactory@VCDBRecord@@@@QAEHPAVCAISound@NDb@@@Z
?GetTypeID@?$CClassFactory@VCDBRecord@@@@QAEHPAVCAmbientLight@NDb@@@Z
?GetTypeID@?$CClassFactory@VCDBRecord@@@@QAEHPAVCAnimLight@NDb@@@Z
?GetTypeID@?$CClassFactory@VCDBRecord@@@@QAEHPAVCAnimWeaponType@NDb@@@Z
?GetTypeID@?$CClassFactory@VCDBRecord@@@@QAEHPAVCAnimation@NDb@@@Z
?GetTypeID@?$CClassFactory@VCDBRecord@@@@QAEHPAVCAttribute@NDb@@@Z
?GetTypeID@?$CClassFactory@VCDBRecord@@@@QAEHPAVCBRDF@NDb@@@Z
?GetTypeID@?$CClassFactory@VCDBRecord@@@@QAEHPAVCChapterMap@NDb@@@Z
?GetTypeID@?$CClassFactory@VCDBRecord@@@@QAEHPAVCComplexHead@NDb@@@Z
?GetTypeID@?$CClassFactory@VCDBRecord@@@@QAEHPAVCCubeTexture@NDb@@@Z
?GetTypeID@?$CClassFactory@VCDBRecord@@@@QAEHPAVCDBAck@NDb@@@Z
?GetTypeID@?$CClassFactory@VCDBRecord@@@@QAEHPAVCDBAckInfo@NDb@@@Z
?GetTypeID@?$CClassFactory@VCDBRecord@@@@QAEHPAVCDBAckSequence@NDb@@@Z
?GetTypeID@?$CClassFactory@VCDBRecord@@@@QAEHPAVCDBCamera@NDb@@@Z
?GetTypeID@?$CClassFactory@VCDBRecord@@@@QAEHPAVCDBDialog@NDb@@@Z
?GetTypeID@?$CClassFactory@VCDBRecord@@@@QAEHPAVCDBDialogPers@NDb@@@Z
?GetTypeID@?$CClassFactory@VCDBRecord@@@@QAEHPAVCDBDifficulty@NDb@@@Z
?GetTypeID@?$CClassFactory@VCDBRecord@@@@QAEHPAVCDBDiplomacy@NDb@@@Z
?GetTypeID@?$CClassFactory@VCDBRecord@@@@QAEHPAVCDBMinesConstants@NDb@@@Z
?GetTypeID@?$CClassFactory@VCDBRecord@@@@QAEHPAVCDBPerk@NDb@@@Z
?GetTypeID@?$CClassFactory@VCDBRecord@@@@QAEHPAVCDBScenario@NDb@@@Z
?GetTypeID@?$CClassFactory@VCDBRecord@@@@QAEHPAVCDBScenarioClue@NDb@@@Z
?GetTypeID@?$CClassFactory@VCDBRecord@@@@QAEHPAVCDBScenarioObjective@NDb@@@Z
?GetTypeID@?$CClassFactory@VCDBRecord@@@@QAEHPAVCDBScenarioState@NDb@@@Z
?GetTypeID@?$CClassFactory@VCDBRecord@@@@QAEHPAVCDBScenarioZone@NDb@@@Z
?GetTypeID@?$CClassFactory@VCDBRecord@@@@QAEHPAVCDebris@NDb@@@Z
?GetTypeID@?$CClassFactory@VCDBRecord@@@@QAEHPAVCDebrisMaterial@NDb@@@Z
?GetTypeID@?$CClassFactory@VCDBRecord@@@@QAEHPAVCDoor@NDb@@@Z
?GetTypeID@?$CClassFactory@VCDBRecord@@@@QAEHPAVCEffect@NDb@@@Z
?GetTypeID@?$CClassFactory@VCDBRecord@@@@QAEHPAVCFinalElement@NDb@@@Z
?GetTypeID@?$CClassFactory@VCDBRecord@@@@QAEHPAVCFloorModel@NDb@@@Z
?GetTypeID@?$CClassFactory@VCDBRecord@@@@QAEHPAVCGeometry@NDb@@@Z
?GetTypeID@?$CClassFactory@VCDBRecord@@@@QAEHPAVCGlobalMap@NDb@@@Z
?GetTypeID@?$CClassFactory@VCDBRecord@@@@QAEHPAVCGrass@NDb@@@Z
?GetTypeID@?$CClassFactory@VCDBRecord@@@@QAEHPAVCGun@NDb@@@Z
?GetTypeID@?$CClassFactory@VCDBRecord@@@@QAEHPAVCHead@NDb@@@Z
?GetTypeID@?$CClassFactory@VCDBRecord@@@@QAEHPAVCMaterial@NDb@@@Z
?GetTypeID@?$CClassFactory@VCDBRecord@@@@QAEHPAVCMusic@NDb@@@Z
?GetTypeID@?$CClassFactory@VCDBRecord@@@@QAEHPAVCNationality@NDb@@@Z
?GetTypeID@?$CClassFactory@VCDBRecord@@@@QAEHPAVCParticle@NDb@@@Z
?GetTypeID@?$CClassFactory@VCDBRecord@@@@QAEHPAVCPassageObject@NDb@@@Z
?GetTypeID@?$CClassFactory@VCDBRecord@@@@QAEHPAVCPlacableObject@NDb@@@Z
?GetTypeID@?$CClassFactory@VCDBRecord@@@@QAEHPAVCRPGAISoundConstants@NDb@@@Z
?GetTypeID@?$CClassFactory@VCDBRecord@@@@QAEHPAVCRPGAmmo@NDb@@@Z
?GetTypeID@?$CClassFactory@VCDBRecord@@@@QAEHPAVCRPGArmor@NDb@@@Z
?GetTypeID@?$CClassFactory@VCDBRecord@@@@QAEHPAVCRPGBaseValue@NDb@@@Z
?GetTypeID@?$CClassFactory@VCDBRecord@@@@QAEHPAVCRPGClass@NDb@@@Z
?GetTypeID@?$CClassFactory@VCDBRecord@@@@QAEHPAVCRPGClip4Pers@NDb@@@Z
?GetTypeID@?$CClassFactory@VCDBRecord@@@@QAEHPAVCRPGClip@NDb@@@Z
?GetTypeID@?$CClassFactory@VCDBRecord@@@@QAEHPAVCRPGCritical@NDb@@@Z
?GetTypeID@?$CClassFactory@VCDBRecord@@@@QAEHPAVCRPGDmgToArmor@NDb@@@Z
?GetTypeID@?$CClassFactory@VCDBRecord@@@@QAEHPAVCRPGFirstAid@NDb@@@Z
?GetTypeID@?$CClassFactory@VCDBRecord@@@@QAEHPAVCRPGGrenade@NDb@@@Z
?GetTypeID@?$CClassFactory@VCDBRecord@@@@QAEHPAVCRPGInterruptsConstants@NDb@@@Z
?GetTypeID@?$CClassFactory@VCDBRecord@@@@QAEHPAVCRPGItem2Uniform@NDb@@@Z
?GetTypeID@?$CClassFactory@VCDBRecord@@@@QAEHPAVCRPGItem@NDb@@@Z
?GetTypeID@?$CClassFactory@VCDBRecord@@@@QAEHPAVCRPGKey@NDb@@@Z
?GetTypeID@?$CClassFactory@VCDBRecord@@@@QAEHPAVCRPGMaterial@NDb@@@Z
?GetTypeID@?$CClassFactory@VCDBRecord@@@@QAEHPAVCRPGMeleeWeapon@NDb@@@Z
?GetTypeID@?$CClassFactory@VCDBRecord@@@@QAEHPAVCRPGMine@NDb@@@Z
?GetTypeID@?$CClassFactory@VCDBRecord@@@@QAEHPAVCRPGMineDetector@NDb@@@Z
?GetTypeID@?$CClassFactory@VCDBRecord@@@@QAEHPAVCRPGPers@NDb@@@Z
?GetTypeID@?$CClassFactory@VCDBRecord@@@@QAEHPAVCRPGToHit@NDb@@@Z
?GetTypeID@?$CClassFactory@VCDBRecord@@@@QAEHPAVCRPGTool@NDb@@@Z
?GetTypeID@?$CClassFactory@VCDBRecord@@@@QAEHPAVCRPGUniform@NDb@@@Z
?GetTypeID@?$CClassFactory@VCDBRecord@@@@QAEHPAVCRPGWeapon@NDb@@@Z
?GetTypeID@?$CClassFactory@VCDBRecord@@@@QAEHPAVCRPGWeaponType@NDb@@@Z
?GetTypeID@?$CClassFactory@VCDBRecord@@@@QAEHPAVCRectangle@NDb@@@Z
?GetTypeID@?$CClassFactory@VCDBRecord@@@@QAEHPAVCRndConstructionPart@NDb@@@Z
?GetTypeID@?$CClassFactory@VCDBRecord@@@@QAEHPAVCRndContainerModel@NDb@@@Z
?GetTypeID@?$CClassFactory@VCDBRecord@@@@QAEHPAVCRndModel@NDb@@@Z
?GetTypeID@?$CClassFactory@VCDBRecord@@@@QAEHPAVCRndObject@NDb@@@Z
?GetTypeID@?$CClassFactory@VCDBRecord@@@@QAEHPAVCRndTerrainSpot@NDb@@@Z
?GetTypeID@?$CClassFactory@VCDBRecord@@@@QAEHPAVCScript@NDb@@@Z
?GetTypeID@?$CClassFactory@VCDBRecord@@@@QAEHPAVCSequence@NDb@@@Z
?GetTypeID@?$CClassFactory@VCDBRecord@@@@QAEHPAVCSide@NDb@@@Z
?GetTypeID@?$CClassFactory@VCDBRecord@@@@QAEHPAVCSkeleton@NDb@@@Z
?GetTypeID@?$CClassFactory@VCDBRecord@@@@QAEHPAVCSolidModel@NDb@@@Z
?GetTypeID@?$CClassFactory@VCDBRecord@@@@QAEHPAVCSound@NDb@@@Z
?GetTypeID@?$CClassFactory@VCDBRecord@@@@QAEHPAVCSoundEffect@NDb@@@Z
?GetTypeID@?$CClassFactory@VCDBRecord@@@@QAEHPAVCSpot@NDb@@@Z
?GetTypeID@?$CClassFactory@VCDBRecord@@@@QAEHPAVCString@NDb@@@Z
?GetTypeID@?$CClassFactory@VCDBRecord@@@@QAEHPAVCTAmbientLight@NDb@@@Z
?GetTypeID@?$CClassFactory@VCDBRecord@@@@QAEHPAVCTConstructionPart@NDb@@@Z
?GetTypeID@?$CClassFactory@VCDBRecord@@@@QAEHPAVCTEffect@NDb@@@Z
?GetTypeID@?$CClassFactory@VCDBRecord@@@@QAEHPAVCTMaterial@NDb@@@Z
?GetTypeID@?$CClassFactory@VCDBRecord@@@@QAEHPAVCTRndModel@NDb@@@Z
?GetTypeID@?$CClassFactory@VCDBRecord@@@@QAEHPAVCTRndObject@NDb@@@Z
?GetTypeID@?$CClassFactory@VCDBRecord@@@@QAEHPAVCTSound@NDb@@@Z
?GetTypeID@?$CClassFactory@VCDBRecord@@@@QAEHPAVCTemplVariant@NDb@@@Z
?GetTypeID@?$CClassFactory@VCDBRecord@@@@QAEHPAVCTemplate@NDb@@@Z
?GetTypeID@?$CClassFactory@VCDBRecord@@@@QAEHPAVCTerrainTile@NDb@@@Z
?GetTypeID@?$CClassFactory@VCDBRecord@@@@QAEHPAVCTexture@NDb@@@Z
?GetTypeID@?$CClassFactory@VCDBRecord@@@@QAEHPAVCTranslatedString@NDb@@@Z
?GetTypeID@?$CClassFactory@VCDBRecord@@@@QAEHPAVCUIContainer@NDb@@@Z
?GetTypeID@?$CClassFactory@VCDBRecord@@@@QAEHPAVCUITexture@NDb@@@Z
?GetTypeID@?$CClassFactory@VCDBRecord@@@@QAEHPAVCUnit@NDb@@@Z
?GetTypeID@?$CClassFactory@VCDBRecord@@@@QAEHPAVCUnitGroup@NDb@@@Z
?GetTypeID@?$CClassFactory@VCDBRecord@@@@QAEHPAVCWallModel@NDb@@@Z
?GetTypeID@?$CClassFactory@VCDBRecord@@@@QAEHPAVCWaypoint@NDb@@@Z
?GetTypeID@?$CClassFactory@VCDBRecord@@@@QAEHPAVCWaypointName@NDb@@@Z
?GetUIContainer@NDb@@YAPAVCUIContainer@1@H@Z
?GetUITexture@NDb@@YAPAVCUITexture@1@H@Z
?GetUnit@NDb@@YAPAVCUnit@1@H@Z
?GetVariant@?$CRndPtr@VCTemplVariant@NDb@@@@QBEPAVCTemplVariant@NDb@@H@Z
?GetVoice@CDBAckInfo@NDb@@QBEABUSAckVoice@2@H@Z
?GetWaypoint@NDb@@YAPAVCWaypoint@1@H@Z
?GetWaypointName@NDb@@YAPAVCWaypointName@1@H@Z
?GetWeapon@NDb@@YAPAVCRPGWeapon@1@H@Z
?GiveItems@NDb@@YAXXZ
?Import@?$CRPGSomethingForPers@VCRPGFirstAid@NDb@@@NDb@@UAEXXZ
?Import@?$CRPGSomethingForPers@VCRPGGrenade@NDb@@@NDb@@UAEXXZ
?Import@?$CRPGSomethingForPers@VCRPGKey@NDb@@@NDb@@UAEXXZ
?Import@?$CRPGSomethingForPers@VCRPGMeleeWeapon@NDb@@@NDb@@UAEXXZ
?Import@?$CRPGSomethingForPers@VCRPGMine@NDb@@@NDb@@UAEXXZ
?Import@?$CRPGSomethingForPers@VCRPGMineDetector@NDb@@@NDb@@UAEXXZ
?Import@?$CRPGSomethingForPers@VCRPGTool@NDb@@@NDb@@UAEXXZ
?Import@?$CRPGSomethingForPers@VCRPGWeapon@NDb@@@NDb@@UAEXXZ
?Import@?$CRndPtr@VCAmbientLight@NDb@@@@UAEXXZ
?Import@?$CRndPtr@VCEffect@NDb@@@@UAEXXZ
?Import@?$CRndPtr@VCMaterial@NDb@@@@UAEXXZ
?Import@?$CRndPtr@VCRndConstructionPart@NDb@@@@UAEXXZ
?Import@?$CRndPtr@VCRndModel@NDb@@@@UAEXXZ
?Import@?$CRndPtr@VCRndObject@NDb@@@@UAEXXZ
?Import@?$CRndPtr@VCSoundVariant@NDb@@@@UAEXXZ
?Import@?$CRndPtr@VCTemplVariant@NDb@@@@UAEXXZ
?Import@CAIGeometry@NDb@@UAEXXZ
?Import@CAISound@NDb@@UAEXXZ
?Import@CAmbientLight@NDb@@UAEXXZ
?Import@CAnimLight@NDb@@UAEXXZ
?Import@CAnimWeaponType@NDb@@UAEXXZ
?Import@CAnimation@NDb@@UAEXXZ
?Import@CAttribute@NDb@@UAEXXZ
?Import@CBRDF@NDb@@UAEXXZ
?Import@CChapterMap@NDb@@UAEXXZ
?Import@CComplexHead@NDb@@UAEXXZ
?Import@CContainer@NDb@@UAEXXZ
?Import@CCubeTexture@NDb@@UAEXXZ
?Import@CDBAck@NDb@@UAEXXZ
?Import@CDBAckInfo@NDb@@UAEXXZ
?Import@CDBAckSequence@NDb@@UAEXXZ
?Import@CDBAutoLoadScript@NDb@@UAEXXZ
?Import@CDBCamera@NDb@@UAEXXZ
?Import@CDBDialog@NDb@@UAEXXZ
?Import@CDBDialogPers@NDb@@UAEXXZ
?Import@CDBDialogSeq@NDb@@UAEXXZ
?Import@CDBDifficulty@NDb@@UAEXXZ
?Import@CDBDiplomacy@NDb@@UAEXXZ
?Import@CDBMinesConstants@NDb@@UAEXXZ
?Import@CDBPerk@NDb@@UAEXXZ
?Import@CDBPerkTreeNode@NDb@@UAEXXZ
?Import@CDBScenario@NDb@@UAEXXZ
?Import@CDBScenarioClue@NDb@@UAEXXZ
?Import@CDBScenarioObjective2Clue@NDb@@UAEXXZ
?Import@CDBScenarioObjective@NDb@@UAEXXZ
?Import@CDBScenarioState@NDb@@UAEXXZ
?Import@CDBScenarioZone@NDb@@UAEXXZ
?Import@CDebris@NDb@@UAEXXZ
?Import@CDebrisMaterial@NDb@@UAEXXZ
?Import@CDoor@NDb@@UAEXXZ
?Import@CEffect@NDb@@UAEXXZ
?Import@CExplosion@NDb@@UAEXXZ
?Import@CFinalElement@NDb@@UAEXXZ
?Import@CFloor@NDb@@UAEXXZ
?Import@CFloorModel@NDb@@UAEXXZ
?Import@CGeometry@NDb@@UAEXXZ
?Import@CGlobalMap@NDb@@UAEXXZ
?Import@CGrass@NDb@@UAEXXZ
?Import@CGun@NDb@@UAEXXZ
?Import@CHead@NDb@@UAEXXZ
?Import@CLightInstance@NDb@@UAEXXZ
?Import@CMaterial@NDb@@UAEXXZ
?Import@CMusic@NDb@@UAEXXZ
?Import@CNationality@NDb@@UAEXXZ
?Import@CPanzerklein@NDb@@UAEXXZ
?Import@CParticle@NDb@@UAEXXZ
?Import@CParticleInstance@NDb@@UAEXXZ
?Import@CPassageObject@NDb@@UAEXXZ
?Import@CPlacableObject@NDb@@UAEXXZ
?Import@CRPGAISoundConstants@NDb@@UAEXXZ
?Import@CRPGAmmo@NDb@@UAEXXZ
?Import@CRPGArmor@NDb@@UAEXXZ
?Import@CRPGBaseValue@NDb@@UAEXXZ
?Import@CRPGClass@NDb@@UAEXXZ
?Import@CRPGClip4Pers@NDb@@UAEXXZ
?Import@CRPGClip@NDb@@UAEXXZ
?Import@CRPGCritical@NDb@@UAEXXZ
?Import@CRPGDmgToArmor@NDb@@UAEXXZ
?Import@CRPGFirstAid@NDb@@UAEXXZ
?Import@CRPGGrenade@NDb@@UAEXXZ
?Import@CRPGInterruptsConstants@NDb@@UAEXXZ
?Import@CRPGItem2Uniform@NDb@@UAEXXZ
?Import@CRPGItem@NDb@@UAEXXZ
?Import@CRPGKey@NDb@@UAEXXZ
?Import@CRPGMaterial@NDb@@UAEXXZ
?Import@CRPGMeleeWeapon@NDb@@UAEXXZ
?Import@CRPGMine@NDb@@UAEXXZ
?Import@CRPGMineDetector@NDb@@UAEXXZ
?Import@CRPGPers@NDb@@UAEXXZ
?Import@CRPGStoreItem@NDb@@UAEXXZ
?Import@CRPGToHit@NDb@@UAEXXZ
?Import@CRPGTool@NDb@@UAEXXZ
?Import@CRPGUniform@NDb@@UAEXXZ
?Import@CRPGWeapon@NDb@@UAEXXZ
?Import@CRPGWeaponType@NDb@@UAEXXZ
?Import@CRectangle@NDb@@UAEXXZ
?Import@CRndConstructionPart@NDb@@UAEXXZ
?Import@CRndContainerModel@NDb@@UAEXXZ
?Import@CRndModel@NDb@@UAEXXZ
?Import@CRndObject@NDb@@UAEXXZ
?Import@CRndTerrainSpot@NDb@@UAEXXZ
?Import@CRoom@NDb@@UAEXXZ
?Import@CScript@NDb@@UAEXXZ
?Import@CSequence@NDb@@UAEXXZ
?Import@CSide@NDb@@UAEXXZ
?Import@CSkeleton@NDb@@UAEXXZ
?Import@CSolid@NDb@@UAEXXZ
?Import@CSolidModel@NDb@@UAEXXZ
?Import@CSound@NDb@@UAEXXZ
?Import@CSoundEffect@NDb@@UAEXXZ
?Import@CSoundInstance@NDb@@UAEXXZ
?Import@CSoundVariant@NDb@@UAEXXZ
?Import@CSpot@NDb@@UAEXXZ
?Import@CString@NDb@@UAEXXZ
?Import@CTRndObject@NDb@@UAEXXZ
?Import@CTemplVariant@NDb@@UAEXXZ
?Import@CTemplate@NDb@@UAEXXZ
?Import@CTerrainTile@NDb@@UAEXXZ
?Import@CTexture@NDb@@UAEXXZ
?Import@CTranslatedString@NDb@@UAEXXZ
?Import@CTypeface@NDb@@UAEXXZ
?Import@CUIContainer@NDb@@UAEXXZ
?Import@CUIControl@NDb@@UAEXXZ
?Import@CUITexture@NDb@@UAEXXZ
?Import@CUnit@NDb@@UAEXXZ
?Import@CUnitGroup@NDb@@UAEXXZ
?Import@CWall@NDb@@UAEXXZ
?Import@CWallModel@NDb@@UAEXXZ
?Import@CWaypoint@NDb@@UAEXXZ
?Import@CWaypointName@NDb@@UAEXXZ
?ImportField@NDatabase@@YAXPBDPAV?$CPtr@VCAIGeometry@NDb@@@@@Z
?ImportField@NDatabase@@YAXPBDPAV?$CPtr@VCAISound@NDb@@@@@Z
?ImportField@NDatabase@@YAXPBDPAV?$CPtr@VCAnimLight@NDb@@@@@Z
?ImportField@NDatabase@@YAXPBDPAV?$CPtr@VCAnimWeaponType@NDb@@@@@Z
?ImportField@NDatabase@@YAXPBDPAV?$CPtr@VCAnimation@NDb@@@@@Z
?ImportField@NDatabase@@YAXPBDPAV?$CPtr@VCBRDF@NDb@@@@@Z
?ImportField@NDatabase@@YAXPBDPAV?$CPtr@VCComplexHead@NDb@@@@@Z
?ImportField@NDatabase@@YAXPBDPAV?$CPtr@VCCubeTexture@NDb@@@@@Z
?ImportField@NDatabase@@YAXPBDPAV?$CPtr@VCDBAckInfo@NDb@@@@@Z
?ImportField@NDatabase@@YAXPBDPAV?$CPtr@VCDBAckSequence@NDb@@@@@Z
?ImportField@NDatabase@@YAXPBDPAV?$CPtr@VCDBDialogPers@NDb@@@@@Z
?ImportField@NDatabase@@YAXPBDPAV?$CPtr@VCDBDiplomacy@NDb@@@@@Z
?ImportField@NDatabase@@YAXPBDPAV?$CPtr@VCDBPerk@NDb@@@@@Z
?ImportField@NDatabase@@YAXPBDPAV?$CPtr@VCDBScenario@NDb@@@@@Z
?ImportField@NDatabase@@YAXPBDPAV?$CPtr@VCDBScenarioClue@NDb@@@@@Z
?ImportField@NDatabase@@YAXPBDPAV?$CPtr@VCDBScenarioObjective@NDb@@@@@Z
?ImportField@NDatabase@@YAXPBDPAV?$CPtr@VCDBScenarioState@NDb@@@@@Z
?ImportField@NDatabase@@YAXPBDPAV?$CPtr@VCDBScenarioZone@NDb@@@@@Z
?ImportField@NDatabase@@YAXPBDPAV?$CPtr@VCDebrisMaterial@NDb@@@@@Z
?ImportField@NDatabase@@YAXPBDPAV?$CPtr@VCEffect@NDb@@@@@Z
?ImportField@NDatabase@@YAXPBDPAV?$CPtr@VCFloorModel@NDb@@@@@Z
?ImportField@NDatabase@@YAXPBDPAV?$CPtr@VCGeometry@NDb@@@@@Z
?ImportField@NDatabase@@YAXPBDPAV?$CPtr@VCHead@NDb@@@@@Z
?ImportField@NDatabase@@YAXPBDPAV?$CPtr@VCMusic@NDb@@@@@Z
?ImportField@NDatabase@@YAXPBDPAV?$CPtr@VCNationality@NDb@@@@@Z
?ImportField@NDatabase@@YAXPBDPAV?$CPtr@VCParticle@NDb@@@@@Z
?ImportField@NDatabase@@YAXPBDPAV?$CPtr@VCPlacableObject@NDb@@@@@Z
?ImportField@NDatabase@@YAXPBDPAV?$CPtr@VCRPGAmmo@NDb@@@@@Z
?ImportField@NDatabase@@YAXPBDPAV?$CPtr@VCRPGArmor@NDb@@@@@Z
?ImportField@NDatabase@@YAXPBDPAV?$CPtr@VCRPGBaseValue@NDb@@@@@Z
?ImportField@NDatabase@@YAXPBDPAV?$CPtr@VCRPGClass@NDb@@@@@Z
?ImportField@NDatabase@@YAXPBDPAV?$CPtr@VCRPGClip@NDb@@@@@Z
?ImportField@NDatabase@@YAXPBDPAV?$CPtr@VCRPGFirstAid@NDb@@@@@Z
?ImportField@NDatabase@@YAXPBDPAV?$CPtr@VCRPGGrenade@NDb@@@@@Z
?ImportField@NDatabase@@YAXPBDPAV?$CPtr@VCRPGItem@NDb@@@@@Z
?ImportField@NDatabase@@YAXPBDPAV?$CPtr@VCRPGKey@NDb@@@@@Z
?ImportField@NDatabase@@YAXPBDPAV?$CPtr@VCRPGMaterial@NDb@@@@@Z
?ImportField@NDatabase@@YAXPBDPAV?$CPtr@VCRPGMeleeWeapon@NDb@@@@@Z
?ImportField@NDatabase@@YAXPBDPAV?$CPtr@VCRPGMine@NDb@@@@@Z
?ImportField@NDatabase@@YAXPBDPAV?$CPtr@VCRPGMineDetector@NDb@@@@@Z
?ImportField@NDatabase@@YAXPBDPAV?$CPtr@VCRPGPers@NDb@@@@@Z
?ImportField@NDatabase@@YAXPBDPAV?$CPtr@VCRPGTool@NDb@@@@@Z
?ImportField@NDatabase@@YAXPBDPAV?$CPtr@VCRPGUniform@NDb@@@@@Z
?ImportField@NDatabase@@YAXPBDPAV?$CPtr@VCRPGWeapon@NDb@@@@@Z
?ImportField@NDatabase@@YAXPBDPAV?$CPtr@VCRPGWeaponType@NDb@@@@@Z
?ImportField@NDatabase@@YAXPBDPAV?$CPtr@VCRndContainerModel@NDb@@@@@Z
?ImportField@NDatabase@@YAXPBDPAV?$CPtr@VCScript@NDb@@@@@Z
?ImportField@NDatabase@@YAXPBDPAV?$CPtr@VCSequence@NDb@@@@@Z
?ImportField@NDatabase@@YAXPBDPAV?$CPtr@VCSide@NDb@@@@@Z
?ImportField@NDatabase@@YAXPBDPAV?$CPtr@VCSkeleton@NDb@@@@@Z
?ImportField@NDatabase@@YAXPBDPAV?$CPtr@VCSolidModel@NDb@@@@@Z
?ImportField@NDatabase@@YAXPBDPAV?$CPtr@VCSound@NDb@@@@@Z
?ImportField@NDatabase@@YAXPBDPAV?$CPtr@VCSoundEffect@NDb@@@@@Z
?ImportField@NDatabase@@YAXPBDPAV?$CPtr@VCSpot@NDb@@@@@Z
?ImportField@NDatabase@@YAXPBDPAV?$CPtr@VCString@NDb@@@@@Z
?ImportField@NDatabase@@YAXPBDPAV?$CPtr@VCTAmbientLight@NDb@@@@@Z
?ImportField@NDatabase@@YAXPBDPAV?$CPtr@VCTConstructionPart@NDb@@@@@Z
?ImportField@NDatabase@@YAXPBDPAV?$CPtr@VCTEffect@NDb@@@@@Z
?ImportField@NDatabase@@YAXPBDPAV?$CPtr@VCTMaterial@NDb@@@@@Z
?ImportField@NDatabase@@YAXPBDPAV?$CPtr@VCTRndModel@NDb@@@@@Z
?ImportField@NDatabase@@YAXPBDPAV?$CPtr@VCTRndObject@NDb@@@@@Z
?ImportField@NDatabase@@YAXPBDPAV?$CPtr@VCTSound@NDb@@@@@Z
?ImportField@NDatabase@@YAXPBDPAV?$CPtr@VCTemplVariant@NDb@@@@@Z
?ImportField@NDatabase@@YAXPBDPAV?$CPtr@VCTemplate@NDb@@@@@Z
?ImportField@NDatabase@@YAXPBDPAV?$CPtr@VCTexture@NDb@@@@@Z
?ImportField@NDatabase@@YAXPBDPAV?$CPtr@VCUIContainer@NDb@@@@@Z
?ImportField@NDatabase@@YAXPBDPAV?$CPtr@VCUITexture@NDb@@@@@Z
?ImportField@NDatabase@@YAXPBDPAV?$CPtr@VCUnitGroup@NDb@@@@@Z
?ImportField@NDatabase@@YAXPBDPAV?$CPtr@VCWallModel@NDb@@@@@Z
?ImportField@NDatabase@@YAXPBDPAV?$CPtr@VCWaypointName@NDb@@@@@Z
?ImportItem@NDb@@YAXPAV?$CRPGSomethingForPers@VCRPGFirstAid@NDb@@@1@@Z
?ImportItem@NDb@@YAXPAV?$CRPGSomethingForPers@VCRPGGrenade@NDb@@@1@@Z
?ImportItem@NDb@@YAXPAV?$CRPGSomethingForPers@VCRPGKey@NDb@@@1@@Z
?ImportItem@NDb@@YAXPAV?$CRPGSomethingForPers@VCRPGMeleeWeapon@NDb@@@1@@Z
?ImportItem@NDb@@YAXPAV?$CRPGSomethingForPers@VCRPGMine@NDb@@@1@@Z
?ImportItem@NDb@@YAXPAV?$CRPGSomethingForPers@VCRPGMineDetector@NDb@@@1@@Z
?ImportItem@NDb@@YAXPAV?$CRPGSomethingForPers@VCRPGTool@NDb@@@1@@Z
?ImportItem@NDb@@YAXPAV?$CRPGSomethingForPers@VCRPGWeapon@NDb@@@1@@Z
?ImportItem@NDb@@YAXPAVCRPGClip4Pers@1@@Z
?ImportRectCoords@NDb@@YAXPAVCVec2@@MMM@Z
?ImportRelation@NDatabase@@YAXPAVCDBRecord@@PAV?$vector@V?$CPtr@VCScript@NDb@@@@V?$allocator@V?$CPtr@VCScript@NDb@@@@@_STL@@@_STL@@@Z
?IsReading@CStructureSaver@@QAE_NXZ
?IsRefInvalid@CObjectBase@@QBEHXZ
?IsSuitableVariant@@YA_NABV?$vector@HV?$allocator@H@_STL@@@_STL@@ABV?$vector@USVariantFlags@NDb@@V?$allocator@USVariantFlags@NDb@@@_STL@@@2@@Z
?MSVCMustDie_tolower@NStr@@YAHH@Z
?MakeCopy@?$CRPGSomethingForPers@VCRPGFirstAid@NDb@@@NDb@@MBEPAVCObjectBase@@XZ
?MakeCopy@?$CRPGSomethingForPers@VCRPGGrenade@NDb@@@NDb@@MBEPAVCObjectBase@@XZ
?MakeCopy@?$CRPGSomethingForPers@VCRPGKey@NDb@@@NDb@@MBEPAVCObjectBase@@XZ
?MakeCopy@?$CRPGSomethingForPers@VCRPGMeleeWeapon@NDb@@@NDb@@MBEPAVCObjectBase@@XZ
?MakeCopy@?$CRPGSomethingForPers@VCRPGMine@NDb@@@NDb@@MBEPAVCObjectBase@@XZ
?MakeCopy@?$CRPGSomethingForPers@VCRPGMineDetector@NDb@@@NDb@@MBEPAVCObjectBase@@XZ
?MakeCopy@?$CRPGSomethingForPers@VCRPGTool@NDb@@@NDb@@MBEPAVCObjectBase@@XZ
?MakeCopy@?$CRPGSomethingForPers@VCRPGWeapon@NDb@@@NDb@@MBEPAVCObjectBase@@XZ
?MakeCopy@CAIGeometry@NDb@@MBEPAVCObjectBase@@XZ
?MakeCopy@CAISound@NDb@@MBEPAVCObjectBase@@XZ
?MakeCopy@CAmbientLight@NDb@@MBEPAVCObjectBase@@XZ
?MakeCopy@CAmbientLightReal@NDb@@MBEPAVCObjectBase@@XZ
?MakeCopy@CAnimLight@NDb@@MBEPAVCObjectBase@@XZ
?MakeCopy@CAnimWeaponType@NDb@@MBEPAVCObjectBase@@XZ
?MakeCopy@CAnimation@NDb@@MBEPAVCObjectBase@@XZ
?MakeCopy@CAttribute@NDb@@MBEPAVCObjectBase@@XZ
?MakeCopy@CBRDF@NDb@@MBEPAVCObjectBase@@XZ
?MakeCopy@CChapterMap@NDb@@MBEPAVCObjectBase@@XZ
?MakeCopy@CComplexHead@NDb@@MBEPAVCObjectBase@@XZ
?MakeCopy@CConstructionPart@NDb@@MBEPAVCObjectBase@@XZ
?MakeCopy@CContainer@NDb@@MBEPAVCObjectBase@@XZ
?MakeCopy@CContainerModel@NDb@@MBEPAVCObjectBase@@XZ
?MakeCopy@CCubeTexture@NDb@@MBEPAVCObjectBase@@XZ
?MakeCopy@CDBAck@NDb@@MBEPAVCObjectBase@@XZ
?MakeCopy@CDBAckInfo@NDb@@MBEPAVCObjectBase@@XZ
?MakeCopy@CDBAckSequence@NDb@@MBEPAVCObjectBase@@XZ
?MakeCopy@CDBAutoLoadScript@NDb@@MBEPAVCObjectBase@@XZ
?MakeCopy@CDBCamera@NDb@@MBEPAVCObjectBase@@XZ
?MakeCopy@CDBDialog@NDb@@MBEPAVCObjectBase@@XZ
?MakeCopy@CDBDialogPers@NDb@@MBEPAVCObjectBase@@XZ
?MakeCopy@CDBDialogSeq@NDb@@MBEPAVCObjectBase@@XZ
?MakeCopy@CDBDifficulty@NDb@@MBEPAVCObjectBase@@XZ
?MakeCopy@CDBDiplomacy@NDb@@MBEPAVCObjectBase@@XZ
?MakeCopy@CDBMinesConstants@NDb@@MBEPAVCObjectBase@@XZ
?MakeCopy@CDBPerk@NDb@@MBEPAVCObjectBase@@XZ
?MakeCopy@CDBPerkTreeNode@NDb@@MBEPAVCObjectBase@@XZ
?MakeCopy@CDBScenario@NDb@@MBEPAVCObjectBase@@XZ
?MakeCopy@CDBScenarioClue@NDb@@MBEPAVCObjectBase@@XZ
?MakeCopy@CDBScenarioObjective2Clue@NDb@@MBEPAVCObjectBase@@XZ
?MakeCopy@CDBScenarioObjective@NDb@@MBEPAVCObjectBase@@XZ
?MakeCopy@CDBScenarioState@NDb@@MBEPAVCObjectBase@@XZ
?MakeCopy@CDBScenarioZone@NDb@@MBEPAVCObjectBase@@XZ
?MakeCopy@CDebris@NDb@@MBEPAVCObjectBase@@XZ
?MakeCopy@CDebrisMaterial@NDb@@MBEPAVCObjectBase@@XZ
?MakeCopy@CDoor@NDb@@MBEPAVCObjectBase@@XZ
?MakeCopy@CEffect@NDb@@MBEPAVCObjectBase@@XZ
?MakeCopy@CExplosion@NDb@@MBEPAVCObjectBase@@XZ
?MakeCopy@CFinalElement@NDb@@MBEPAVCObjectBase@@XZ
?MakeCopy@CFloor@NDb@@MBEPAVCObjectBase@@XZ
?MakeCopy@CFloorModel@NDb@@MBEPAVCObjectBase@@XZ
?MakeCopy@CGeometry@NDb@@MBEPAVCObjectBase@@XZ
?MakeCopy@CGlobalMap@NDb@@MBEPAVCObjectBase@@XZ
?MakeCopy@CGrass@NDb@@MBEPAVCObjectBase@@XZ
?MakeCopy@CGun@NDb@@MBEPAVCObjectBase@@XZ
?MakeCopy@CHead@NDb@@MBEPAVCObjectBase@@XZ
?MakeCopy@CIntermediateFloor@NDb@@MBEPAVCObjectBase@@XZ
?MakeCopy@CIntermediateSolid@NDb@@MBEPAVCObjectBase@@XZ
?MakeCopy@CLightInstance@NDb@@MBEPAVCObjectBase@@XZ
?MakeCopy@CMaterial@NDb@@MBEPAVCObjectBase@@XZ
?MakeCopy@CModel@NDb@@MBEPAVCObjectBase@@XZ
?MakeCopy@CMusic@NDb@@MBEPAVCObjectBase@@XZ
?MakeCopy@CNationality@NDb@@MBEPAVCObjectBase@@XZ
?MakeCopy@CObject@NDb@@MBEPAVCObjectBase@@XZ
?MakeCopy@CObjectBase@@MBEPAV1@XZ
?MakeCopy@CPanzerklein@NDb@@MBEPAVCObjectBase@@XZ
?MakeCopy@CParticle@NDb@@MBEPAVCObjectBase@@XZ
?MakeCopy@CParticleInstance@NDb@@MBEPAVCObjectBase@@XZ
?MakeCopy@CPassageObject@NDb@@MBEPAVCObjectBase@@XZ
?MakeCopy@CPlacableObject@NDb@@MBEPAVCObjectBase@@XZ
?MakeCopy@CRPGAISoundConstants@NDb@@MBEPAVCObjectBase@@XZ
?MakeCopy@CRPGAmmo@NDb@@MBEPAVCObjectBase@@XZ
?MakeCopy@CRPGArmor@NDb@@MBEPAVCObjectBase@@XZ
?MakeCopy@CRPGBaseValue@NDb@@MBEPAVCObjectBase@@XZ
?MakeCopy@CRPGClass@NDb@@MBEPAVCObjectBase@@XZ
?MakeCopy@CRPGClip4Pers@NDb@@MBEPAVCObjectBase@@XZ
?MakeCopy@CRPGClip@NDb@@MBEPAVCObjectBase@@XZ
?MakeCopy@CRPGCritical@NDb@@MBEPAVCObjectBase@@XZ
?MakeCopy@CRPGDmgToArmor@NDb@@MBEPAVCObjectBase@@XZ
?MakeCopy@CRPGFirstAid@NDb@@MBEPAVCObjectBase@@XZ
?MakeCopy@CRPGGrenade@NDb@@MBEPAVCObjectBase@@XZ
?MakeCopy@CRPGInterruptsConstants@NDb@@MBEPAVCObjectBase@@XZ
?MakeCopy@CRPGItem2Uniform@NDb@@MBEPAVCObjectBase@@XZ
?MakeCopy@CRPGItem@NDb@@MBEPAVCObjectBase@@XZ
?MakeCopy@CRPGKey@NDb@@MBEPAVCObjectBase@@XZ
?MakeCopy@CRPGMaterial@NDb@@MBEPAVCObjectBase@@XZ
?MakeCopy@CRPGMeleeWeapon@NDb@@MBEPAVCObjectBase@@XZ
?MakeCopy@CRPGMine@NDb@@MBEPAVCObjectBase@@XZ
?MakeCopy@CRPGMineDetector@NDb@@MBEPAVCObjectBase@@XZ
?MakeCopy@CRPGPers@NDb@@MBEPAVCObjectBase@@XZ
?MakeCopy@CRPGStoreItem@NDb@@MBEPAVCObjectBase@@XZ
?MakeCopy@CRPGToHit@NDb@@MBEPAVCObjectBase@@XZ
?MakeCopy@CRPGTool@NDb@@MBEPAVCObjectBase@@XZ
?MakeCopy@CRPGUniform@NDb@@MBEPAVCObjectBase@@XZ
?MakeCopy@CRPGWeapon@NDb@@MBEPAVCObjectBase@@XZ
?MakeCopy@CRPGWeaponType@NDb@@MBEPAVCObjectBase@@XZ
?MakeCopy@CRectangle@NDb@@MBEPAVCObjectBase@@XZ
?MakeCopy@CRndConstructionPart@NDb@@MBEPAVCObjectBase@@XZ
?MakeCopy@CRndContainerModel@NDb@@MBEPAVCObjectBase@@XZ
?MakeCopy@CRndModel@NDb@@MBEPAVCObjectBase@@XZ
?MakeCopy@CRndObject@NDb@@MBEPAVCObjectBase@@XZ
?MakeCopy@CRndTerrainSpot@NDb@@MBEPAVCObjectBase@@XZ
?MakeCopy@CRoom@NDb@@MBEPAVCObjectBase@@XZ
?MakeCopy@CScript@NDb@@MBEPAVCObjectBase@@XZ
?MakeCopy@CSequence@NDb@@MBEPAVCObjectBase@@XZ
?MakeCopy@CSide@NDb@@MBEPAVCObjectBase@@XZ
?MakeCopy@CSkeleton@NDb@@MBEPAVCObjectBase@@XZ
?MakeCopy@CSolid@NDb@@MBEPAVCObjectBase@@XZ
?MakeCopy@CSolidModel@NDb@@MBEPAVCObjectBase@@XZ
?MakeCopy@CSound@NDb@@MBEPAVCObjectBase@@XZ
?MakeCopy@CSoundEffect@NDb@@MBEPAVCObjectBase@@XZ
?MakeCopy@CSoundInstance@NDb@@MBEPAVCObjectBase@@XZ
?MakeCopy@CSoundVariant@NDb@@MBEPAVCObjectBase@@XZ
?MakeCopy@CSpot@NDb@@MBEPAVCObjectBase@@XZ
?MakeCopy@CString@NDb@@MBEPAVCObjectBase@@XZ
?MakeCopy@CTAmbientLight@NDb@@MBEPAVCObjectBase@@XZ
?MakeCopy@CTConstructionPart@NDb@@MBEPAVCObjectBase@@XZ
?MakeCopy@CTEffect@NDb@@MBEPAVCObjectBase@@XZ
?MakeCopy@CTMaterial@NDb@@MBEPAVCObjectBase@@XZ
?MakeCopy@CTRndModel@NDb@@MBEPAVCObjectBase@@XZ
?MakeCopy@CTRndObject@NDb@@MBEPAVCObjectBase@@XZ
?MakeCopy@CTSound@NDb@@MBEPAVCObjectBase@@XZ
?MakeCopy@CTemplVariant@NDb@@MBEPAVCObjectBase@@XZ
?MakeCopy@CTemplate@NDb@@MBEPAVCObjectBase@@XZ
?MakeCopy@CTerrainSpot@NDb@@MBEPAVCObjectBase@@XZ
?MakeCopy@CTerrainTile@NDb@@MBEPAVCObjectBase@@XZ
?MakeCopy@CTexture@NDb@@MBEPAVCObjectBase@@XZ
?MakeCopy@CTranslatedString@NDb@@MBEPAVCObjectBase@@XZ
?MakeCopy@CTypeface@NDb@@MBEPAVCObjectBase@@XZ
?MakeCopy@CUIContainer@NDb@@MBEPAVCObjectBase@@XZ
?MakeCopy@CUIControl@NDb@@MBEPAVCObjectBase@@XZ
?MakeCopy@CUITexture@NDb@@MBEPAVCObjectBase@@XZ
?MakeCopy@CUnit@NDb@@MBEPAVCObjectBase@@XZ
?MakeCopy@CUnitGroup@NDb@@MBEPAVCObjectBase@@XZ
?MakeCopy@CWall@NDb@@MBEPAVCObjectBase@@XZ
?MakeCopy@CWallModel@NDb@@MBEPAVCObjectBase@@XZ
?MakeCopy@CWaypoint@NDb@@MBEPAVCObjectBase@@XZ
?MakeCopy@CWaypointName@NDb@@MBEPAVCObjectBase@@XZ
?Max@@YA?BMMM@Z
?Maximize@CVec3@@QAEXABV1@@Z
?Min@@YA?BMMM@Z
?MoveFirst@CDBIteratorBase@@QAEXXZ
?MoveNext@CDBIteratorBase@@QAE_NXZ
?NewCAIGeometry@CAIGeometry@NDb@@SAPAVCObjectBase@@XZ
?NewCAISound@CAISound@NDb@@SAPAVCObjectBase@@XZ
?NewCAmbientLight@CAmbientLight@NDb@@SAPAVCObjectBase@@XZ
?NewCAmbientLightReal@CAmbientLightReal@NDb@@SAPAVCObjectBase@@XZ
?NewCAnimLight@CAnimLight@NDb@@SAPAVCObjectBase@@XZ
?NewCAnimWeaponType@CAnimWeaponType@NDb@@SAPAVCObjectBase@@XZ
?NewCAnimation@CAnimation@NDb@@SAPAVCObjectBase@@XZ
?NewCAttribute@CAttribute@NDb@@SAPAVCObjectBase@@XZ
?NewCBRDF@CBRDF@NDb@@SAPAVCObjectBase@@XZ
?NewCChapterMap@CChapterMap@NDb@@SAPAVCObjectBase@@XZ
?NewCComplexHead@CComplexHead@NDb@@SAPAVCObjectBase@@XZ
?NewCConstructionPart@CConstructionPart@NDb@@SAPAVCObjectBase@@XZ
?NewCContainer@CContainer@NDb@@SAPAVCObjectBase@@XZ
?NewCContainerModel@CContainerModel@NDb@@SAPAVCObjectBase@@XZ
?NewCCubeTexture@CCubeTexture@NDb@@SAPAVCObjectBase@@XZ
?NewCDBAck@CDBAck@NDb@@SAPAVCObjectBase@@XZ
?NewCDBAckInfo@CDBAckInfo@NDb@@SAPAVCObjectBase@@XZ
?NewCDBAckSequence@CDBAckSequence@NDb@@SAPAVCObjectBase@@XZ
?NewCDBAutoLoadScript@CDBAutoLoadScript@NDb@@SAPAVCObjectBase@@XZ
?NewCDBCamera@CDBCamera@NDb@@SAPAVCObjectBase@@XZ
?NewCDBDialog@CDBDialog@NDb@@SAPAVCObjectBase@@XZ
?NewCDBDialogPers@CDBDialogPers@NDb@@SAPAVCObjectBase@@XZ
?NewCDBDialogSeq@CDBDialogSeq@NDb@@SAPAVCObjectBase@@XZ
?NewCDBDifficulty@CDBDifficulty@NDb@@SAPAVCObjectBase@@XZ
?NewCDBDiplomacy@CDBDiplomacy@NDb@@SAPAVCObjectBase@@XZ
?NewCDBMinesConstants@CDBMinesConstants@NDb@@SAPAVCObjectBase@@XZ
?NewCDBPerk@CDBPerk@NDb@@SAPAVCObjectBase@@XZ
?NewCDBPerkTreeNode@CDBPerkTreeNode@NDb@@SAPAVCObjectBase@@XZ
?NewCDBScenario@CDBScenario@NDb@@SAPAVCObjectBase@@XZ
?NewCDBScenarioClue@CDBScenarioClue@NDb@@SAPAVCObjectBase@@XZ
?NewCDBScenarioObjective2Clue@CDBScenarioObjective2Clue@NDb@@SAPAVCObjectBase@@XZ
?NewCDBScenarioObjective@CDBScenarioObjective@NDb@@SAPAVCObjectBase@@XZ
?NewCDBScenarioState@CDBScenarioState@NDb@@SAPAVCObjectBase@@XZ
?NewCDBScenarioZone@CDBScenarioZone@NDb@@SAPAVCObjectBase@@XZ
?NewCDebris@CDebris@NDb@@SAPAVCObjectBase@@XZ
?NewCDebrisMaterial@CDebrisMaterial@NDb@@SAPAVCObjectBase@@XZ
?NewCDoor@CDoor@NDb@@SAPAVCObjectBase@@XZ
?NewCEffect@CEffect@NDb@@SAPAVCObjectBase@@XZ
?NewCExplosion@CExplosion@NDb@@SAPAVCObjectBase@@XZ
?NewCFinalElement@CFinalElement@NDb@@SAPAVCObjectBase@@XZ
?NewCFloor@CFloor@NDb@@SAPAVCObjectBase@@XZ
?NewCFloorModel@CFloorModel@NDb@@SAPAVCObjectBase@@XZ
?NewCGeometry@CGeometry@NDb@@SAPAVCObjectBase@@XZ
?NewCGlobalMap@CGlobalMap@NDb@@SAPAVCObjectBase@@XZ
?NewCGrass@CGrass@NDb@@SAPAVCObjectBase@@XZ
?NewCGun@CGun@NDb@@SAPAVCObjectBase@@XZ
?NewCHead@CHead@NDb@@SAPAVCObjectBase@@XZ
?NewCIntermediateFloor@CIntermediateFloor@NDb@@SAPAVCObjectBase@@XZ
?NewCIntermediateSolid@CIntermediateSolid@NDb@@SAPAVCObjectBase@@XZ
?NewCLightInstance@CLightInstance@NDb@@SAPAVCObjectBase@@XZ
?NewCMaterial@CMaterial@NDb@@SAPAVCObjectBase@@XZ
?NewCModel@CModel@NDb@@SAPAVCObjectBase@@XZ
?NewCMusic@CMusic@NDb@@SAPAVCObjectBase@@XZ
?NewCNationality@CNationality@NDb@@SAPAVCObjectBase@@XZ
?NewCObject@CObject@NDb@@SAPAVCObjectBase@@XZ
?NewCPanzerklein@CPanzerklein@NDb@@SAPAVCObjectBase@@XZ
?NewCParticle@CParticle@NDb@@SAPAVCObjectBase@@XZ
?NewCParticleInstance@CParticleInstance@NDb@@SAPAVCObjectBase@@XZ
?NewCPassageObject@CPassageObject@NDb@@SAPAVCObjectBase@@XZ
?NewCPlacableObject@CPlacableObject@NDb@@SAPAVCObjectBase@@XZ
?NewCRPGAISoundConstants@CRPGAISoundConstants@NDb@@SAPAVCObjectBase@@XZ
?NewCRPGAmmo@CRPGAmmo@NDb@@SAPAVCObjectBase@@XZ
?NewCRPGArmor@CRPGArmor@NDb@@SAPAVCObjectBase@@XZ
?NewCRPGBaseValue@CRPGBaseValue@NDb@@SAPAVCObjectBase@@XZ
?NewCRPGClass@CRPGClass@NDb@@SAPAVCObjectBase@@XZ
?NewCRPGClip4Pers@CRPGClip4Pers@NDb@@SAPAVCObjectBase@@XZ
?NewCRPGClip@CRPGClip@NDb@@SAPAVCObjectBase@@XZ
?NewCRPGCritical@CRPGCritical@NDb@@SAPAVCObjectBase@@XZ
?NewCRPGDmgToArmor@CRPGDmgToArmor@NDb@@SAPAVCObjectBase@@XZ
?NewCRPGFirstAid@CRPGFirstAid@NDb@@SAPAVCObjectBase@@XZ
?NewCRPGGrenade@CRPGGrenade@NDb@@SAPAVCObjectBase@@XZ
?NewCRPGInterruptsConstants@CRPGInterruptsConstants@NDb@@SAPAVCObjectBase@@XZ
?NewCRPGItem2Uniform@CRPGItem2Uniform@NDb@@SAPAVCObjectBase@@XZ
?NewCRPGItem@CRPGItem@NDb@@SAPAVCObjectBase@@XZ
?NewCRPGKey@CRPGKey@NDb@@SAPAVCObjectBase@@XZ
?NewCRPGMaterial@CRPGMaterial@NDb@@SAPAVCObjectBase@@XZ
?NewCRPGMeleeWeapon@CRPGMeleeWeapon@NDb@@SAPAVCObjectBase@@XZ
?NewCRPGMine@CRPGMine@NDb@@SAPAVCObjectBase@@XZ
?NewCRPGMineDetector@CRPGMineDetector@NDb@@SAPAVCObjectBase@@XZ
?NewCRPGPers@CRPGPers@NDb@@SAPAVCObjectBase@@XZ
?NewCRPGSomethingForPers@?$CRPGSomethingForPers@VCRPGFirstAid@NDb@@@NDb@@SAPAVCObjectBase@@XZ
?NewCRPGSomethingForPers@?$CRPGSomethingForPers@VCRPGGrenade@NDb@@@NDb@@SAPAVCObjectBase@@XZ
?NewCRPGSomethingForPers@?$CRPGSomethingForPers@VCRPGKey@NDb@@@NDb@@SAPAVCObjectBase@@XZ
?NewCRPGSomethingForPers@?$CRPGSomethingForPers@VCRPGMeleeWeapon@NDb@@@NDb@@SAPAVCObjectBase@@XZ
?NewCRPGSomethingForPers@?$CRPGSomethingForPers@VCRPGMine@NDb@@@NDb@@SAPAVCObjectBase@@XZ
?NewCRPGSomethingForPers@?$CRPGSomethingForPers@VCRPGMineDetector@NDb@@@NDb@@SAPAVCObjectBase@@XZ
?NewCRPGSomethingForPers@?$CRPGSomethingForPers@VCRPGTool@NDb@@@NDb@@SAPAVCObjectBase@@XZ
?NewCRPGSomethingForPers@?$CRPGSomethingForPers@VCRPGWeapon@NDb@@@NDb@@SAPAVCObjectBase@@XZ
?NewCRPGStoreItem@CRPGStoreItem@NDb@@SAPAVCObjectBase@@XZ
?NewCRPGToHit@CRPGToHit@NDb@@SAPAVCObjectBase@@XZ
?NewCRPGTool@CRPGTool@NDb@@SAPAVCObjectBase@@XZ
?NewCRPGUniform@CRPGUniform@NDb@@SAPAVCObjectBase@@XZ
?NewCRPGWeapon@CRPGWeapon@NDb@@SAPAVCObjectBase@@XZ
?NewCRPGWeaponType@CRPGWeaponType@NDb@@SAPAVCObjectBase@@XZ
?NewCRectangle@CRectangle@NDb@@SAPAVCObjectBase@@XZ
?NewCRndConstructionPart@CRndConstructionPart@NDb@@SAPAVCObjectBase@@XZ
?NewCRndContainerModel@CRndContainerModel@NDb@@SAPAVCObjectBase@@XZ
?NewCRndModel@CRndModel@NDb@@SAPAVCObjectBase@@XZ
?NewCRndObject@CRndObject@NDb@@SAPAVCObjectBase@@XZ
?NewCRndTerrainSpot@CRndTerrainSpot@NDb@@SAPAVCObjectBase@@XZ
?NewCRoom@CRoom@NDb@@SAPAVCObjectBase@@XZ
?NewCScript@CScript@NDb@@SAPAVCObjectBase@@XZ
?NewCSequence@CSequence@NDb@@SAPAVCObjectBase@@XZ
?NewCSide@CSide@NDb@@SAPAVCObjectBase@@XZ
?NewCSkeleton@CSkeleton@NDb@@SAPAVCObjectBase@@XZ
?NewCSolid@CSolid@NDb@@SAPAVCObjectBase@@XZ
?NewCSolidModel@CSolidModel@NDb@@SAPAVCObjectBase@@XZ
?NewCSound@CSound@NDb@@SAPAVCObjectBase@@XZ
?NewCSoundEffect@CSoundEffect@NDb@@SAPAVCObjectBase@@XZ
?NewCSoundInstance@CSoundInstance@NDb@@SAPAVCObjectBase@@XZ
?NewCSoundVariant@CSoundVariant@NDb@@SAPAVCObjectBase@@XZ
?NewCSpot@CSpot@NDb@@SAPAVCObjectBase@@XZ
?NewCString@CString@NDb@@SAPAVCObjectBase@@XZ
?NewCTAmbientLight@CTAmbientLight@NDb@@SAPAVCObjectBase@@XZ
?NewCTConstructionPart@CTConstructionPart@NDb@@SAPAVCObjectBase@@XZ
?NewCTEffect@CTEffect@NDb@@SAPAVCObjectBase@@XZ
?NewCTMaterial@CTMaterial@NDb@@SAPAVCObjectBase@@XZ
?NewCTRndModel@CTRndModel@NDb@@SAPAVCObjectBase@@XZ
?NewCTRndObject@CTRndObject@NDb@@SAPAVCObjectBase@@XZ
?NewCTSound@CTSound@NDb@@SAPAVCObjectBase@@XZ
?NewCTemplVariant@CTemplVariant@NDb@@SAPAVCObjectBase@@XZ
?NewCTemplate@CTemplate@NDb@@SAPAVCObjectBase@@XZ
?NewCTerrainSpot@CTerrainSpot@NDb@@SAPAVCObjectBase@@XZ
?NewCTerrainTile@CTerrainTile@NDb@@SAPAVCObjectBase@@XZ
?NewCTexture@CTexture@NDb@@SAPAVCObjectBase@@XZ
?NewCTranslatedString@CTranslatedString@NDb@@SAPAVCObjectBase@@XZ
?NewCTypeface@CTypeface@NDb@@SAPAVCObjectBase@@XZ
?NewCUIContainer@CUIContainer@NDb@@SAPAVCObjectBase@@XZ
?NewCUIControl@CUIControl@NDb@@SAPAVCObjectBase@@XZ
?NewCUITexture@CUITexture@NDb@@SAPAVCObjectBase@@XZ
?NewCUnit@CUnit@NDb@@SAPAVCObjectBase@@XZ
?NewCUnitGroup@CUnitGroup@NDb@@SAPAVCObjectBase@@XZ
?NewCWall@CWall@NDb@@SAPAVCObjectBase@@XZ
?NewCWallModel@CWallModel@NDb@@SAPAVCObjectBase@@XZ
?NewCWaypoint@CWaypoint@NDb@@SAPAVCObjectBase@@XZ
?NewCWaypointName@CWaypointName@NDb@@SAPAVCObjectBase@@XZ
?PushItem@@YA_NPAV?$vector@V?$CPtr@VCExplosion@NDb@@@@V?$allocator@V?$CPtr@VCExplosion@NDb@@@@@_STL@@@_STL@@PAVCExplosion@NDb@@@Z
?PushItem@@YA_NPAV?$vector@V?$CPtr@VCFinalElement@NDb@@@@V?$allocator@V?$CPtr@VCFinalElement@NDb@@@@@_STL@@@_STL@@PAVCFinalElement@NDb@@@Z
?PushItem@@YA_NPAV?$vector@V?$CPtr@VCRectangle@NDb@@@@V?$allocator@V?$CPtr@VCRectangle@NDb@@@@@_STL@@@_STL@@PAVCRectangle@NDb@@@Z
?PushItem@@YA_NPAV?$vector@V?$CPtr@VCRndTerrainSpot@NDb@@@@V?$allocator@V?$CPtr@VCRndTerrainSpot@NDb@@@@@_STL@@@_STL@@PAVCRndTerrainSpot@NDb@@@Z
?PushItem@@YA_NPAV?$vector@V?$CPtr@VCTemplVariant@NDb@@@@V?$allocator@V?$CPtr@VCTemplVariant@NDb@@@@@_STL@@@_STL@@PAVCTemplVariant@NDb@@@Z
?PushItem@@YA_NPAV?$vector@V?$CPtr@VCUnit@NDb@@@@V?$allocator@V?$CPtr@VCUnit@NDb@@@@@_STL@@@_STL@@PAVCUnit@NDb@@@Z
?PushItem@@YA_NPAV?$vector@V?$CPtr@VCWaypoint@NDb@@@@V?$allocator@V?$CPtr@VCWaypoint@NDb@@@@@_STL@@@_STL@@PAVCWaypoint@NDb@@@Z
?RegisterTypeBase@?$CClassFactory@VCObjectBase@@@@AAEXHP6APAVCObjectBase@@XZPBVtype_info@@@Z
?Release@SRef@CObjectBase@@QAEXPAV2@@Z
?SetPrimaryPart@CConstructionPart@NDb@@SAXPAHHH_N@Z
?String2PieceLinks@NDb@@YAXPAV?$hash_map@HUSPieceLinks@NDb@@U?$hash@H@_STL@@U?$equal_to@H@4@V?$allocator@U?$pair@$$CBHUSPieceLinks@NDb@@@_STL@@@4@@_STL@@ABV?$basic_string@DU?$char_traits@D@std@@V?$allocator@D@_STL@@@3@@Z
?ToLower@NStr@@YAXAAV?$basic_string@DU?$char_traits@D@std@@V?$allocator@D@_STL@@@_STL@@@Z
?ToRadian@@YAMM@Z
?TrimBoth@NStr@@YAXAAV?$basic_string@DU?$char_traits@D@std@@V?$allocator@D@_STL@@@_STL@@@Z
?TrimBoth@NStr@@YAXAAV?$basic_string@DU?$char_traits@D@std@@V?$allocator@D@_STL@@@_STL@@PBD@Z
?TrimLeft@NStr@@YAXAAV?$basic_string@DU?$char_traits@D@std@@V?$allocator@D@_STL@@@_STL@@PBD@Z
?UnpackFloorTiles@NDb@@YAXABV?$basic_string@DU?$char_traits@D@std@@V?$allocator@D@_STL@@@_STL@@PAV?$vector@VCVec2@@V?$allocator@VCVec2@@@_STL@@@3@@Z
?UnpackVariantFlags@NDb@@YAXABV?$basic_string@DU?$char_traits@D@std@@V?$allocator@D@_STL@@@_STL@@PAV?$vector@USVariantFlags@NDb@@V?$allocator@USVariantFlags@NDb@@@_STL@@@3@@Z
?VFT2TypeID@?$CClassFactory@VCDBRecord@@@@AAEHPBVtype_info@@@Z
?WeaponTypeToAnimFlags@NDb@@YAHW4EWeaponType@1@_N1@Z
?Zero@@YAXAAUSRPGSkills@NDb@@@Z
?_M_allocate_block@?$_String_base@DV?$allocator@D@_STL@@@_STL@@QAEXI@Z
?_M_allocate_block@?$_String_base@GV?$allocator@G@_STL@@@_STL@@QAEXI@Z
?_M_deallocate_block@?$_String_base@DV?$allocator@D@_STL@@@_STL@@QAEXXZ
?_M_deallocate_block@?$_String_base@GV?$allocator@G@_STL@@@_STL@@QAEXXZ
?_M_throw_length_error@?$_String_base@DV?$allocator@D@_STL@@@_STL@@QBEXXZ
?_M_throw_length_error@?$_String_base@GV?$allocator@G@_STL@@@_STL@@QBEXXZ
?_M_throw_out_of_range@?$_String_base@DV?$allocator@D@_STL@@@_STL@@QBEXXZ
?_Ret@?$_IsPOD@D@_STL@@SA?AU__true_type@2@XZ
?_Ret@?$_IsPOD@G@_STL@@SA?AU__true_type@2@XZ
?_Ret@?$_IsPOD@M@_STL@@SA?AU__true_type@2@XZ
?_Ret@?$_IsPOD@PAX@_STL@@SA?AU__true_type@2@XZ
?allocate@__new_alloc@_STL@@SAPAXI@Z
?cos@@YAMM@Z
?deallocate@__new_alloc@_STL@@SAXPAXI@Z
?fabs2@@YAMABVCVec3@@@Z
?fabs@@YAMABVCVec3@@@Z
?max_size@?$_String_base@DV?$allocator@D@_STL@@@_STL@@QBEIXZ
?max_size@?$_String_base@GV?$allocator@G@_STL@@@_STL@@QBEIXZ
?pszScenarioClueTypes@NDb@@3PAPBDA DATA
?pszScenarioObjectiveTypes@NDb@@3PAPBDA DATA
?pszSubTypes@NDb@@3PAPBDA DATA
?pszUniformPlaces@NDb@@3PAPBDA DATA
?sin@@YAMM@Z
?what@__Named_exception@_STL@@UBEPBDXZ
