EXPORTS
??0?$CClassFactory@VCDBRecord@@@@QAE@XZ
??0?$_String_base@DV?$allocator@D@_STL@@@_STL@@QAE@ABV?$allocator@D@1@@Z
??0?$_String_base@DV?$allocator@D@_STL@@@_STL@@QAE@ABV?$allocator@D@1@I@Z
??0?$_com_ptr_t@V?$_com_IIID@UError@@$1?_GUID_00000500_0000_0010_8000_00aa006d2ea4@@3U__s_GUID@@B@@@@QAE@H@Z
??0?$_com_ptr_t@V?$_com_IIID@UError@@$1?_GUID_00000500_0000_0010_8000_00aa006d2ea4@@3U__s_GUID@@B@@@@QAE@PAUError@@_N@Z
??0?$_com_ptr_t@V?$_com_IIID@UErrors@@$1?_GUID_00000501_0000_0010_8000_00aa006d2ea4@@3U__s_GUID@@B@@@@QAE@PAUErrors@@_N@Z
??0?$_com_ptr_t@V?$_com_IIID@UField@@$1?_GUID_00000569_0000_0010_8000_00aa006d2ea4@@3U__s_GUID@@B@@@@QAE@PAUField@@_N@Z
??0?$_com_ptr_t@V?$_com_IIID@UField@@$1?_GUID_00000569_0000_0010_8000_00aa006d2ea4@@3U__s_GUID@@B@@@@QAE@XZ
??0?$_com_ptr_t@V?$_com_IIID@UFields@@$1?_GUID_00000564_0000_0010_8000_00aa006d2ea4@@3U__s_GUID@@B@@@@QAE@H@Z
??0?$_com_ptr_t@V?$_com_IIID@UFields@@$1?_GUID_00000564_0000_0010_8000_00aa006d2ea4@@3U__s_GUID@@B@@@@QAE@PAUFields@@_N@Z
??0?$_com_ptr_t@V?$_com_IIID@U_Connection@@$1?_GUID_00000550_0000_0010_8000_00aa006d2ea4@@3U__s_GUID@@B@@@@QAE@ABV_variant_t@@@Z
??0?$_com_ptr_t@V?$_com_IIID@U_Connection@@$1?_GUID_00000550_0000_0010_8000_00aa006d2ea4@@3U__s_GUID@@B@@@@QAE@XZ
??0?$_com_ptr_t@V?$_com_IIID@U_Recordset@@$1?_GUID_00000556_0000_0010_8000_00aa006d2ea4@@3U__s_GUID@@B@@@@QAE@H@Z
??0?$pair@$$CBHP6APAVCDBRecord@@XZ@_STL@@QAE@ABHABQ6APAVCDBRecord@@XZ@Z
??0?$pair@$$CBHP6APAVCDBRecord@@XZ@_STL@@QAE@ABU01@@Z
??0?$pair@$$CBHV?$CObj@VCDBRecord@@@@@_STL@@QAE@ABHABV?$CObj@VCDBRecord@@@@@Z
??0?$pair@$$CBHV?$CObj@VCDBRecord@@@@@_STL@@QAE@ABU01@@Z
??0?$pair@$$CBHVCDBTableBase@@@_STL@@QAE@ABHABVCDBTableBase@@@Z
??0?$pair@$$CBHVCDBTableBase@@@_STL@@QAE@ABU01@@Z
??0?$pair@QBVtype_info@@H@_STL@@QAE@ABQBVtype_info@@ABH@Z
??0?$pair@QBVtype_info@@H@_STL@@QAE@ABU01@@Z
??0CDBTableBase@@QAE@ABV0@@Z
??0CDBTableBase@@QAE@XZ
??0COLETable@@QAE@XZ
??0CStructureSaver@@QAE@AAVCDataStream@@W4EMode@0@@Z
??0Data_t@_bstr_t@@QAE@ABV1@0@Z
??0Data_t@_bstr_t@@QAE@PAG_N@Z
??0Data_t@_bstr_t@@QAE@PBD@Z
??0Data_t@_bstr_t@@QAE@PBG@Z
??0SInitBasicDB@@QAE@XZ
??0SRelation@NDatabase@@QAE@XZ
??0STableDescr@NDatabase@@QAE@XZ
??0_bstr_t@@QAE@ABV0@@Z
??0_bstr_t@@QAE@ABV_variant_t@@@Z
??0_bstr_t@@QAE@PAG_N@Z
??0_bstr_t@@QAE@PBD@Z
??0_variant_t@@QAE@AAUtagVARIANT@@_N@Z
??0_variant_t@@QAE@ABV_bstr_t@@@Z
??0_variant_t@@QAE@JG@Z
??0_variant_t@@QAE@PAUIDispatch@@_N@Z
??0_variant_t@@QAE@XZ
??1?$CClassFactory@VCDBRecord@@@@QAE@XZ
??1?$_String_base@DV?$allocator@D@_STL@@@_STL@@QAE@XZ
??1?$_com_ptr_t@V?$_com_IIID@UError@@$1?_GUID_00000500_0000_0010_8000_00aa006d2ea4@@3U__s_GUID@@B@@@@QAE@XZ
??1?$_com_ptr_t@V?$_com_IIID@UErrors@@$1?_GUID_00000501_0000_0010_8000_00aa006d2ea4@@3U__s_GUID@@B@@@@QAE@XZ
??1?$_com_ptr_t@V?$_com_IIID@UField@@$1?_GUID_00000569_0000_0010_8000_00aa006d2ea4@@3U__s_GUID@@B@@@@QAE@XZ
??1?$_com_ptr_t@V?$_com_IIID@UFields@@$1?_GUID_00000564_0000_0010_8000_00aa006d2ea4@@3U__s_GUID@@B@@@@QAE@XZ
??1?$_com_ptr_t@V?$_com_IIID@U_Connection@@$1?_GUID_00000550_0000_0010_8000_00aa006d2ea4@@3U__s_GUID@@B@@@@QAE@XZ
??1?$_com_ptr_t@V?$_com_IIID@U_Recordset@@$1?_GUID_00000556_0000_0010_8000_00aa006d2ea4@@3U__s_GUID@@B@@@@QAE@XZ
??1?$pair@$$CBHV?$CObj@VCDBRecord@@@@@_STL@@QAE@XZ
??1?$pair@$$CBHVCDBTableBase@@@_STL@@QAE@XZ
??1?$pair@QAXV?$CPtr@VCObjectBase@@@@@_STL@@QAE@XZ
??1CDBTableBase@@QAE@XZ
??1COLETable@@QAE@XZ
??1CStructureSaver@@QAE@XZ
??1Data_t@_bstr_t@@AAE@XZ
??1SInitBasicDB@@QAE@XZ
??1SRelation@NDatabase@@QAE@XZ
??1STableDescr@NDatabase@@QAE@XZ
??1_bstr_t@@QAE@XZ
??1_variant_t@@QAE@XZ
??2@YAPAXIPAX@Z
??2Data_t@_bstr_t@@SAPAXI@Z
??3@YAXPAX0@Z
??4?$_com_ptr_t@V?$_com_IIID@UError@@$1?_GUID_00000500_0000_0010_8000_00aa006d2ea4@@3U__s_GUID@@B@@@@QAEAAV0@ABV0@@Z
??4?$_com_ptr_t@V?$_com_IIID@UError@@$1?_GUID_00000500_0000_0010_8000_00aa006d2ea4@@3U__s_GUID@@B@@@@QAEAAV0@PAUError@@@Z
??4?$_com_ptr_t@V?$_com_IIID@UFields@@$1?_GUID_00000564_0000_0010_8000_00aa006d2ea4@@3U__s_GUID@@B@@@@QAEAAV0@ABV0@@Z
??4?$_com_ptr_t@V?$_com_IIID@UFields@@$1?_GUID_00000564_0000_0010_8000_00aa006d2ea4@@3U__s_GUID@@B@@@@QAEAAV0@PAUFields@@@Z
??4?$_com_ptr_t@V?$_com_IIID@U_Connection@@$1?_GUID_00000550_0000_0010_8000_00aa006d2ea4@@3U__s_GUID@@B@@@@QAEAAV0@H@Z
??4?$_com_ptr_t@V?$_com_IIID@U_Connection@@$1?_GUID_00000550_0000_0010_8000_00aa006d2ea4@@3U__s_GUID@@B@@@@QAEAAV0@PAU_Connection@@@Z
??4_bstr_t@@QAEAAV0@PBG@Z
??4_variant_t@@QAEAAV0@ABV0@@Z
??4_variant_t@@QAEAAV0@J@Z
??4_variant_t@@QAEAAV0@M@Z
??4_variant_t@@QAEAAV0@PBD@Z
??4_variant_t@@QAEAAV0@_N@Z
??B?$_com_ptr_t@V?$_com_IIID@U_Connection@@$1?_GUID_00000550_0000_0010_8000_00aa006d2ea4@@3U__s_GUID@@B@@@@QBEPAU_Connection@@XZ
??B_bstr_t@@QBEPAGXZ
??B_bstr_t@@QBEPBDXZ
??B_bstr_t@@QBEPBGXZ
??B_variant_t@@QBEJXZ
??B_variant_t@@QBEMXZ
??B_variant_t@@QBE_NXZ
??C?$_com_ptr_t@V?$_com_IIID@UError@@$1?_GUID_00000500_0000_0010_8000_00aa006d2ea4@@3U__s_GUID@@B@@@@QBEPAUError@@XZ
??C?$_com_ptr_t@V?$_com_IIID@UErrors@@$1?_GUID_00000501_0000_0010_8000_00aa006d2ea4@@3U__s_GUID@@B@@@@QBEPAUErrors@@XZ
??C?$_com_ptr_t@V?$_com_IIID@UField@@$1?_GUID_00000569_0000_0010_8000_00aa006d2ea4@@3U__s_GUID@@B@@@@QBEPAUField@@XZ
??C?$_com_ptr_t@V?$_com_IIID@UFields@@$1?_GUID_00000564_0000_0010_8000_00aa006d2ea4@@3U__s_GUID@@B@@@@QBEPAUFields@@XZ
??C?$_com_ptr_t@V?$_com_IIID@U_Connection@@$1?_GUID_00000550_0000_0010_8000_00aa006d2ea4@@3U__s_GUID@@B@@@@QBEPAU_Connection@@XZ
??C?$_com_ptr_t@V?$_com_IIID@U_Recordset@@$1?_GUID_00000556_0000_0010_8000_00aa006d2ea4@@3U__s_GUID@@B@@@@QBEPAU_Recordset@@XZ
??ICDBTableBase@@QAEHAAVCStructureSaver@@@Z
??R?$_Select1st@U?$pair@$$CBHP6APAVCDBRecord@@XZ@_STL@@@_STL@@QBEABHABU?$pair@$$CBHP6APAVCDBRecord@@XZ@1@@Z
??R?$_Select1st@U?$pair@$$CBHV?$CObj@VCDBRecord@@@@@_STL@@@_STL@@QBEABHABU?$pair@$$CBHV?$CObj@VCDBRecord@@@@@1@@Z
??R?$_Select1st@U?$pair@$$CBHVCDBTableBase@@@_STL@@@_STL@@QBEABHABU?$pair@$$CBHVCDBTableBase@@@1@@Z
??R?$_Select1st@U?$pair@QBVtype_info@@H@_STL@@@_STL@@QBEABQBVtype_info@@ABU?$pair@QBVtype_info@@H@1@@Z
??R?$equal_to@H@_STL@@QBE_NABH0@Z
??R?$equal_to@PBVtype_info@@@_STL@@QBE_NABQBVtype_info@@0@Z
??R?$hash@H@_STL@@QBEIH@Z
??R?$less@I@_STL@@QBE_NABI0@Z
??RSDefaultPtrHash@@QBEHPBX@Z
??Y_bstr_t@@QAEAAV0@ABV0@@Z
??_G?$CPtr@VCDBRecord@@@@QAEPAXI@Z
??_G?$basic_string@DU?$char_traits@D@std@@V?$allocator@D@_STL@@@_STL@@QAEPAXI@Z
??_G?$pair@$$CBHV?$CObj@VCDBRecord@@@@@_STL@@QAEPAXI@Z
??_G?$pair@$$CBHVCDBTableBase@@@_STL@@QAEPAXI@Z
??_G?$pair@QAXV?$CPtr@VCObjectBase@@@@@_STL@@QAEPAXI@Z
??_GData_t@_bstr_t@@AAEPAXI@Z
??_GSRelation@NDatabase@@QAEPAXI@Z
??_GSTableDescr@NDatabase@@QAEPAXI@Z
?Add@CStructureSaver@@QAEXDPAHH@Z
?Add@CStructureSaver@@QAEXDPAV?$CObj@VCDBRecord@@@@H@Z
?Add@CStructureSaver@@QAEXDPAV?$hash_map@HV?$CObj@VCDBRecord@@@@U?$hash@H@_STL@@U?$equal_to@H@3@V?$allocator@U?$pair@$$CBHV?$CObj@VCDBRecord@@@@@_STL@@@3@@_STL@@H@Z
?Add@CStructureSaver@@QAEXDPAV?$hash_map@HVCDBTableBase@@U?$hash@H@_STL@@U?$equal_to@H@3@V?$allocator@U?$pair@$$CBHVCDBTableBase@@@_STL@@@3@@_STL@@H@Z
?Add@CStructureSaver@@QAEXDPAVCDBTableBase@@H@Z
?AddInternal@CStructureSaver@@AAAXDHPAHZZ
?AddInternal@CStructureSaver@@AAAXDHPAV?$CObj@VCDBRecord@@@@ZZ
?AddInternal@CStructureSaver@@AAAXDHPAV?$hash_map@HV?$CObj@VCDBRecord@@@@U?$hash@H@_STL@@U?$equal_to@H@3@V?$allocator@U?$pair@$$CBHV?$CObj@VCDBRecord@@@@@_STL@@@3@@_STL@@0@Z
?AddInternal@CStructureSaver@@AAAXDHPAV?$hash_map@HVCDBTableBase@@U?$hash@H@_STL@@U?$equal_to@H@3@V?$allocator@U?$pair@$$CBHVCDBTableBase@@@_STL@@@3@@_STL@@0@Z
?AddInternal@CStructureSaver@@AAAXDHPAVCDBTableBase@@ZZ
?AddObj@CObjectBase@@AAEXH@Z
?AddRef@CObjectBase@@AAEXXZ
?AddRef@Data_t@_bstr_t@@QAEKXZ
?AddRef@SRef@CObjectBase@@QAEXPAV2@@Z
?AddRef@SRefO@CObjectBase@@QAEXPAV2@@Z
?AddRelation@NDatabase@@YAXPBD@Z
?AddTable@NDatabase@@YAXHPBDP6APAVCDBRecord@@XZ@Z
?Attach@?$_com_ptr_t@V?$_com_IIID@U_Connection@@$1?_GUID_00000550_0000_0010_8000_00aa006d2ea4@@3U__s_GUID@@B@@@@QAEXPAU_Connection@@@Z
?CallObjectSerialize@CStructureSaver@@AAAXDHPAHPAU?$SGenericNumberTemplate@$00@@@Z
?CallObjectSerialize@CStructureSaver@@AAAXDHPAV?$CObj@VCDBRecord@@@@ZZ
?CallObjectSerialize@CStructureSaver@@AAAXDHPAVCDBTableBase@@ZZ
?CastToObjectBase@@YAPAVCObjectBase@@PAV1@@Z
?CastToObjectBase@@YAPAVCObjectBase@@PAVCDBRecord@@@Z
?CastToObjectBaseImpl@@YAPAVCObjectBase@@PAV1@0@Z
?CastToObjectBaseImpl@@YAPAVCObjectBase@@PAVCDBRecord@@PAV1@@Z
?CastToUserObject@@YAPAVCDBRecord@@PAVCObjectBase@@PAV1@@Z
?CastToUserObjectImpl@@YAPAVCDBRecord@@PAVCObjectBase@@PAV1@0@Z
?ChangeType@_variant_t@@QAEXGPBV1@@Z
?CheckError@_com_util@@YAXJ@Z
?Clear@_variant_t@@QAEXXZ
?Close@COLETable@@QAEXXZ
?Close@Connection15@@QAEJXZ
?Close@Recordset15@@QAEJXZ
?CreateInstance@?$_com_ptr_t@V?$_com_IIID@U_Connection@@$1?_GUID_00000550_0000_0010_8000_00aa006d2ea4@@3U__s_GUID@@B@@@@QAEJABU_GUID@@PAUIUnknown@@K@Z
?CreateInstance@?$_com_ptr_t@V?$_com_IIID@U_Recordset@@$1?_GUID_00000556_0000_0010_8000_00aa006d2ea4@@3U__s_GUID@@B@@@@QAEJABU_GUID@@PAUIUnknown@@K@Z
?CreateObject@?$CClassFactory@VCDBRecord@@@@QAEPAVCDBRecord@@H@Z
?Description@_com_error@@QBE?AV_bstr_t@@XZ
?DoHashMap@CStructureSaver@@AAEXAAV?$hash_map@HV?$CObj@VCDBRecord@@@@U?$hash@H@_STL@@U?$equal_to@H@3@V?$allocator@U?$pair@$$CBHV?$CObj@VCDBRecord@@@@@_STL@@@3@@_STL@@@Z
?DoHashMap@CStructureSaver@@AAEXAAV?$hash_map@HVCDBTableBase@@U?$hash@H@_STL@@U?$equal_to@H@3@V?$allocator@U?$pair@$$CBHVCDBTableBase@@@_STL@@@3@@_STL@@@Z
?DoPtr@CStructureSaver@@QAEXPAV?$CPtrBase@VCDBRecord@@USRefO@CObjectBase@@@@@Z
?GetActiveConnection@Recordset15@@QAE?AV_variant_t@@XZ
?GetBool@COLETable@@QAE_NH@Z
?GetBool@COLETable@@QAE_NPBD@Z
?GetCount@_Collection@@QAEJXZ
?GetDBConnectionStr@NDatabase@@YA?AV?$basic_string@DU?$char_traits@D@std@@V?$allocator@D@_STL@@@_STL@@ABV23@@Z
?GetDBRecord@CDBTableBase@@QAEPAVCDBRecord@@H@Z
?GetDescription@Error@@QAE?AV_bstr_t@@XZ
?GetErrors@Connection15@@QAE?AV?$_com_ptr_t@V?$_com_IIID@UErrors@@$1?_GUID_00000501_0000_0010_8000_00aa006d2ea4@@3U__s_GUID@@B@@@@XZ
?GetFieldIndex@COLETable@@AAEHPBD@Z
?GetFieldName@COLETable@@QAEABV?$basic_string@DU?$char_traits@D@std@@V?$allocator@D@_STL@@@_STL@@H@Z
?GetFields@Recordset15@@QAE?AV?$_com_ptr_t@V?$_com_IIID@UFields@@$1?_GUID_00000564_0000_0010_8000_00aa006d2ea4@@3U__s_GUID@@B@@@@XZ
?GetFloat@COLETable@@QAEMH@Z
?GetFloat@COLETable@@QAEMPBD@Z
?GetIID@?$_com_IIID@U_Connection@@$1?_GUID_00000550_0000_0010_8000_00aa006d2ea4@@3U__s_GUID@@B@@SAABU_GUID@@XZ
?GetIID@?$_com_IIID@U_Recordset@@$1?_GUID_00000556_0000_0010_8000_00aa006d2ea4@@3U__s_GUID@@B@@SAABU_GUID@@XZ
?GetIID@?$_com_ptr_t@V?$_com_IIID@U_Connection@@$1?_GUID_00000550_0000_0010_8000_00aa006d2ea4@@3U__s_GUID@@B@@@@SAABU_GUID@@XZ
?GetIID@?$_com_ptr_t@V?$_com_IIID@U_Recordset@@$1?_GUID_00000556_0000_0010_8000_00aa006d2ea4@@3U__s_GUID@@B@@@@SAABU_GUID@@XZ
?GetInt@COLETable@@QAEHH@Z
?GetInt@COLETable@@QAEHPBD@Z
?GetItem@Errors@@QAE?AV?$_com_ptr_t@V?$_com_IIID@UError@@$1?_GUID_00000500_0000_0010_8000_00aa006d2ea4@@3U__s_GUID@@B@@@@ABV_variant_t@@@Z
?GetItem@Fields15@@QAE?AV?$_com_ptr_t@V?$_com_IIID@UField@@$1?_GUID_00000569_0000_0010_8000_00aa006d2ea4@@3U__s_GUID@@B@@@@ABV_variant_t@@@Z
?GetName@Field20@@QAE?AV_bstr_t@@XZ
?GetNumber@Error@@QAEJXZ
?GetObjectType@?$CClassFactory@VCDBRecord@@@@CAPBVtype_info@@PAVCDBRecord@@@Z
?GetObjectTypeID@?$CClassFactory@VCDBRecord@@@@QAEHPAVCDBRecord@@@Z
?GetRecordCount@Recordset15@@QAEJXZ
?GetRecordID@CDBRecord@@QBEHXZ
?GetRecordTypes@NDatabase@@YAAAV?$CClassFactory@VCDBRecord@@@@XZ
?GetRelations@NDatabase@@YAAAV?$list@USRelation@NDatabase@@V?$allocator@USRelation@NDatabase@@@_STL@@@_STL@@XZ
?GetRows@Recordset15@@QAE?AV_variant_t@@JABV2@0@Z
?GetString@COLETable@@QAE?AV_bstr_t@@H@Z
?GetString@COLETable@@QAE?AV_bstr_t@@PBD@Z
?GetString@Data_t@_bstr_t@@QBEPBDXZ
?GetTable@NDatabase@@YAPAVCDBTableBase@@H@Z
?GetTableByRecord@NDatabase@@YAPAVCDBTableBase@@PAVCDBRecord@@@Z
?GetTableDescrs@NDatabase@@YAAAV?$list@USTableDescr@NDatabase@@V?$allocator@USTableDescr@NDatabase@@@_STL@@@_STL@@XZ
?GetTables@NDatabase@@YAAAV?$hash_map@HVCDBTableBase@@U?$hash@H@_STL@@U?$equal_to@H@3@V?$allocator@U?$pair@$$CBHVCDBTableBase@@@_STL@@@3@@_STL@@XZ
?GetWString@Data_t@_bstr_t@@QAEAAPAGXZ
?Import@CDBTableBase@@AAEXXZ
?Import@NDatabase@@YAXXZ
?ImportField@NDatabase@@YAXPBDPAH@Z
?ImportField@NDatabase@@YAXPBDPAM@Z
?ImportField@NDatabase@@YAXPBDPAPAVCDBRecord@@PAVCDBTableBase@@@Z
?ImportField@NDatabase@@YAXPBDPAV?$basic_string@DU?$char_traits@D@std@@V?$allocator@D@_STL@@@_STL@@@Z
?ImportField@NDatabase@@YAXPBDPAV?$basic_string@GU?$char_traits@G@std@@V?$allocator@G@_STL@@@_STL@@@Z
?ImportField@NDatabase@@YAXPBDPA_N@Z
?ImportRelation@NDatabase@@YAXPAVCDBRecord@@PAVCDBTableBase@@PAV?$vector@V?$CPtr@VCDBRecord@@@@V?$allocator@V?$CPtr@VCDBRecord@@@@@_STL@@@_STL@@@Z
?IsEof@COLETable@@QAE_NXZ
?IsReading@CStructureSaver@@QAE_NXZ
?IsRefInvalid@CObjectBase@@QBEHXZ
?Length@Data_t@_bstr_t@@QBEIXZ
?MoveFirst@COLETable@@QAEXXZ
?MoveNext@COLETable@@QAEXXZ
?Open@COLETable@@QAE_NPBDH@Z
?Open@Connection15@@QAEJV_bstr_t@@00J@Z
?Open@Recordset15@@QAEJABV_variant_t@@0W4CursorTypeEnum@@W4LockTypeEnum@@J@Z
?PreCreate@CDBTableBase@@AAEXH@Z
?PutCacheSize@Recordset15@@QAEXJ@Z
?PutCursorLocation@Connection15@@QAEXW4CursorLocationEnum@@@Z
?PutCursorLocation@Recordset15@@QAEXW4CursorLocationEnum@@@Z
?PutCursorType@Recordset15@@QAEXW4CursorTypeEnum@@@Z
?QueryStdInterfaces@?$_com_ptr_t@V?$_com_IIID@U_Connection@@$1?_GUID_00000550_0000_0010_8000_00aa006d2ea4@@3U__s_GUID@@B@@@@AAEJABV_variant_t@@@Z
?ReadField@COLETable@@AAEXHG@Z
?Refresh@CDBTableBase@@AAEXH@Z
?Refresh@NDatabase@@YAXH@Z
?RegisterTypeBase@?$CClassFactory@VCDBRecord@@@@AAEXHP6APAVCDBRecord@@XZPBVtype_info@@@Z
?RegisterTypeSafe@?$CClassFactory@VCDBRecord@@@@QAEXHP6APAVCDBRecord@@XZ@Z
?Release@Data_t@_bstr_t@@QAEKXZ
?Release@SRef@CObjectBase@@QAEXPAV2@@Z
?Release@SRefO@CObjectBase@@QAEXPAV2@@Z
?Serialize@NDatabase@@YAXAAVCDataStream@@W4EMode@CStructureSaver@@@Z
?SetSource@NDatabase@@YAXPBD@Z
?Source@_com_error@@QBE?AV_bstr_t@@XZ
?TESTHR@@YAXJ@Z
?VFT2TypeID@?$CClassFactory@VCDBRecord@@@@AAEHPBVtype_info@@@Z
?Zero@@YAXAAY01UtagSAFEARRAYBOUND@@@Z
?_AddRef@?$_com_ptr_t@V?$_com_IIID@UError@@$1?_GUID_00000500_0000_0010_8000_00aa006d2ea4@@3U__s_GUID@@B@@@@AAEXXZ
?_AddRef@?$_com_ptr_t@V?$_com_IIID@UErrors@@$1?_GUID_00000501_0000_0010_8000_00aa006d2ea4@@3U__s_GUID@@B@@@@AAEXXZ
?_AddRef@?$_com_ptr_t@V?$_com_IIID@UField@@$1?_GUID_00000569_0000_0010_8000_00aa006d2ea4@@3U__s_GUID@@B@@@@AAEXXZ
?_AddRef@?$_com_ptr_t@V?$_com_IIID@UFields@@$1?_GUID_00000564_0000_0010_8000_00aa006d2ea4@@3U__s_GUID@@B@@@@AAEXXZ
?_AddRef@?$_com_ptr_t@V?$_com_IIID@U_Connection@@$1?_GUID_00000550_0000_0010_8000_00aa006d2ea4@@3U__s_GUID@@B@@@@AAEXXZ
?_AddRef@_bstr_t@@AAEXXZ
?_Free@Data_t@_bstr_t@@AAEXXZ
?_Free@_bstr_t@@AAEXXZ
?_M_allocate_block@?$_String_base@DV?$allocator@D@_STL@@@_STL@@QAEXI@Z
?_M_deallocate_block@?$_String_base@DV?$allocator@D@_STL@@@_STL@@QAEXXZ
?_M_deallocate_block@?$_String_base@GV?$allocator@G@_STL@@@_STL@@QAEXXZ
?_M_incr@_List_iterator_base@_STL@@QAEXXZ
?_M_throw_length_error@?$_String_base@DV?$allocator@D@_STL@@@_STL@@QBEXXZ
?_M_throw_length_error@?$_String_base@GV?$allocator@G@_STL@@@_STL@@QBEXXZ
?_M_throw_out_of_range@?$_String_base@DV?$allocator@D@_STL@@@_STL@@QBEXXZ
?_QueryInterface@?$_com_ptr_t@V?$_com_IIID@U_Connection@@$1?_GUID_00000550_0000_0010_8000_00aa006d2ea4@@3U__s_GUID@@B@@@@AAEJPAUIDispatch@@@Z
?_QueryInterface@?$_com_ptr_t@V?$_com_IIID@U_Connection@@$1?_GUID_00000550_0000_0010_8000_00aa006d2ea4@@3U__s_GUID@@B@@@@AAEJPAUIUnknown@@@Z
?_Release@?$_com_ptr_t@V?$_com_IIID@UError@@$1?_GUID_00000500_0000_0010_8000_00aa006d2ea4@@3U__s_GUID@@B@@@@AAEXXZ
?_Release@?$_com_ptr_t@V?$_com_IIID@UErrors@@$1?_GUID_00000501_0000_0010_8000_00aa006d2ea4@@3U__s_GUID@@B@@@@AAEXXZ
?_Release@?$_com_ptr_t@V?$_com_IIID@UField@@$1?_GUID_00000569_0000_0010_8000_00aa006d2ea4@@3U__s_GUID@@B@@@@AAEXXZ
?_Release@?$_com_ptr_t@V?$_com_IIID@UFields@@$1?_GUID_00000564_0000_0010_8000_00aa006d2ea4@@3U__s_GUID@@B@@@@AAEXXZ
?_Release@?$_com_ptr_t@V?$_com_IIID@U_Connection@@$1?_GUID_00000550_0000_0010_8000_00aa006d2ea4@@3U__s_GUID@@B@@@@AAEXXZ
?_Release@?$_com_ptr_t@V?$_com_IIID@U_Recordset@@$1?_GUID_00000556_0000_0010_8000_00aa006d2ea4@@3U__s_GUID@@B@@@@AAEXXZ
?_Ret@?$_IsPOD@D@_STL@@SA?AU__true_type@2@XZ
?_Ret@?$_IsPOD@G@_STL@@SA?AU__true_type@2@XZ
?_Ret@?$_IsPOD@PAX@_STL@@SA?AU__true_type@2@XZ
?allocate@__new_alloc@_STL@@SAPAXI@Z
?bIsDatabaseLoading@NDatabase@@3_NA DATA
?deallocate@__new_alloc@_STL@@SAXPAXI@Z
?length@_bstr_t@@QBEIXZ
?max_size@?$_String_base@DV?$allocator@D@_STL@@@_STL@@QBEIXZ
?max_size@?$_String_base@GV?$allocator@G@_STL@@@_STL@@QBEIXZ
?table@NDatabase@@3VCOLETable@@A DATA
?what@__Named_exception@_STL@@UBEPBDXZ
