EXPORTS
??0?$CClassFactory@VCObjectBase@@@@QAE@XZ
??0?$TFilesPackage@VCFileStream@@@@QAE@XZ
??0?$TFilesPackage@VCMemoryStream@@@@QAE@XZ
??0?$_String_base@DV?$allocator@D@_STL@@@_STL@@QAE@ABV?$allocator@D@1@@Z
??0?$_String_base@DV?$allocator@D@_STL@@@_STL@@QAE@ABV?$allocator@D@1@I@Z
??0?$pair@$$CBHP6IPAVCObjectBase@@XZ@_STL@@QAE@ABHABQ6IPAVCObjectBase@@XZ@Z
??0?$pair@$$CBHP6IPAVCObjectBase@@XZ@_STL@@QAE@ABU01@@Z
??0?$pair@$$CBHUSFileInfo@@@_STL@@QAE@ABHABUSFileInfo@@@Z
??0?$pair@$$CBHUSFileInfo@@@_STL@@QAE@ABU01@@Z
??0?$pair@$$CBHU_FILETIME@@@_STL@@QAE@ABHABU_FILETIME@@@Z
??0?$pair@$$CBHU_FILETIME@@@_STL@@QAE@ABU01@@Z
??0?$pair@$$CBH_N@_STL@@QAE@ABHAB_N@Z
??0?$pair@$$CBH_N@_STL@@QAE@ABU01@@Z
??0?$pair@QAXV?$CPtr@VCObjectBase@@@@@_STL@@QAE@ABQAXABV?$CPtr@VCObjectBase@@@@@Z
??0?$pair@QAXV?$CPtr@VCObjectBase@@@@@_STL@@QAE@ABU01@@Z
??0?$pair@QAX_N@_STL@@QAE@ABQAXAB_N@Z
??0?$pair@QAX_N@_STL@@QAE@ABU01@@Z
??0?$pair@QBVtype_info@@H@_STL@@QAE@ABQBVtype_info@@ABH@Z
??0?$pair@QBVtype_info@@H@_STL@@QAE@ABU01@@Z
??0?$reverse_bidirectional_iterator@U?$_List_iterator@UCChunkLevel@CStructureSaver@@U?$_Nonconst_traits@UCChunkLevel@CStructureSaver@@@_STL@@@_STL@@UCChunkLevel@CStructureSaver@@AAU34@PAU34@H@_STL@@QAE@U?$_List_iterator@UCChunkLevel@CStructureSaver@@U?$_Nonconst_traits@UCChunkLevel@CStructureSaver@@@_STL@@@1@@Z
??0?$reverse_bidirectional_iterator@U?$_List_iterator@UCChunkLevel@CStructureSaver@@U?$_Nonconst_traits@UCChunkLevel@CStructureSaver@@@_STL@@@_STL@@UCChunkLevel@CStructureSaver@@AAU34@PAU34@H@_STL@@QAE@XZ
??0CBufferedStream@@QAE@XZ
??0CCachedFilesPackage@@QAE@XZ
??0CChunkLevel@CStructureSaver@@QAE@XZ
??0CDataStream@@QAE@XZ
??0CFileStream@@QAE@XZ
??0CFilesPackage@@QAE@XZ
??0CMemoryStream@@QAE@ABV0@@Z
??0CMemoryStream@@QAE@XZ
??0CObjectBase@@QAE@XZ
??0CPackageStream@@QAE@PAVIFilesPackage@@H@Z
??0CStructureSaver@@QAE@AAVCDataStream@@W4EMode@0@@Z
??0IFilesPackage@@QAE@XZ
??0SFileIOError@@QAE@ABU0@@Z
??0SFileIOError@@QAE@ABV?$basic_string@DU?$char_traits@D@std@@V?$allocator@D@_STL@@@_STL@@@Z
??0SFileIOError@@QAE@PBD@Z
??1?$CClassFactory@VCObjectBase@@@@QAE@XZ
??1?$TFilesPackage@VCFileStream@@@@UAE@XZ
??1?$TFilesPackage@VCMemoryStream@@@@UAE@XZ
??1?$_String_base@DV?$allocator@D@_STL@@@_STL@@QAE@XZ
??1?$pair@QAXV?$CPtr@VCObjectBase@@@@@_STL@@QAE@XZ
??1CBufferedStream@@UAE@XZ
??1CCachedFilesPackage@@UAE@XZ
??1CDataStream@@UAE@XZ
??1CFileStream@@UAE@XZ
??1CFilesPackage@@UAE@XZ
??1CMemoryStream@@UAE@XZ
??1CObjectBase@@MAE@XZ
??1CPackageStream@@UAE@XZ
??1CStructureSaver@@QAE@XZ
??1IFilesPackage@@UAE@XZ
??1SBasicChunkInit@@QAE@XZ
??1SFileIOError@@QAE@XZ
??2@YAPAXIPAX@Z
??3@YAXPAX0@Z
??4CMemoryStream@@QAEAAV0@ABV0@@Z
??6@YIAAVCDataStream@@AAV0@PBD@Z
??8@YI_NABU_FILETIME@@0@Z
??C?$reverse_bidirectional_iterator@U?$_List_iterator@UCChunkLevel@CStructureSaver@@U?$_Nonconst_traits@UCChunkLevel@CStructureSaver@@@_STL@@@_STL@@UCChunkLevel@CStructureSaver@@AAU34@PAU34@H@_STL@@QBEPAUCChunkLevel@CStructureSaver@@XZ
??D?$reverse_bidirectional_iterator@U?$_List_iterator@UCChunkLevel@CStructureSaver@@U?$_Nonconst_traits@UCChunkLevel@CStructureSaver@@@_STL@@@_STL@@UCChunkLevel@CStructureSaver@@AAU34@PAU34@H@_STL@@QBEAAUCChunkLevel@CStructureSaver@@XZ
??E?$reverse_bidirectional_iterator@U?$_List_iterator@UCChunkLevel@CStructureSaver@@U?$_Nonconst_traits@UCChunkLevel@CStructureSaver@@@_STL@@@_STL@@UCChunkLevel@CStructureSaver@@AAU34@PAU34@H@_STL@@QAEAAV01@XZ
??ICObjectBase@@UAEHAAVCStructureSaver@@@Z
??R?$_Select1st@U?$pair@$$CBHP6IPAVCObjectBase@@XZ@_STL@@@_STL@@QBEABHABU?$pair@$$CBHP6IPAVCObjectBase@@XZ@1@@Z
??R?$_Select1st@U?$pair@$$CBHUSFileInfo@@@_STL@@@_STL@@QBEABHABU?$pair@$$CBHUSFileInfo@@@1@@Z
??R?$_Select1st@U?$pair@$$CBHU_FILETIME@@@_STL@@@_STL@@QBEABHABU?$pair@$$CBHU_FILETIME@@@1@@Z
??R?$_Select1st@U?$pair@$$CBH_N@_STL@@@_STL@@QBEABHABU?$pair@$$CBH_N@1@@Z
??R?$_Select1st@U?$pair@QAXV?$CPtr@VCObjectBase@@@@@_STL@@@_STL@@QBEABQAXABU?$pair@QAXV?$CPtr@VCObjectBase@@@@@1@@Z
??R?$_Select1st@U?$pair@QAX_N@_STL@@@_STL@@QBEABQAXABU?$pair@QAX_N@1@@Z
??R?$_Select1st@U?$pair@QBVtype_info@@H@_STL@@@_STL@@QBEABQBVtype_info@@ABU?$pair@QBVtype_info@@H@1@@Z
??R?$equal_to@H@_STL@@QBE_NABH0@Z
??R?$equal_to@PAX@_STL@@QBE_NABQAX0@Z
??R?$equal_to@PBVtype_info@@@_STL@@QBE_NABQBVtype_info@@0@Z
??R?$hash@H@_STL@@QBEIH@Z
??R?$less@I@_STL@@QBE_NABI0@Z
??RSDefaultPtrHash@@QBEHPBX@Z
??RSFileHash@@QBEHABH@Z
??_G?$CClassFactory@VCObjectBase@@@@QAEPAXI@Z
??_G?$TFilesPackage@VCFileStream@@@@UAEPAXI@Z
??_G?$TFilesPackage@VCMemoryStream@@@@UAEPAXI@Z
??_G?$pair@QAXV?$CPtr@VCObjectBase@@@@@_STL@@QAEPAXI@Z
??_GCBufferedStream@@UAEPAXI@Z
??_GCCachedFilesPackage@@UAEPAXI@Z
??_GCDataStream@@UAEPAXI@Z
??_GCFileStream@@UAEPAXI@Z
??_GCFilesPackage@@UAEPAXI@Z
??_GCMemoryStream@@UAEPAXI@Z
??_GCObjectBase@@MAEPAXI@Z
??_GCPackageStream@@UAEPAXI@Z
??_GIFilesPackage@@UAEPAXI@Z
?Add@CStructureSaver@@QAEXDPAHH@Z
?Add@CStructureSaver@@QAEXDPAUSFileInfo@@H@Z
?Add@CStructureSaver@@QAEXDPAU_FILETIME@@H@Z
?Add@CStructureSaver@@QAEXDPAV?$hash_map@HUSFileInfo@@USFileHash@@U?$equal_to@H@_STL@@V?$allocator@U?$pair@$$CBHUSFileInfo@@@_STL@@@4@@_STL@@H@Z
?Add@CStructureSaver@@QAEXDPAV?$hash_map@HU_FILETIME@@USFileHash@@U?$equal_to@H@_STL@@V?$allocator@U?$pair@$$CBHU_FILETIME@@@_STL@@@4@@_STL@@H@Z
?AddInternal@CStructureSaver@@AAAXDHPAHZZ
?AddInternal@CStructureSaver@@AAAXDHPAUSFileInfo@@ZZ
?AddInternal@CStructureSaver@@AAAXDHPAU_FILETIME@@ZZ
?AddInternal@CStructureSaver@@AAAXDHPAV?$hash_map@HUSFileInfo@@USFileHash@@U?$equal_to@H@_STL@@V?$allocator@U?$pair@$$CBHUSFileInfo@@@_STL@@@4@@_STL@@0@Z
?AddInternal@CStructureSaver@@AAAXDHPAV?$hash_map@HU_FILETIME@@USFileHash@@U?$equal_to@H@_STL@@V?$allocator@U?$pair@$$CBHU_FILETIME@@@_STL@@@4@@_STL@@0@Z
?AddObj@CObjectBase@@AAEXH@Z
?AddRef@CObjectBase@@AAEXXZ
?AddRef@SRef@CObjectBase@@QAEXPAV2@@Z
?AddRef@SRefO@CObjectBase@@QAEXPAV2@@Z
?AlignDataFileSize@CStructureSaver@@AAEXXZ
?AllocForDirectReadAccess@CBufferedStream@@EAEXI@Z
?AllocForDirectReadAccess@CFixedMemStream@@MAEXI@Z
?AllocForDirectReadAccess@CMemoryStream@@MAEXI@Z
?AllocForDirectWriteAccess@CBufferedStream@@EAEXI@Z
?AllocForDirectWriteAccess@CFixedMemStream@@MAEXI@Z
?AllocForDirectWriteAccess@CMemoryStream@@MAEXI@Z
?CallObjectSerialize@CStructureSaver@@AAAXDHPAHPAU?$SGenericNumberTemplate@$00@@@Z
?CallObjectSerialize@CStructureSaver@@AAAXDHPAUSFileInfo@@PAU?$SGenericNumberTemplate@$00@@@Z
?CallObjectSerialize@CStructureSaver@@AAAXDHPAU_FILETIME@@PAU?$SGenericNumberTemplate@$00@@@Z
?CastToObjectBase@@YIPAVCObjectBase@@PAV1@@Z
?CastToObjectBase@@YIPAVCObjectBase@@PAVCCachedFilesPackage@@@Z
?CastToObjectBase@@YIPAVCObjectBase@@PAVCFilesPackage@@@Z
?CastToObjectBase@@YIPAVCObjectBase@@PAVIFilesPackage@@@Z
?CastToObjectBaseImpl@@YIPAVCObjectBase@@PAV1@0@Z
?CastToObjectBaseImpl@@YIPAVCObjectBase@@PAVCCachedFilesPackage@@PAV1@@Z
?CastToObjectBaseImpl@@YIPAVCObjectBase@@PAVCFilesPackage@@PAV1@@Z
?CastToObjectBaseImpl@@YIPAVCObjectBase@@PAVIFilesPackage@@PAV1@@Z
?CastToObjectBaseImpl@@YIPAVCObjectBase@@PAVIFilesPackage@@PAX@Z
?CastToUserObjectImpl@@YIPAVIFilesPackage@@PAVCObjectBase@@PAV1@PAX@Z
?Clear@CChunkLevel@CStructureSaver@@QAEXXZ
?Clear@CMemoryStream@@QAEXXZ
?ClearCache@CChunkLevel@CStructureSaver@@QAEXXZ
?ClearWasted@CDataStream@@IAEXXZ
?CloseFile@CFileStream@@QAEXXZ
?CopyMemoryStream@CMemoryStream@@IAEXABV1@@Z
?CountChunks@CStructureSaver@@AAEHD@Z
?CountShortChunks@CStructureSaver@@AAEHAAUCChunkLevel@1@D@Z
?CreateObject@?$CClassFactory@VCObjectBase@@@@QAEPAVCObjectBase@@H@Z
?DataChunk@CStructureSaver@@AAEXDPAXHH@Z
?DataChunkBLOB@CStructureSaver@@AAEXAAVCMemoryStream@@@Z
?DataChunkString@CStructureSaver@@AAEXAAV?$basic_string@DU?$char_traits@D@std@@V?$allocator@D@_STL@@@_STL@@@Z
?DataChunkString@CStructureSaver@@AAEXAAV?$basic_string@GU?$char_traits@G@std@@V?$allocator@G@_STL@@@_STL@@@Z
?DecRef@CObjectBase@@AAEXXZ
?DecRef@SRef@CObjectBase@@QAEXPAV2@@Z
?DestroyContents@CCachedFilesPackage@@MAEXXZ
?DestroyContents@CFilesPackage@@MAEXXZ
?DirectRead@CBufferedStream@@EAEXPAXI@Z
?DirectRead@CFixedMemStream@@MAEXPAXI@Z
?DirectRead@CMemoryStream@@MAEXPAXI@Z
?DirectWrite@CBufferedStream@@EAEXPBXI@Z
?DirectWrite@CFixedMemStream@@MAEXPBXI@Z
?DirectWrite@CMemoryStream@@MAEXPBXI@Z
?DoHashMap@CStructureSaver@@AAEXAAV?$hash_map@HUSFileInfo@@USFileHash@@U?$equal_to@H@_STL@@V?$allocator@U?$pair@$$CBHUSFileInfo@@@_STL@@@4@@_STL@@@Z
?DoHashMap@CStructureSaver@@AAEXAAV?$hash_map@HU_FILETIME@@USFileHash@@U?$equal_to@H@_STL@@V?$allocator@U?$pair@$$CBHU_FILETIME@@@_STL@@@4@@_STL@@@Z
?DoRead@CFileStream@@EAEIIPAXI@Z
?DoRead@CPackageStream@@EAEIIPAXI@Z
?DoWrite@CFileStream@@EAEIIPBXI@Z
?DoWrite@CPackageStream@@EAEIIPBXI@Z
?DoesFileExist@@YI_NPAVIFilesPackage@@H@Z
?Finish@CStructureSaver@@AAEXXZ
?FinishAccess@CBufferedStream@@IAEXXZ
?FinishChunk@CStructureSaver@@AAEXXZ
?FixupBufferSize@CMemoryStream@@IAEXH@Z
?FixupSize@CDataStream@@IAEXXZ
?FlushBuffer@CBufferedStream@@AAEXXZ
?Free@CDataStream@@IAEXPAE@Z
?GetBuffer@CMemoryStream@@QBEPBEXZ
?GetBufferForWrite@CMemoryStream@@QBEPAEXZ
?GetFileInfo@IFilesPackage@@QAEPAUSFileInfo@@H@Z
?GetObjectType@?$CClassFactory@VCObjectBase@@@@CIPBVtype_info@@PAVCObjectBase@@@Z
?GetObjectTypeID@?$CClassFactory@VCObjectBase@@@@QAEHPAVCObjectBase@@@Z
?GetPosition@CDataStream@@QAEHXZ
?GetShortChunk@CStructureSaver@@AAE_NAAUCChunkLevel@1@D0H@Z
?GetSize@CDataStream@@QAEHXZ
?Init@CBitStream@@IAEXPAEW4Mode@1@H@Z
?IsReading@CStructureSaver@@QAE_NXZ
?IsRefInvalid@CObjectBase@@QBEHXZ
?IsWasted@CDataStream@@IAEHXZ
?LoadBufferForced@CBufferedStream@@AAEXH@Z
?LoadHeaderInfo@?$TFilesPackage@VCFileStream@@@@IAEXXZ
?LoadHeaderInfo@?$TFilesPackage@VCMemoryStream@@@@IAEXXZ
?LoadObject@CStructureSaver@@AAEPAVCObjectBase@@XZ
?LockRead@CBitLocker@@QAEXAAVCDataStream@@I@Z
?LockWrite@CBitLocker@@QAEXAAVCDataStream@@I@Z
?MakeCopy@CObjectBase@@MBEPAV1@XZ
?NotifyFinishDirectAccess@CBufferedStream@@EAEXXZ
?NotifyFinishDirectAccess@CDataStream@@MAEXXZ
?Open@CCachedFilesPackage@@QAE_NPBD@Z
?Open@CFileStream@@AAEXPBD0H@Z
?Open@CFileStream@@QAEXPBD@Z
?Open@CFilesPackage@@QAE_NPBD@Z
?OpenCachedFilesPackage@@YIPAVIFilesPackage@@PBD@Z
?OpenFilesPackage@@YIPAVIFilesPackage@@PBD@Z
?OpenRead@CFileStream@@QAEXPBD@Z
?OpenWrite@CFileStream@@QAEXPBD@Z
?RRead@CDataStream@@IAEXPAXI@Z
?RWrite@CDataStream@@IAEXPBXI@Z
?RawData@CStructureSaver@@AAEXPAXH@Z
?Read@?$TFilesPackage@VCFileStream@@@@UAEXIPAXI@Z
?Read@?$TFilesPackage@VCMemoryStream@@@@UAEXIPAXI@Z
?Read@CDataStream@@QAEXPAXI@Z
?ReadHeader@?$TFilesPackage@VCFileStream@@@@IAEXPAVCMemoryStream@@PAH@Z
?ReadHeader@?$TFilesPackage@VCMemoryStream@@@@IAEXPAVCMemoryStream@@PAH@Z
?ReadOverflow@CDataStream@@IAEXPAXI@Z
?ReadShortChunk@CStructureSaver@@AAE_NAAUCChunkLevel@1@AAH0@Z
?ReadString@CDataStream@@QAEXAAV?$basic_string@DU?$char_traits@D@std@@V?$allocator@D@_STL@@@_STL@@H@Z
?Release@SRef@CObjectBase@@QAEXPAV2@@Z
?Release@SRefO@CObjectBase@@QAEXPAV2@@Z
?RescanDir@CFilesPackage@@QAE_NPAVCDataStream@@PBDPAV?$hash_map@HU_FILETIME@@USFileHash@@U?$equal_to@H@_STL@@V?$allocator@U?$pair@$$CBHU_FILETIME@@@_STL@@@4@@_STL@@PAH@Z
?ReserveR@CDataStream@@IAEPAEI@Z
?ReserveRead@CBitLocker@@QAEXI@Z
?ReserveW@CDataStream@@IAEPAEI@Z
?ReserveWrite@CBitLocker@@QAEXI@Z
?Seek@CBufferedStream@@UAEXI@Z
?Seek@CMemoryStream@@UAEXI@Z
?SetNewBufferSize@CBufferedStream@@AAEXI@Z
?SetSize@CMemoryStream@@QAEXH@Z
?SetSizeDiscard@CMemoryStream@@QAEXH@Z
?SetWasted@CDataStream@@IAEXXZ
?ShiftBuffer@CBufferedStream@@AAEXXZ
?Start@CStructureSaver@@AAEX_N@Z
?StartAccess@CBufferedStream@@IAEXII@Z
?StartChunk@CStructureSaver@@AAE_NDH@Z
?StartRegisterSaveload@@YIXXZ
?StoreObject@CStructureSaver@@AAEXPAVCObjectBase@@@Z
?TryOpen@CFileStream@@QAE_NPBD@Z
?TryOpenRead@CFileStream@@QAE_NPBD@Z
?TryOpenWrite@CFileStream@@QAE_NPBD@Z
?Update@CFilesPackage@@QAE_NPAVCDataStream@@PBD1@Z
?UpdateFilesPackage@@YI_NPAVCDataStream@@PBD1@Z
?VFT2TypeID@?$CClassFactory@VCObjectBase@@@@AAEHPBVtype_info@@@Z
?Write@?$TFilesPackage@VCFileStream@@@@UAEXIPBXI@Z
?Write@?$TFilesPackage@VCMemoryStream@@@@UAEXIPBXI@Z
?Write@CDataStream@@QAEXPBXI@Z
?WriteFrom@CDataStream@@QAEXAAV1@@Z
?WriteHeader@?$TFilesPackage@VCFileStream@@@@IAEXPAVCMemoryStream@@H@Z
?WriteRawData@CStructureSaver@@AAEXPBXH@Z
?WriteShortChunk@CStructureSaver@@AAE_NAAUCChunkLevel@1@DPBEH@Z
?WriteString@CDataStream@@QAEXABV?$basic_string@DU?$char_traits@D@std@@V?$allocator@D@_STL@@@_STL@@@Z
?_M_allocate_block@?$_String_base@DV?$allocator@D@_STL@@@_STL@@QAEXI@Z
?_M_deallocate_block@?$_String_base@DV?$allocator@D@_STL@@@_STL@@QAEXXZ
?_M_deallocate_block@?$_String_base@GV?$allocator@G@_STL@@@_STL@@QAEXXZ
?_M_decr@_List_iterator_base@_STL@@QAEXXZ
?_M_throw_length_error@?$_String_base@DV?$allocator@D@_STL@@@_STL@@QBEXXZ
?_M_throw_length_error@?$_String_base@GV?$allocator@G@_STL@@@_STL@@QBEXXZ
?_Ret@?$_IsPOD@D@_STL@@SI?AU__true_type@2@XZ
?_Ret@?$_IsPOD@G@_STL@@SI?AU__true_type@2@XZ
?_Ret@?$_IsPOD@PAX@_STL@@SI?AU__true_type@2@XZ
?__Min@@YIHABH0@Z
?allocate@__new_alloc@_STL@@SAPAXI@Z
?deallocate@__new_alloc@_STL@@SAXPAXI@Z
?init@@3USBasicChunkInit@@A DATA
?max_size@?$_String_base@DV?$allocator@D@_STL@@@_STL@@QBEIXZ
?max_size@?$_String_base@GV?$allocator@G@_STL@@@_STL@@QBEIXZ
?nBitsMask@CBitStream@@1PAIA DATA
?pSSClasses@@3PAV?$CClassFactory@VCObjectBase@@@@A DATA
?what@__Named_exception@_STL@@UBEPBDXZ
